TN:
SF:/SharedWithWindows/Projects/diginstrument/inc/Pattern.h
FN:10,_ZN11Composition7PatternC2Ev
FN:10,_ZN11Composition7PatternD2Ev
FN:30,_ZN11Composition4NoteD2Ev
FN:42,_ZN11Composition4NoteC2ENSt7__cxx1112basic_stringIcSt11char_traitsIcESaIcEEE
FN:43,_ZN11Composition4NoteC2ENSt7__cxx1112basic_stringIcSt11char_traitsIcESaIcEEEf
FNDA:29,_ZN11Composition7PatternD2Ev
FNDA:29,_ZN11Composition7PatternC2Ev
FNDA:17,_ZN11Composition4NoteD2Ev
FNDA:16,_ZN11Composition4NoteC2ENSt7__cxx1112basic_stringIcSt11char_traitsIcESaIcEEE
FNDA:1,_ZN11Composition4NoteC2ENSt7__cxx1112basic_stringIcSt11char_traitsIcESaIcEEEf
FNF:5
FNH:5
BRDA:42,1,2,16
BRDA:42,1,3,0
BRDA:43,1,2,1
BRDA:43,1,3,0
BRF:4
BRH:2
DA:10,116
DA:30,34
DA:42,16
DA:43,1
LF:4
LH:4
end_of_record
SF:/SharedWithWindows/Projects/diginstrument/instrument_test/pattern_test.cpp
FN:7,_ZN12_GLOBAL__N_111PatternTestD2Ev
FN:7,_ZN12_GLOBAL__N_111PatternTestC2Ev
FN:10,_ZN12_GLOBAL__N_111PatternTest5SetUpEv
FN:11,_ZN12_GLOBAL__N_111PatternTest8TearDownEv
FN:14,_ZN12_GLOBAL__N_126PatternTest_serialize_Test8TestBodyEv
FN:14,_ZN12_GLOBAL__N_126PatternTest_serialize_TestD2Ev
FN:14,_ZN12_GLOBAL__N_126PatternTest_serialize_TestD0Ev
FN:14,_ZN12_GLOBAL__N_126PatternTest_serialize_TestC2Ev
FN:49,_ZN12_GLOBAL__N_123PatternTest_remove_Test8TestBodyEv
FN:49,_ZN12_GLOBAL__N_123PatternTest_remove_TestC2Ev
FN:49,_ZN12_GLOBAL__N_123PatternTest_remove_TestD0Ev
FN:49,_ZN12_GLOBAL__N_123PatternTest_remove_TestD2Ev
FN:87,_ZN12_GLOBAL__N_131PatternTest_multisetRemove_TestD2Ev
FN:87,_ZN12_GLOBAL__N_131PatternTest_multisetRemove_Test8TestBodyEv
FN:87,_ZN12_GLOBAL__N_131PatternTest_multisetRemove_TestD0Ev
FN:87,_ZN12_GLOBAL__N_131PatternTest_multisetRemove_TestC2Ev
FN:125,_ZN12_GLOBAL__N_126PatternTest_getLength_TestC2Ev
FN:125,_ZN12_GLOBAL__N_126PatternTest_getLength_TestD2Ev
FN:125,_ZN12_GLOBAL__N_126PatternTest_getLength_Test8TestBodyEv
FN:125,_ZN12_GLOBAL__N_126PatternTest_getLength_TestD0Ev
FN:158,_GLOBAL__sub_I_pattern_test.cpp
FN:158,_Z41__static_initialization_and_destruction_0ii
FNDA:4,_ZN12_GLOBAL__N_111PatternTestD2Ev
FNDA:4,_ZN12_GLOBAL__N_111PatternTestC2Ev
FNDA:4,_ZN12_GLOBAL__N_111PatternTest5SetUpEv
FNDA:4,_ZN12_GLOBAL__N_111PatternTest8TearDownEv
FNDA:1,_ZN12_GLOBAL__N_126PatternTest_serialize_TestD0Ev
FNDA:1,_ZN12_GLOBAL__N_126PatternTest_serialize_TestD2Ev
FNDA:1,_ZN12_GLOBAL__N_126PatternTest_serialize_Test8TestBodyEv
FNDA:1,_ZN12_GLOBAL__N_126PatternTest_serialize_TestC2Ev
FNDA:1,_ZN12_GLOBAL__N_123PatternTest_remove_TestD0Ev
FNDA:1,_ZN12_GLOBAL__N_123PatternTest_remove_TestD2Ev
FNDA:1,_ZN12_GLOBAL__N_123PatternTest_remove_Test8TestBodyEv
FNDA:1,_ZN12_GLOBAL__N_123PatternTest_remove_TestC2Ev
FNDA:1,_ZN12_GLOBAL__N_131PatternTest_multisetRemove_TestD0Ev
FNDA:1,_ZN12_GLOBAL__N_131PatternTest_multisetRemove_TestD2Ev
FNDA:1,_ZN12_GLOBAL__N_131PatternTest_multisetRemove_Test8TestBodyEv
FNDA:1,_ZN12_GLOBAL__N_131PatternTest_multisetRemove_TestC2Ev
FNDA:1,_ZN12_GLOBAL__N_126PatternTest_getLength_TestD0Ev
FNDA:1,_ZN12_GLOBAL__N_126PatternTest_getLength_TestD2Ev
FNDA:1,_ZN12_GLOBAL__N_126PatternTest_getLength_Test8TestBodyEv
FNDA:1,_ZN12_GLOBAL__N_126PatternTest_getLength_TestC2Ev
FNDA:1,_GLOBAL__sub_I_pattern_test.cpp
FNDA:1,_Z41__static_initialization_and_destruction_0ii
FNF:22
FNH:22
BRDA:14,4294967295,5,1
BRDA:14,4294967295,6,0
BRDA:14,0,8,1
BRDA:14,0,9,0
BRDA:14,1,12,1
BRDA:14,1,13,0
BRDA:16,0,2,1
BRDA:16,0,3,0
BRDA:16,1,6,1
BRDA:16,1,7,0
BRDA:17,4294967295,2,1
BRDA:17,4294967295,3,0
BRDA:17,0,6,1
BRDA:17,0,7,0
BRDA:18,4294967295,2,1
BRDA:18,4294967295,3,0
BRDA:18,0,6,1
BRDA:18,0,7,0
BRDA:19,4294967295,2,1
BRDA:19,4294967295,3,0
BRDA:19,0,6,1
BRDA:19,0,7,0
BRDA:24,4294967295,1,1
BRDA:24,4294967295,2,0
BRDA:25,0,1,1
BRDA:25,0,2,0
BRDA:26,0,1,1
BRDA:26,0,2,0
BRDA:28,0,1,1
BRDA:28,0,2,0
BRDA:29,0,1,1
BRDA:29,0,2,0
BRDA:33,4294967295,1,1
BRDA:33,4294967295,2,0
BRDA:34,0,1,1
BRDA:34,0,2,0
BRDA:35,0,1,1
BRDA:35,0,2,0
BRDA:36,0,1,1
BRDA:36,0,2,0
BRDA:39,0,1,1
BRDA:39,0,2,0
BRDA:42,0,5,7
BRDA:42,0,6,1
BRDA:42,1,9,7
BRDA:42,1,10,0
BRDA:45,0,1,1
BRDA:45,0,2,0
BRDA:45,1,4,1
BRDA:45,1,5,0
BRDA:45,2,8,0
BRDA:45,2,9,1
BRDA:45,3,11,-
BRDA:45,3,12,-
BRDA:45,4,14,-
BRDA:45,4,15,-
BRDA:45,5,18,-
BRDA:45,5,19,-
BRDA:45,6,21,-
BRDA:45,6,22,-
BRDA:46,4294967295,2,1
BRDA:46,4294967295,3,0
BRDA:46,0,5,1
BRDA:46,0,6,0
BRDA:46,1,9,0
BRDA:46,1,10,1
BRDA:46,2,12,-
BRDA:46,2,13,-
BRDA:46,3,15,-
BRDA:46,3,16,-
BRDA:46,4,18,-
BRDA:46,4,19,-
BRDA:46,5,21,-
BRDA:46,5,22,-
BRDA:49,4294967295,5,1
BRDA:49,4294967295,6,0
BRDA:49,0,8,1
BRDA:49,0,9,0
BRDA:49,1,12,1
BRDA:49,1,13,0
BRDA:51,0,2,1
BRDA:51,0,3,0
BRDA:51,1,6,1
BRDA:51,1,7,0
BRDA:52,4294967295,2,1
BRDA:52,4294967295,3,0
BRDA:52,0,6,1
BRDA:52,0,7,0
BRDA:53,4294967295,2,1
BRDA:53,4294967295,3,0
BRDA:53,0,6,1
BRDA:53,0,7,0
BRDA:54,4294967295,2,1
BRDA:54,4294967295,3,0
BRDA:54,0,6,1
BRDA:54,0,7,0
BRDA:59,4294967295,1,1
BRDA:59,4294967295,2,0
BRDA:60,0,1,1
BRDA:60,0,2,0
BRDA:61,0,1,1
BRDA:61,0,2,0
BRDA:63,0,1,1
BRDA:63,0,2,0
BRDA:64,0,1,1
BRDA:64,0,2,0
BRDA:68,4294967295,1,1
BRDA:68,4294967295,2,0
BRDA:69,0,1,1
BRDA:69,0,2,0
BRDA:70,0,1,1
BRDA:70,0,2,0
BRDA:72,0,1,1
BRDA:72,0,2,0
BRDA:73,0,1,1
BRDA:73,0,2,0
BRDA:75,0,1,1
BRDA:75,0,2,0
BRDA:78,0,5,3
BRDA:78,0,6,1
BRDA:78,1,9,3
BRDA:78,1,10,0
BRDA:81,0,1,1
BRDA:81,0,2,0
BRDA:81,1,4,1
BRDA:81,1,5,0
BRDA:81,2,8,0
BRDA:81,2,9,1
BRDA:81,3,11,-
BRDA:81,3,12,-
BRDA:81,4,14,-
BRDA:81,4,15,-
BRDA:81,5,18,-
BRDA:81,5,19,-
BRDA:81,6,21,-
BRDA:81,6,22,-
BRDA:82,4294967295,2,1
BRDA:82,4294967295,3,0
BRDA:82,0,5,1
BRDA:82,0,6,0
BRDA:82,1,9,0
BRDA:82,1,10,1
BRDA:82,2,12,-
BRDA:82,2,13,-
BRDA:82,3,15,-
BRDA:82,3,16,-
BRDA:82,4,18,-
BRDA:82,4,19,-
BRDA:82,5,21,-
BRDA:82,5,22,-
BRDA:83,4294967295,2,1
BRDA:83,4294967295,3,0
BRDA:83,0,5,1
BRDA:83,0,6,0
BRDA:83,1,9,0
BRDA:83,1,10,1
BRDA:83,2,12,-
BRDA:83,2,13,-
BRDA:83,3,15,-
BRDA:83,3,16,-
BRDA:83,4,18,-
BRDA:83,4,19,-
BRDA:83,5,21,-
BRDA:83,5,22,-
BRDA:87,4294967295,5,1
BRDA:87,4294967295,6,0
BRDA:87,0,8,1
BRDA:87,0,9,0
BRDA:87,1,12,1
BRDA:87,1,13,0
BRDA:89,0,2,1
BRDA:89,0,3,0
BRDA:89,1,6,1
BRDA:89,1,7,0
BRDA:90,4294967295,2,1
BRDA:90,4294967295,3,0
BRDA:90,0,6,1
BRDA:90,0,7,0
BRDA:91,4294967295,2,1
BRDA:91,4294967295,3,0
BRDA:91,0,6,1
BRDA:91,0,7,0
BRDA:92,4294967295,2,1
BRDA:92,4294967295,3,0
BRDA:92,0,6,1
BRDA:92,0,7,0
BRDA:97,4294967295,1,1
BRDA:97,4294967295,2,0
BRDA:98,0,1,1
BRDA:98,0,2,0
BRDA:99,0,1,1
BRDA:99,0,2,0
BRDA:101,0,1,1
BRDA:101,0,2,0
BRDA:102,0,1,1
BRDA:102,0,2,0
BRDA:106,4294967295,1,1
BRDA:106,4294967295,2,0
BRDA:107,0,1,1
BRDA:107,0,2,0
BRDA:108,0,1,1
BRDA:108,0,2,0
BRDA:109,0,1,1
BRDA:109,0,2,0
BRDA:111,0,1,1
BRDA:111,0,2,0
BRDA:112,0,1,1
BRDA:112,0,2,0
BRDA:114,0,1,1
BRDA:114,0,2,0
BRDA:117,0,5,4
BRDA:117,0,6,1
BRDA:117,1,9,4
BRDA:117,1,10,0
BRDA:120,0,1,1
BRDA:120,0,2,0
BRDA:120,1,4,1
BRDA:120,1,5,0
BRDA:120,2,8,0
BRDA:120,2,9,1
BRDA:120,3,11,-
BRDA:120,3,12,-
BRDA:120,4,14,-
BRDA:120,4,15,-
BRDA:120,5,18,-
BRDA:120,5,19,-
BRDA:120,6,21,-
BRDA:120,6,22,-
BRDA:121,4294967295,2,1
BRDA:121,4294967295,3,0
BRDA:121,0,5,1
BRDA:121,0,6,0
BRDA:121,1,9,0
BRDA:121,1,10,1
BRDA:121,2,12,-
BRDA:121,2,13,-
BRDA:121,3,15,-
BRDA:121,3,16,-
BRDA:121,4,18,-
BRDA:121,4,19,-
BRDA:121,5,21,-
BRDA:121,5,22,-
BRDA:122,4294967295,2,1
BRDA:122,4294967295,3,0
BRDA:122,0,5,1
BRDA:122,0,6,0
BRDA:122,1,9,0
BRDA:122,1,10,1
BRDA:122,2,12,-
BRDA:122,2,13,-
BRDA:122,3,15,-
BRDA:122,3,16,-
BRDA:122,4,18,-
BRDA:122,4,19,-
BRDA:122,5,21,-
BRDA:122,5,22,-
BRDA:125,4294967295,5,1
BRDA:125,4294967295,6,0
BRDA:125,0,8,1
BRDA:125,0,9,0
BRDA:125,1,12,1
BRDA:125,1,13,0
BRDA:127,0,2,1
BRDA:127,0,3,0
BRDA:127,1,6,1
BRDA:127,1,7,0
BRDA:128,4294967295,2,1
BRDA:128,4294967295,3,0
BRDA:128,0,6,1
BRDA:128,0,7,0
BRDA:129,4294967295,2,1
BRDA:129,4294967295,3,0
BRDA:129,0,6,1
BRDA:129,0,7,0
BRDA:130,4294967295,2,1
BRDA:130,4294967295,3,0
BRDA:130,0,6,1
BRDA:130,0,7,0
BRDA:131,4294967295,2,1
BRDA:131,4294967295,3,0
BRDA:131,0,6,1
BRDA:131,0,7,0
BRDA:136,4294967295,1,1
BRDA:136,4294967295,2,0
BRDA:137,0,1,1
BRDA:137,0,2,0
BRDA:138,0,1,1
BRDA:138,0,2,0
BRDA:139,0,1,1
BRDA:139,0,2,0
BRDA:141,0,1,1
BRDA:141,0,2,0
BRDA:142,0,1,1
BRDA:142,0,2,0
BRDA:146,4294967295,1,1
BRDA:146,4294967295,2,0
BRDA:147,0,1,1
BRDA:147,0,2,0
BRDA:148,0,1,1
BRDA:148,0,2,0
BRDA:149,0,1,1
BRDA:149,0,2,0
BRDA:151,0,1,1
BRDA:151,0,2,0
BRDA:151,1,4,1
BRDA:151,1,5,0
BRDA:151,2,7,1
BRDA:151,2,8,0
BRDA:151,3,11,0
BRDA:151,3,12,1
BRDA:151,4,14,-
BRDA:151,4,15,-
BRDA:151,5,17,-
BRDA:151,5,18,-
BRDA:151,6,20,-
BRDA:151,6,21,-
BRDA:151,7,23,-
BRDA:151,7,24,-
BRDA:153,4294967295,1,1
BRDA:153,4294967295,2,0
BRDA:155,0,1,1
BRDA:155,0,2,0
BRDA:155,1,4,1
BRDA:155,1,5,0
BRDA:155,2,7,1
BRDA:155,2,8,0
BRDA:155,3,11,0
BRDA:155,3,12,1
BRDA:155,4,14,-
BRDA:155,4,15,-
BRDA:155,5,17,-
BRDA:155,5,18,-
BRDA:155,6,20,-
BRDA:155,6,21,-
BRDA:155,7,23,-
BRDA:155,7,24,-
BRDA:158,3,1,1
BRDA:158,3,2,0
BRDA:158,4,3,1
BRDA:158,4,4,0
BRF:340
BRH:133
DA:7,16
DA:10,4
DA:11,4
DA:14,8
DA:16,2
DA:17,2
DA:18,2
DA:19,2
DA:21,2
DA:22,2
DA:24,1
DA:25,1
DA:26,1
DA:28,1
DA:29,1
DA:31,2
DA:33,1
DA:34,1
DA:35,1
DA:36,1
DA:39,2
DA:40,1
DA:41,1
DA:42,8
DA:43,7
DA:45,1
DA:46,1
DA:47,1
DA:49,8
DA:51,2
DA:52,2
DA:53,2
DA:54,2
DA:56,2
DA:57,2
DA:59,1
DA:60,1
DA:61,1
DA:63,1
DA:64,1
DA:66,2
DA:68,1
DA:69,1
DA:70,1
DA:72,1
DA:73,1
DA:75,2
DA:76,1
DA:77,1
DA:78,4
DA:79,3
DA:81,1
DA:82,1
DA:83,1
DA:84,1
DA:87,8
DA:89,2
DA:90,2
DA:91,2
DA:92,2
DA:94,2
DA:95,2
DA:97,1
DA:98,1
DA:99,1
DA:101,1
DA:102,1
DA:104,2
DA:106,1
DA:107,1
DA:108,1
DA:109,1
DA:111,1
DA:112,1
DA:114,2
DA:115,1
DA:116,1
DA:117,5
DA:118,4
DA:120,1
DA:121,1
DA:122,1
DA:123,1
DA:125,8
DA:127,2
DA:128,2
DA:129,2
DA:130,2
DA:131,2
DA:133,2
DA:134,2
DA:136,1
DA:137,1
DA:138,1
DA:139,1
DA:141,1
DA:142,1
DA:144,2
DA:146,1
DA:147,1
DA:148,1
DA:149,1
DA:151,1
DA:153,1
DA:155,1
DA:156,1
DA:158,4
LF:107
LH:107
end_of_record
TN:
SF:/SharedWithWindows/Projects/diginstrument/inc/Instrument.h
FN:13,_ZN10Instrument6SimpleIfED2Ev
FN:13,_ZN10Instrument6SimpleIfEC2Ev
FN:22,_ZN10Instrument6SimpleIfE6removeENSt7__cxx1112basic_stringIcSt11char_traitsIcESaIcEEE
FNDA:2,_ZN10Instrument6SimpleIfED2Ev
FNDA:2,_ZN10Instrument6SimpleIfEC2Ev
FNDA:1,_ZN10Instrument6SimpleIfE6removeENSt7__cxx1112basic_stringIcSt11char_traitsIcESaIcEEE
FNF:3
FNH:3
DA:13,8
DA:22,2
LF:2
LH:2
end_of_record
SF:/SharedWithWindows/Projects/diginstrument/inc/Note.h
FN:11,_ZN10Instrument4Note5BakedIfEC2Ev
FN:11,_ZN10Instrument4Note5BakedIfED2Ev
FNDA:3,_ZN10Instrument4Note5BakedIfED2Ev
FNDA:3,_ZN10Instrument4Note5BakedIfEC2Ev
FNF:2
FNH:2
DA:11,12
LF:1
LH:1
end_of_record
SF:/SharedWithWindows/Projects/diginstrument/inc/RepeatingBuffer.h
FN:15,_ZN8DataFlow15RepeatingBufferIfED2Ev
FN:15,_ZN8DataFlow15RepeatingBufferIfED0Ev
FN:46,_ZN8DataFlow15RepeatingBufferIfEC2Ev
FNDA:0,_ZN8DataFlow15RepeatingBufferIfED0Ev
FNDA:3,_ZN8DataFlow15RepeatingBufferIfED2Ev
FNDA:3,_ZN8DataFlow15RepeatingBufferIfEC2Ev
FNF:3
FNH:2
DA:15,6
DA:46,6
LF:2
LH:2
end_of_record
SF:/SharedWithWindows/Projects/diginstrument/inc/iBuffer.h
FN:11,_ZN8DataFlow7iBufferIfEC2Ev
FN:23,_ZN8DataFlow7iBufferIfED0Ev
FN:23,_ZN8DataFlow7iBufferIfED2Ev
FNDA:3,_ZN8DataFlow7iBufferIfEC2Ev
FNDA:0,_ZN8DataFlow7iBufferIfED0Ev
FNDA:3,_ZN8DataFlow7iBufferIfED2Ev
FNF:3
FNH:2
DA:11,6
DA:23,6
LF:2
LH:2
end_of_record
SF:/SharedWithWindows/Projects/diginstrument/inc/iNote.h
FN:7,_ZN10Instrument5iNoteIfEC2Ev
FNDA:3,_ZN10Instrument5iNoteIfEC2Ev
FNF:1
FNH:1
DA:7,3
LF:1
LH:1
end_of_record
SF:/SharedWithWindows/Projects/diginstrument/inc/iSource.h
FN:15,_ZN8DataFlow7iSourceIfEC2Ev
FN:28,_ZN8DataFlow7iSourceIfED0Ev
FN:28,_ZN8DataFlow7iSourceIfED2Ev
FNDA:3,_ZN8DataFlow7iSourceIfEC2Ev
FNDA:0,_ZN8DataFlow7iSourceIfED0Ev
FNDA:3,_ZN8DataFlow7iSourceIfED2Ev
FNF:3
FNH:2
DA:15,3
DA:28,3
LF:2
LH:2
end_of_record
SF:/SharedWithWindows/Projects/diginstrument/instrument_test/simple_instrument_test.cpp
FN:8,_ZN12_GLOBAL__N_120SimpleInstrumentTestD2Ev
FN:8,_ZN12_GLOBAL__N_120SimpleInstrumentTestC2Ev
FN:11,_ZN12_GLOBAL__N_120SimpleInstrumentTest5SetUpEv
FN:12,_ZN12_GLOBAL__N_120SimpleInstrumentTest8TearDownEv
FN:16,_ZN12_GLOBAL__N_129SimpleInstrumentTest_add_Test8TestBodyEv
FN:16,_ZN12_GLOBAL__N_129SimpleInstrumentTest_add_TestD2Ev
FN:16,_ZN12_GLOBAL__N_129SimpleInstrumentTest_add_TestC2Ev
FN:16,_ZN12_GLOBAL__N_129SimpleInstrumentTest_add_TestD0Ev
FN:30,_ZN12_GLOBAL__N_132SimpleInstrumentTest_remove_Test8TestBodyEv
FN:30,_ZN12_GLOBAL__N_132SimpleInstrumentTest_remove_TestD0Ev
FN:30,_ZN12_GLOBAL__N_132SimpleInstrumentTest_remove_TestD2Ev
FN:30,_ZN12_GLOBAL__N_132SimpleInstrumentTest_remove_TestC2Ev
FN:51,_Z41__static_initialization_and_destruction_0ii
FN:51,_GLOBAL__sub_I_simple_instrument_test.cpp
FNDA:2,_ZN12_GLOBAL__N_120SimpleInstrumentTestD2Ev
FNDA:2,_ZN12_GLOBAL__N_120SimpleInstrumentTestC2Ev
FNDA:2,_ZN12_GLOBAL__N_120SimpleInstrumentTest5SetUpEv
FNDA:2,_ZN12_GLOBAL__N_120SimpleInstrumentTest8TearDownEv
FNDA:1,_ZN12_GLOBAL__N_129SimpleInstrumentTest_add_TestD0Ev
FNDA:1,_ZN12_GLOBAL__N_129SimpleInstrumentTest_add_TestD2Ev
FNDA:1,_ZN12_GLOBAL__N_129SimpleInstrumentTest_add_Test8TestBodyEv
FNDA:1,_ZN12_GLOBAL__N_129SimpleInstrumentTest_add_TestC2Ev
FNDA:1,_ZN12_GLOBAL__N_132SimpleInstrumentTest_remove_TestD0Ev
FNDA:1,_ZN12_GLOBAL__N_132SimpleInstrumentTest_remove_TestD2Ev
FNDA:1,_ZN12_GLOBAL__N_132SimpleInstrumentTest_remove_Test8TestBodyEv
FNDA:1,_ZN12_GLOBAL__N_132SimpleInstrumentTest_remove_TestC2Ev
FNDA:1,_GLOBAL__sub_I_simple_instrument_test.cpp
FNDA:1,_Z41__static_initialization_and_destruction_0ii
FNF:14
FNH:14
BRDA:16,4294967295,5,1
BRDA:16,4294967295,6,0
BRDA:16,0,8,1
BRDA:16,0,9,0
BRDA:16,1,12,1
BRDA:16,1,13,0
BRDA:19,4294967295,1,1
BRDA:19,4294967295,2,0
BRDA:21,0,1,1
BRDA:21,0,2,0
BRDA:22,4294967295,2,1
BRDA:22,4294967295,3,0
BRDA:22,0,5,1
BRDA:22,0,6,0
BRDA:22,1,9,0
BRDA:22,1,10,1
BRDA:22,2,12,-
BRDA:22,2,13,-
BRDA:22,3,15,-
BRDA:22,3,16,-
BRDA:22,4,18,-
BRDA:22,4,19,-
BRDA:22,5,21,-
BRDA:22,5,22,-
BRDA:24,4294967295,2,1
BRDA:24,4294967295,3,0
BRDA:24,0,6,1
BRDA:24,0,7,0
BRDA:26,4294967295,1,1
BRDA:26,4294967295,2,0
BRDA:27,4294967295,2,1
BRDA:27,4294967295,3,0
BRDA:27,0,5,1
BRDA:27,0,6,0
BRDA:27,1,9,0
BRDA:27,1,10,1
BRDA:27,2,12,-
BRDA:27,2,13,-
BRDA:27,3,15,-
BRDA:27,3,16,-
BRDA:27,4,18,-
BRDA:27,4,19,-
BRDA:27,5,21,-
BRDA:27,5,22,-
BRDA:30,4294967295,5,1
BRDA:30,4294967295,6,0
BRDA:30,0,8,1
BRDA:30,0,9,0
BRDA:30,1,12,1
BRDA:30,1,13,0
BRDA:33,4294967295,1,1
BRDA:33,4294967295,2,0
BRDA:34,0,1,1
BRDA:34,0,2,0
BRDA:36,0,1,1
BRDA:36,0,2,0
BRDA:37,4294967295,2,1
BRDA:37,4294967295,3,0
BRDA:37,0,5,1
BRDA:37,0,6,0
BRDA:37,1,9,0
BRDA:37,1,10,1
BRDA:37,2,12,-
BRDA:37,2,13,-
BRDA:37,3,15,-
BRDA:37,3,16,-
BRDA:37,4,18,-
BRDA:37,4,19,-
BRDA:37,5,21,-
BRDA:37,5,22,-
BRDA:39,4294967295,2,1
BRDA:39,4294967295,3,0
BRDA:39,0,6,1
BRDA:39,0,7,0
BRDA:40,4294967295,2,1
BRDA:40,4294967295,3,0
BRDA:40,0,6,1
BRDA:40,0,7,0
BRDA:42,4294967295,1,1
BRDA:42,4294967295,2,0
BRDA:43,4294967295,2,1
BRDA:43,4294967295,3,0
BRDA:43,0,5,1
BRDA:43,0,6,0
BRDA:43,1,9,0
BRDA:43,1,10,1
BRDA:43,2,12,-
BRDA:43,2,13,-
BRDA:43,3,15,-
BRDA:43,3,16,-
BRDA:43,4,18,-
BRDA:43,4,19,-
BRDA:43,5,21,-
BRDA:43,5,22,-
BRDA:45,4294967295,2,1
BRDA:45,4294967295,3,0
BRDA:45,0,6,1
BRDA:45,0,7,0
BRDA:47,4294967295,1,1
BRDA:47,4294967295,2,0
BRDA:48,4294967295,2,1
BRDA:48,4294967295,3,0
BRDA:48,0,5,1
BRDA:48,0,6,0
BRDA:48,1,9,0
BRDA:48,1,10,1
BRDA:48,2,12,-
BRDA:48,2,13,-
BRDA:48,3,15,-
BRDA:48,3,16,-
BRDA:48,4,18,-
BRDA:48,4,19,-
BRDA:48,5,21,-
BRDA:48,5,22,-
BRDA:51,3,1,1
BRDA:51,3,2,0
BRDA:51,4,3,1
BRDA:51,4,4,0
BRF:118
BRH:39
DA:8,8
DA:11,2
DA:12,2
DA:16,8
DA:18,2
DA:19,2
DA:21,2
DA:22,1
DA:24,1
DA:26,1
DA:27,1
DA:28,1
DA:30,8
DA:32,2
DA:33,2
DA:34,2
DA:36,2
DA:37,1
DA:39,1
DA:40,1
DA:42,1
DA:43,1
DA:45,1
DA:47,1
DA:48,1
DA:49,1
DA:51,4
LF:27
LH:27
end_of_record
TN:
SF:/SharedWithWindows/Projects/diginstrument/instrument_test/test_main.cpp
FN:4,main
FN:18,_Z41__static_initialization_and_destruction_0ii
FN:18,_GLOBAL__sub_I_main
FNDA:2,main
FNDA:2,_GLOBAL__sub_I_main
FNDA:2,_Z41__static_initialization_and_destruction_0ii
FNF:3
FNH:3
BRDA:6,0,0,2
BRDA:6,0,1,0
BRDA:7,0,2,2
BRDA:7,0,3,0
BRDA:7,1,5,2
BRDA:7,1,6,0
BRDA:7,2,9,2
BRDA:7,2,10,0
BRDA:18,3,1,2
BRDA:18,3,2,0
BRDA:18,4,3,2
BRDA:18,4,4,0
BRF:12
BRH:6
DA:4,2
DA:6,2
DA:7,2
DA:8,2
DA:9,2
DA:10,2
DA:11,2
DA:14,0
DA:15,0
DA:16,0
DA:17,2
DA:18,8
LF:12
LH:9
end_of_record
TN:
SF:/SharedWithWindows/Projects/diginstrument/inc/AudioSource.h
FN:23,_ZNK5Mixer11AudioSource11getChannelsEv
FN:30,_ZNK5Mixer11AudioSource13getSampleRateEv
FN:33,_ZN5Mixer11AudioSourceC2ERKjS2_
FNDA:0,_ZNK5Mixer11AudioSource11getChannelsEv
FNDA:0,_ZNK5Mixer11AudioSource13getSampleRateEv
FNDA:0,_ZN5Mixer11AudioSourceC2ERKjS2_
FNF:3
FNH:0
DA:23,0
DA:30,0
DA:33,0
LF:3
LH:0
end_of_record
SF:/SharedWithWindows/Projects/diginstrument/inc/CheapSawtoothGenerator.h
FN:26,_ZN5Mixer22CheapSawtoothGeneratorIfED0Ev
FN:26,_ZN5Mixer22CheapSawtoothGeneratorIfED2Ev
FNDA:0,_ZN5Mixer22CheapSawtoothGeneratorIfED0Ev
FNDA:0,_ZN5Mixer22CheapSawtoothGeneratorIfED2Ev
FNF:2
FNH:0
DA:26,0
LF:1
LH:0
end_of_record
SF:/SharedWithWindows/Projects/diginstrument/inc/TransitionFunction.h
FN:17,_ZN18TransitionFunctionIfEC2Ev
FN:43,_ZN18TransitionFunctionIfED0Ev
FN:43,_ZN18TransitionFunctionIfED2Ev
FNDA:0,_ZN18TransitionFunctionIfEC2Ev
FNDA:0,_ZN18TransitionFunctionIfED0Ev
FNDA:0,_ZN18TransitionFunctionIfED2Ev
FNF:3
FNH:0
DA:17,0
DA:43,0
LF:2
LH:0
end_of_record
SF:/SharedWithWindows/Projects/diginstrument/inc/TransitionFunctions.h
FN:19,_ZN10Transition6LinearIfED2Ev
FN:19,_ZN10Transition6LinearIfEC2Ev
FN:19,_ZN10Transition6LinearIfED0Ev
FN:21,_ZN10Transition6LinearIfE4initERKfS3_S3_S3_
FN:27,_ZN10Transition6LinearIfEclERKf
FN:42,_ZN10Transition6EaseIn9QuadraticIfED0Ev
FN:42,_ZN10Transition6EaseIn9QuadraticIfEC2Ev
FN:42,_ZN10Transition6EaseIn9QuadraticIfED2Ev
FN:44,_ZN10Transition6EaseIn9QuadraticIfE4initERKfS4_S4_S4_
FN:50,_ZN10Transition6EaseIn9QuadraticIfEclERKf
FN:58,_ZN10Transition6EaseIn5CubicIfED0Ev
FN:58,_ZN10Transition6EaseIn5CubicIfED2Ev
FN:58,_ZN10Transition6EaseIn5CubicIfEC2Ev
FN:60,_ZN10Transition6EaseIn5CubicIfE4initERKfS4_S4_S4_
FN:66,_ZN10Transition6EaseIn5CubicIfEclERKf
FN:74,_ZN10Transition6EaseIn7QuarticIfED0Ev
FN:74,_ZN10Transition6EaseIn7QuarticIfEC2Ev
FN:74,_ZN10Transition6EaseIn7QuarticIfED2Ev
FN:76,_ZN10Transition6EaseIn7QuarticIfE4initERKfS4_S4_S4_
FN:82,_ZN10Transition6EaseIn7QuarticIfEclERKf
FN:89,_ZN10Transition6EaseIn7QuinticIfED2Ev
FN:89,_ZN10Transition6EaseIn7QuinticIfEC2Ev
FN:89,_ZN10Transition6EaseIn7QuinticIfED0Ev
FN:91,_ZN10Transition6EaseIn7QuinticIfE4initERKfS4_S4_S4_
FN:97,_ZN10Transition6EaseIn7QuinticIfEclERKf
FN:114,_ZN10Transition7EaseOut9QuadraticIfEC2Ev
FN:114,_ZN10Transition7EaseOut9QuadraticIfED0Ev
FN:114,_ZN10Transition7EaseOut9QuadraticIfED2Ev
FN:116,_ZN10Transition7EaseOut9QuadraticIfE4initERKfS4_S4_S4_
FN:122,_ZN10Transition7EaseOut9QuadraticIfEclERKf
FN:130,_ZN10Transition7EaseOut5CubicIfED0Ev
FN:130,_ZN10Transition7EaseOut5CubicIfEC2Ev
FN:130,_ZN10Transition7EaseOut5CubicIfED2Ev
FN:132,_ZN10Transition7EaseOut5CubicIfE4initERKfS4_S4_S4_
FN:138,_ZN10Transition7EaseOut5CubicIfEclERKf
FN:146,_ZN10Transition7EaseOut7QuarticIfED0Ev
FN:146,_ZN10Transition7EaseOut7QuarticIfEC2Ev
FN:146,_ZN10Transition7EaseOut7QuarticIfED2Ev
FN:148,_ZN10Transition7EaseOut7QuarticIfE4initERKfS4_S4_S4_
FN:154,_ZN10Transition7EaseOut7QuarticIfEclERKf
FN:162,_ZN10Transition7EaseOut7QuinticIfED0Ev
FN:162,_ZN10Transition7EaseOut7QuinticIfEC2Ev
FN:162,_ZN10Transition7EaseOut7QuinticIfED2Ev
FN:164,_ZN10Transition7EaseOut7QuinticIfE4initERKfS4_S4_S4_
FN:170,_ZN10Transition7EaseOut7QuinticIfEclERKf
FN:186,_ZN10Transition9EaseInOut9QuadraticIfED2Ev
FN:186,_ZN10Transition9EaseInOut9QuadraticIfED0Ev
FN:186,_ZN10Transition9EaseInOut9QuadraticIfEC2Ev
FN:188,_ZN10Transition9EaseInOut9QuadraticIfE4initERKfS4_S4_S4_
FN:195,_ZN10Transition9EaseInOut9QuadraticIfEclERKf
FN:204,_ZN10Transition9EaseInOut5CubicIfED0Ev
FN:204,_ZN10Transition9EaseInOut5CubicIfEC2Ev
FN:204,_ZN10Transition9EaseInOut5CubicIfED2Ev
FN:206,_ZN10Transition9EaseInOut5CubicIfE4initERKfS4_S4_S4_
FN:213,_ZN10Transition9EaseInOut5CubicIfEclERKf
FN:222,_ZN10Transition9EaseInOut7QuarticIfEC2Ev
FN:222,_ZN10Transition9EaseInOut7QuarticIfED2Ev
FN:222,_ZN10Transition9EaseInOut7QuarticIfED0Ev
FN:224,_ZN10Transition9EaseInOut7QuarticIfE4initERKfS4_S4_S4_
FN:231,_ZN10Transition9EaseInOut7QuarticIfEclERKf
FN:240,_ZN10Transition9EaseInOut7QuinticIfED2Ev
FN:240,_ZN10Transition9EaseInOut7QuinticIfEC2Ev
FN:240,_ZN10Transition9EaseInOut7QuinticIfED0Ev
FN:242,_ZN10Transition9EaseInOut7QuinticIfE4initERKfS4_S4_S4_
FN:249,_ZN10Transition9EaseInOut7QuinticIfEclERKf
FNDA:0,_ZN10Transition6LinearIfED0Ev
FNDA:0,_ZN10Transition6LinearIfED2Ev
FNDA:0,_ZN10Transition6LinearIfEC2Ev
FNDA:0,_ZN10Transition6LinearIfE4initERKfS3_S3_S3_
FNDA:0,_ZN10Transition6LinearIfEclERKf
FNDA:0,_ZN10Transition6EaseIn9QuadraticIfED0Ev
FNDA:0,_ZN10Transition6EaseIn9QuadraticIfED2Ev
FNDA:0,_ZN10Transition6EaseIn9QuadraticIfEC2Ev
FNDA:0,_ZN10Transition6EaseIn9QuadraticIfE4initERKfS4_S4_S4_
FNDA:0,_ZN10Transition6EaseIn9QuadraticIfEclERKf
FNDA:0,_ZN10Transition6EaseIn5CubicIfED0Ev
FNDA:0,_ZN10Transition6EaseIn5CubicIfED2Ev
FNDA:0,_ZN10Transition6EaseIn5CubicIfEC2Ev
FNDA:0,_ZN10Transition6EaseIn5CubicIfE4initERKfS4_S4_S4_
FNDA:0,_ZN10Transition6EaseIn5CubicIfEclERKf
FNDA:0,_ZN10Transition6EaseIn7QuarticIfED0Ev
FNDA:0,_ZN10Transition6EaseIn7QuarticIfED2Ev
FNDA:0,_ZN10Transition6EaseIn7QuarticIfEC2Ev
FNDA:0,_ZN10Transition6EaseIn7QuarticIfE4initERKfS4_S4_S4_
FNDA:0,_ZN10Transition6EaseIn7QuarticIfEclERKf
FNDA:0,_ZN10Transition6EaseIn7QuinticIfED0Ev
FNDA:0,_ZN10Transition6EaseIn7QuinticIfED2Ev
FNDA:0,_ZN10Transition6EaseIn7QuinticIfEC2Ev
FNDA:0,_ZN10Transition6EaseIn7QuinticIfE4initERKfS4_S4_S4_
FNDA:0,_ZN10Transition6EaseIn7QuinticIfEclERKf
FNDA:0,_ZN10Transition7EaseOut9QuadraticIfED0Ev
FNDA:0,_ZN10Transition7EaseOut9QuadraticIfED2Ev
FNDA:0,_ZN10Transition7EaseOut9QuadraticIfEC2Ev
FNDA:0,_ZN10Transition7EaseOut9QuadraticIfE4initERKfS4_S4_S4_
FNDA:0,_ZN10Transition7EaseOut9QuadraticIfEclERKf
FNDA:0,_ZN10Transition7EaseOut5CubicIfED0Ev
FNDA:0,_ZN10Transition7EaseOut5CubicIfED2Ev
FNDA:0,_ZN10Transition7EaseOut5CubicIfEC2Ev
FNDA:0,_ZN10Transition7EaseOut5CubicIfE4initERKfS4_S4_S4_
FNDA:0,_ZN10Transition7EaseOut5CubicIfEclERKf
FNDA:0,_ZN10Transition7EaseOut7QuarticIfED0Ev
FNDA:0,_ZN10Transition7EaseOut7QuarticIfED2Ev
FNDA:0,_ZN10Transition7EaseOut7QuarticIfEC2Ev
FNDA:0,_ZN10Transition7EaseOut7QuarticIfE4initERKfS4_S4_S4_
FNDA:0,_ZN10Transition7EaseOut7QuarticIfEclERKf
FNDA:0,_ZN10Transition7EaseOut7QuinticIfED0Ev
FNDA:0,_ZN10Transition7EaseOut7QuinticIfED2Ev
FNDA:0,_ZN10Transition7EaseOut7QuinticIfEC2Ev
FNDA:0,_ZN10Transition7EaseOut7QuinticIfE4initERKfS4_S4_S4_
FNDA:0,_ZN10Transition7EaseOut7QuinticIfEclERKf
FNDA:0,_ZN10Transition9EaseInOut9QuadraticIfED0Ev
FNDA:0,_ZN10Transition9EaseInOut9QuadraticIfED2Ev
FNDA:0,_ZN10Transition9EaseInOut9QuadraticIfEC2Ev
FNDA:0,_ZN10Transition9EaseInOut9QuadraticIfE4initERKfS4_S4_S4_
FNDA:0,_ZN10Transition9EaseInOut9QuadraticIfEclERKf
FNDA:0,_ZN10Transition9EaseInOut5CubicIfED0Ev
FNDA:0,_ZN10Transition9EaseInOut5CubicIfED2Ev
FNDA:0,_ZN10Transition9EaseInOut5CubicIfEC2Ev
FNDA:0,_ZN10Transition9EaseInOut5CubicIfE4initERKfS4_S4_S4_
FNDA:0,_ZN10Transition9EaseInOut5CubicIfEclERKf
FNDA:0,_ZN10Transition9EaseInOut7QuarticIfED0Ev
FNDA:0,_ZN10Transition9EaseInOut7QuarticIfED2Ev
FNDA:0,_ZN10Transition9EaseInOut7QuarticIfEC2Ev
FNDA:0,_ZN10Transition9EaseInOut7QuarticIfE4initERKfS4_S4_S4_
FNDA:0,_ZN10Transition9EaseInOut7QuarticIfEclERKf
FNDA:0,_ZN10Transition9EaseInOut7QuinticIfED0Ev
FNDA:0,_ZN10Transition9EaseInOut7QuinticIfED2Ev
FNDA:0,_ZN10Transition9EaseInOut7QuinticIfEC2Ev
FNDA:0,_ZN10Transition9EaseInOut7QuinticIfE4initERKfS4_S4_S4_
FNDA:0,_ZN10Transition9EaseInOut7QuinticIfEclERKf
FNF:65
FNH:0
DA:19,0
DA:21,0
DA:22,0
DA:23,0
DA:24,0
DA:25,0
DA:27,0
DA:28,0
DA:42,0
DA:44,0
DA:45,0
DA:46,0
DA:47,0
DA:48,0
DA:50,0
DA:51,0
DA:58,0
DA:60,0
DA:61,0
DA:62,0
DA:63,0
DA:64,0
DA:66,0
DA:67,0
DA:74,0
DA:76,0
DA:77,0
DA:78,0
DA:79,0
DA:80,0
DA:82,0
DA:83,0
DA:89,0
DA:91,0
DA:92,0
DA:93,0
DA:94,0
DA:95,0
DA:97,0
DA:98,0
DA:114,0
DA:116,0
DA:117,0
DA:118,0
DA:119,0
DA:120,0
DA:122,0
DA:123,0
DA:130,0
DA:132,0
DA:133,0
DA:134,0
DA:135,0
DA:136,0
DA:138,0
DA:139,0
DA:146,0
DA:148,0
DA:149,0
DA:150,0
DA:151,0
DA:152,0
DA:154,0
DA:155,0
DA:162,0
DA:164,0
DA:165,0
DA:166,0
DA:167,0
DA:168,0
DA:170,0
DA:171,0
DA:186,0
DA:188,0
DA:189,0
DA:190,0
DA:191,0
DA:192,0
DA:193,0
DA:195,0
DA:196,0
DA:197,0
DA:204,0
DA:206,0
DA:207,0
DA:208,0
DA:209,0
DA:210,0
DA:211,0
DA:213,0
DA:214,0
DA:215,0
DA:222,0
DA:224,0
DA:225,0
DA:226,0
DA:227,0
DA:228,0
DA:229,0
DA:231,0
DA:232,0
DA:233,0
DA:240,0
DA:242,0
DA:243,0
DA:244,0
DA:245,0
DA:246,0
DA:247,0
DA:249,0
DA:250,0
DA:251,0
LF:112
LH:0
end_of_record
SF:/SharedWithWindows/Projects/diginstrument/inc/Transitioner.h
FN:20,_ZN12TransitionerIfN10Transition9EaseInOut7QuarticEED2Ev
FN:20,_ZN12TransitionerIfN10Transition6EaseIn7QuarticEED2Ev
FN:20,_ZN12TransitionerIfN10Transition6EaseIn7QuarticEED0Ev
FN:20,_ZN12TransitionerIfN10Transition9EaseInOut7QuarticEED0Ev
FN:20,_ZN12TransitionerIfN10Transition7EaseOut5CubicEED2Ev
FN:20,_ZN12TransitionerIfN10Transition6LinearEED0Ev
FN:20,_ZN12TransitionerIfN10Transition7EaseOut7QuarticEED2Ev
FN:20,_ZN12TransitionerIfN10Transition9EaseInOut9QuadraticEED0Ev
FN:20,_ZN12TransitionerIfN10Transition9EaseInOut5CubicEED0Ev
FN:20,_ZN12TransitionerIfN10Transition6EaseIn7QuinticEED0Ev
FN:20,_ZN12TransitionerIfN10Transition6EaseIn9QuadraticEED2Ev
FN:20,_ZN12TransitionerIfN10Transition7EaseOut7QuarticEED0Ev
FN:20,_ZN12TransitionerIfN10Transition9EaseInOut7QuinticEED2Ev
FN:20,_ZN12TransitionerIfN10Transition9EaseInOut9QuadraticEED2Ev
FN:20,_ZN12TransitionerIfN10Transition7EaseOut9QuadraticEED0Ev
FN:20,_ZN12TransitionerIfN10Transition7EaseOut9QuadraticEED2Ev
FN:20,_ZN12TransitionerIfN10Transition6LinearEED2Ev
FN:20,_ZN12TransitionerIfN10Transition9EaseInOut5CubicEED2Ev
FN:20,_ZN12TransitionerIfN10Transition7EaseOut5CubicEED0Ev
FN:20,_ZN12TransitionerIfN10Transition6EaseIn9QuadraticEED0Ev
FN:20,_ZN12TransitionerIfN10Transition9EaseInOut7QuinticEED0Ev
FN:20,_ZN12TransitionerIfN10Transition6EaseIn5CubicEED2Ev
FN:20,_ZN12TransitionerIfN10Transition7EaseOut7QuinticEED2Ev
FN:20,_ZN12TransitionerIfN10Transition7EaseOut7QuinticEED0Ev
FN:20,_ZN12TransitionerIfN10Transition6EaseIn7QuinticEED2Ev
FN:20,_ZN12TransitionerIfN10Transition6EaseIn5CubicEED0Ev
FN:30,_ZN12TransitionerIfN10Transition9EaseInOut5CubicEE4initERKfS5_S5_
FN:30,_ZN12TransitionerIfN10Transition7EaseOut7QuarticEE4initERKfS5_S5_
FN:30,_ZN12TransitionerIfN10Transition6EaseIn7QuarticEE4initERKfS5_S5_
FN:30,_ZN12TransitionerIfN10Transition9EaseInOut7QuinticEE4initERKfS5_S5_
FN:30,_ZN12TransitionerIfN10Transition6LinearEE4initERKfS4_S4_
FN:30,_ZN12TransitionerIfN10Transition6EaseIn5CubicEE4initERKfS5_S5_
FN:30,_ZN12TransitionerIfN10Transition6EaseIn7QuinticEE4initERKfS5_S5_
FN:30,_ZN12TransitionerIfN10Transition7EaseOut7QuinticEE4initERKfS5_S5_
FN:30,_ZN12TransitionerIfN10Transition9EaseInOut9QuadraticEE4initERKfS5_S5_
FN:30,_ZN12TransitionerIfN10Transition7EaseOut5CubicEE4initERKfS5_S5_
FN:30,_ZN12TransitionerIfN10Transition6EaseIn9QuadraticEE4initERKfS5_S5_
FN:30,_ZN12TransitionerIfN10Transition9EaseInOut7QuarticEE4initERKfS5_S5_
FN:30,_ZN12TransitionerIfN10Transition7EaseOut9QuadraticEE4initERKfS5_S5_
FN:38,_ZN12TransitionerIfN10Transition9EaseInOut7QuarticEE4stepERKf
FN:38,_ZN12TransitionerIfN10Transition9EaseInOut5CubicEE4stepERKf
FN:38,_ZN12TransitionerIfN10Transition9EaseInOut9QuadraticEE4stepERKf
FN:38,_ZN12TransitionerIfN10Transition7EaseOut7QuarticEE4stepERKf
FN:38,_ZN12TransitionerIfN10Transition7EaseOut7QuinticEE4stepERKf
FN:38,_ZN12TransitionerIfN10Transition6EaseIn9QuadraticEE4stepERKf
FN:38,_ZN12TransitionerIfN10Transition9EaseInOut7QuinticEE4stepERKf
FN:38,_ZN12TransitionerIfN10Transition6EaseIn7QuarticEE4stepERKf
FN:38,_ZN12TransitionerIfN10Transition6LinearEE4stepERKf
FN:38,_ZN12TransitionerIfN10Transition7EaseOut9QuadraticEE4stepERKf
FN:38,_ZN12TransitionerIfN10Transition7EaseOut5CubicEE4stepERKf
FN:38,_ZN12TransitionerIfN10Transition6EaseIn5CubicEE4stepERKf
FN:38,_ZN12TransitionerIfN10Transition6EaseIn7QuinticEE4stepERKf
FN:58,_ZN12TransitionerIfN10Transition6EaseIn7QuinticEEC2ERf
FN:58,_ZN12TransitionerIfN10Transition9EaseInOut5CubicEEC2ERf
FN:58,_ZN12TransitionerIfN10Transition7EaseOut5CubicEEC2ERf
FN:58,_ZN12TransitionerIfN10Transition6EaseIn5CubicEEC2ERf
FN:58,_ZN12TransitionerIfN10Transition7EaseOut9QuadraticEEC2ERf
FN:58,_ZN12TransitionerIfN10Transition6EaseIn7QuarticEEC2ERf
FN:58,_ZN12TransitionerIfN10Transition6LinearEEC2ERf
FN:58,_ZN12TransitionerIfN10Transition9EaseInOut7QuinticEEC2ERf
FN:58,_ZN12TransitionerIfN10Transition6EaseIn9QuadraticEEC2ERf
FN:58,_ZN12TransitionerIfN10Transition9EaseInOut7QuarticEEC2ERf
FN:58,_ZN12TransitionerIfN10Transition7EaseOut7QuinticEEC2ERf
FN:58,_ZN12TransitionerIfN10Transition9EaseInOut9QuadraticEEC2ERf
FN:58,_ZN12TransitionerIfN10Transition7EaseOut7QuarticEEC2ERf
FNDA:0,_ZN12TransitionerIfN10Transition7EaseOut7QuinticEED0Ev
FNDA:0,_ZN12TransitionerIfN10Transition7EaseOut7QuinticEED2Ev
FNDA:0,_ZN12TransitionerIfN10Transition6EaseIn7QuinticEED0Ev
FNDA:0,_ZN12TransitionerIfN10Transition6EaseIn7QuinticEED2Ev
FNDA:0,_ZN12TransitionerIfN10Transition9EaseInOut7QuinticEED0Ev
FNDA:0,_ZN12TransitionerIfN10Transition9EaseInOut7QuinticEED2Ev
FNDA:0,_ZN12TransitionerIfN10Transition7EaseOut7QuarticEED0Ev
FNDA:0,_ZN12TransitionerIfN10Transition7EaseOut7QuarticEED2Ev
FNDA:0,_ZN12TransitionerIfN10Transition6EaseIn7QuarticEED0Ev
FNDA:0,_ZN12TransitionerIfN10Transition6EaseIn7QuarticEED2Ev
FNDA:0,_ZN12TransitionerIfN10Transition9EaseInOut7QuarticEED0Ev
FNDA:0,_ZN12TransitionerIfN10Transition9EaseInOut7QuarticEED2Ev
FNDA:0,_ZN12TransitionerIfN10Transition7EaseOut5CubicEED0Ev
FNDA:0,_ZN12TransitionerIfN10Transition7EaseOut5CubicEED2Ev
FNDA:0,_ZN12TransitionerIfN10Transition6EaseIn5CubicEED0Ev
FNDA:0,_ZN12TransitionerIfN10Transition6EaseIn5CubicEED2Ev
FNDA:0,_ZN12TransitionerIfN10Transition9EaseInOut5CubicEED0Ev
FNDA:0,_ZN12TransitionerIfN10Transition9EaseInOut5CubicEED2Ev
FNDA:0,_ZN12TransitionerIfN10Transition7EaseOut9QuadraticEED0Ev
FNDA:0,_ZN12TransitionerIfN10Transition7EaseOut9QuadraticEED2Ev
FNDA:0,_ZN12TransitionerIfN10Transition6EaseIn9QuadraticEED0Ev
FNDA:0,_ZN12TransitionerIfN10Transition6EaseIn9QuadraticEED2Ev
FNDA:0,_ZN12TransitionerIfN10Transition9EaseInOut9QuadraticEED0Ev
FNDA:0,_ZN12TransitionerIfN10Transition9EaseInOut9QuadraticEED2Ev
FNDA:0,_ZN12TransitionerIfN10Transition6LinearEED0Ev
FNDA:0,_ZN12TransitionerIfN10Transition6LinearEED2Ev
FNDA:0,_ZN12TransitionerIfN10Transition6LinearEE4initERKfS4_S4_
FNDA:0,_ZN12TransitionerIfN10Transition9EaseInOut9QuadraticEE4initERKfS5_S5_
FNDA:0,_ZN12TransitionerIfN10Transition6EaseIn9QuadraticEE4initERKfS5_S5_
FNDA:0,_ZN12TransitionerIfN10Transition7EaseOut9QuadraticEE4initERKfS5_S5_
FNDA:0,_ZN12TransitionerIfN10Transition9EaseInOut5CubicEE4initERKfS5_S5_
FNDA:0,_ZN12TransitionerIfN10Transition6EaseIn5CubicEE4initERKfS5_S5_
FNDA:0,_ZN12TransitionerIfN10Transition7EaseOut5CubicEE4initERKfS5_S5_
FNDA:0,_ZN12TransitionerIfN10Transition9EaseInOut7QuarticEE4initERKfS5_S5_
FNDA:0,_ZN12TransitionerIfN10Transition6EaseIn7QuarticEE4initERKfS5_S5_
FNDA:0,_ZN12TransitionerIfN10Transition7EaseOut7QuarticEE4initERKfS5_S5_
FNDA:0,_ZN12TransitionerIfN10Transition9EaseInOut7QuinticEE4initERKfS5_S5_
FNDA:0,_ZN12TransitionerIfN10Transition6EaseIn7QuinticEE4initERKfS5_S5_
FNDA:0,_ZN12TransitionerIfN10Transition7EaseOut7QuinticEE4initERKfS5_S5_
FNDA:0,_ZN12TransitionerIfN10Transition6LinearEE4stepERKf
FNDA:0,_ZN12TransitionerIfN10Transition9EaseInOut9QuadraticEE4stepERKf
FNDA:0,_ZN12TransitionerIfN10Transition6EaseIn9QuadraticEE4stepERKf
FNDA:0,_ZN12TransitionerIfN10Transition7EaseOut9QuadraticEE4stepERKf
FNDA:0,_ZN12TransitionerIfN10Transition9EaseInOut5CubicEE4stepERKf
FNDA:0,_ZN12TransitionerIfN10Transition6EaseIn5CubicEE4stepERKf
FNDA:0,_ZN12TransitionerIfN10Transition7EaseOut5CubicEE4stepERKf
FNDA:0,_ZN12TransitionerIfN10Transition9EaseInOut7QuarticEE4stepERKf
FNDA:0,_ZN12TransitionerIfN10Transition6EaseIn7QuarticEE4stepERKf
FNDA:0,_ZN12TransitionerIfN10Transition7EaseOut7QuarticEE4stepERKf
FNDA:0,_ZN12TransitionerIfN10Transition9EaseInOut7QuinticEE4stepERKf
FNDA:0,_ZN12TransitionerIfN10Transition6EaseIn7QuinticEE4stepERKf
FNDA:0,_ZN12TransitionerIfN10Transition7EaseOut7QuinticEE4stepERKf
FNDA:0,_ZN12TransitionerIfN10Transition7EaseOut7QuinticEEC2ERf
FNDA:0,_ZN12TransitionerIfN10Transition6EaseIn7QuinticEEC2ERf
FNDA:0,_ZN12TransitionerIfN10Transition9EaseInOut7QuinticEEC2ERf
FNDA:0,_ZN12TransitionerIfN10Transition7EaseOut7QuarticEEC2ERf
FNDA:0,_ZN12TransitionerIfN10Transition6EaseIn7QuarticEEC2ERf
FNDA:0,_ZN12TransitionerIfN10Transition9EaseInOut7QuarticEEC2ERf
FNDA:0,_ZN12TransitionerIfN10Transition7EaseOut5CubicEEC2ERf
FNDA:0,_ZN12TransitionerIfN10Transition6EaseIn5CubicEEC2ERf
FNDA:0,_ZN12TransitionerIfN10Transition9EaseInOut5CubicEEC2ERf
FNDA:0,_ZN12TransitionerIfN10Transition7EaseOut9QuadraticEEC2ERf
FNDA:0,_ZN12TransitionerIfN10Transition6EaseIn9QuadraticEEC2ERf
FNDA:0,_ZN12TransitionerIfN10Transition9EaseInOut9QuadraticEEC2ERf
FNDA:0,_ZN12TransitionerIfN10Transition6LinearEEC2ERf
FNF:65
FNH:0
BRDA:40,0,0,-
BRDA:40,0,1,-
BRDA:40,1,2,-
BRDA:40,1,3,-
BRDA:40,2,4,-
BRDA:40,2,5,-
BRDA:40,3,6,-
BRDA:40,3,7,-
BRDA:40,4,8,-
BRDA:40,4,9,-
BRDA:40,5,10,-
BRDA:40,5,11,-
BRDA:40,6,12,-
BRDA:40,6,13,-
BRDA:40,7,14,-
BRDA:40,7,15,-
BRDA:40,8,16,-
BRDA:40,8,17,-
BRDA:40,9,18,-
BRDA:40,9,19,-
BRDA:40,10,20,-
BRDA:40,10,21,-
BRDA:40,11,22,-
BRDA:40,11,23,-
BRDA:40,12,24,-
BRDA:40,12,25,-
BRDA:44,0,0,-
BRDA:44,0,1,-
BRDA:44,1,2,-
BRDA:44,1,3,-
BRDA:44,2,4,-
BRDA:44,2,5,-
BRDA:44,3,6,-
BRDA:44,3,7,-
BRDA:44,4,8,-
BRDA:44,4,9,-
BRDA:44,5,10,-
BRDA:44,5,11,-
BRDA:44,6,12,-
BRDA:44,6,13,-
BRDA:44,7,14,-
BRDA:44,7,15,-
BRDA:44,8,16,-
BRDA:44,8,17,-
BRDA:44,9,18,-
BRDA:44,9,19,-
BRDA:44,10,20,-
BRDA:44,10,21,-
BRDA:44,11,22,-
BRDA:44,11,23,-
BRDA:44,12,24,-
BRDA:44,12,25,-
BRDA:58,1,2,-
BRDA:58,1,3,-
BRDA:58,5,7,-
BRDA:58,5,8,-
BRDA:58,9,12,-
BRDA:58,9,13,-
BRDA:58,13,17,-
BRDA:58,13,18,-
BRDA:58,17,22,-
BRDA:58,17,23,-
BRDA:58,21,27,-
BRDA:58,21,28,-
BRDA:58,25,32,-
BRDA:58,25,33,-
BRDA:58,29,37,-
BRDA:58,29,38,-
BRDA:58,33,42,-
BRDA:58,33,43,-
BRDA:58,37,47,-
BRDA:58,37,48,-
BRDA:58,41,52,-
BRDA:58,41,53,-
BRDA:58,45,57,-
BRDA:58,45,58,-
BRDA:58,49,62,-
BRDA:58,49,63,-
BRF:78
BRH:0
DA:20,0
DA:30,0
DA:31,0
DA:32,0
DA:33,0
DA:34,0
DA:35,0
DA:36,0
DA:38,0
DA:39,0
DA:40,0
DA:41,0
DA:42,0
DA:44,0
DA:45,0
DA:46,0
DA:48,0
DA:58,0
LF:18
LH:0
end_of_record
SF:/SharedWithWindows/Projects/diginstrument/inc/iSource.h
FN:15,_ZN8DataFlow7iSourceIfEC2Ev
FN:28,_ZN8DataFlow7iSourceIfED2Ev
FN:28,_ZN8DataFlow7iSourceIfED0Ev
FNDA:0,_ZN8DataFlow7iSourceIfEC2Ev
FNDA:0,_ZN8DataFlow7iSourceIfED0Ev
FNDA:0,_ZN8DataFlow7iSourceIfED2Ev
FNF:3
FNH:0
DA:15,0
DA:28,0
LF:2
LH:0
end_of_record
SF:/SharedWithWindows/Projects/diginstrument/inc/iTransitioner.h
FN:11,_ZN13iTransitionerIfEC2Ev
FN:33,_ZN13iTransitionerIfED0Ev
FN:33,_ZN13iTransitionerIfED2Ev
FNDA:0,_ZN13iTransitionerIfEC2Ev
FNDA:0,_ZN13iTransitionerIfED0Ev
FNDA:0,_ZN13iTransitionerIfED2Ev
FNF:3
FNH:0
DA:11,0
DA:33,0
LF:2
LH:0
end_of_record
SF:/SharedWithWindows/Projects/diginstrument/inc/iWaveformGenerator.h
FN:10,_ZN5Mixer18iWaveformGeneratorIfEC2Ev
FN:67,_ZN5Mixer18iWaveformGeneratorIfED2Ev
FN:67,_ZN5Mixer18iWaveformGeneratorIfED0Ev
FNDA:0,_ZN5Mixer18iWaveformGeneratorIfEC2Ev
FNDA:0,_ZN5Mixer18iWaveformGeneratorIfED0Ev
FNDA:0,_ZN5Mixer18iWaveformGeneratorIfED2Ev
FNF:3
FNH:0
DA:10,0
DA:67,0
LF:2
LH:0
end_of_record
SF:/SharedWithWindows/Projects/diginstrument/src/cheap_sawtooth_generator.cpp
FN:4,_ZN5Mixer22CheapSawtoothGeneratorIfEC2ERKfRKjS5_
FN:11,_ZN5Mixer22CheapSawtoothGeneratorIfE3getERKj
FN:34,_ZNK5Mixer22CheapSawtoothGeneratorIfE12getFrequencyEv
FN:40,_ZN5Mixer22CheapSawtoothGeneratorIfE12setFrequencyERKf
FN:48,_ZN5Mixer22CheapSawtoothGeneratorIfE12setFrequencyERKfS3_NSt7__cxx1112basic_stringIcSt11char_traitsIcESaIcEEERKj
FNDA:0,_ZN5Mixer22CheapSawtoothGeneratorIfEC2ERKfRKjS5_
FNDA:0,_ZN5Mixer22CheapSawtoothGeneratorIfE3getERKj
FNDA:0,_ZNK5Mixer22CheapSawtoothGeneratorIfE12getFrequencyEv
FNDA:0,_ZN5Mixer22CheapSawtoothGeneratorIfE12setFrequencyERKf
FNDA:0,_ZN5Mixer22CheapSawtoothGeneratorIfE12setFrequencyERKfS3_NSt7__cxx1112basic_stringIcSt11char_traitsIcESaIcEEERKj
FNF:5
FNH:0
BRDA:13,0,2,-
BRDA:13,0,3,-
BRDA:14,0,0,-
BRDA:14,0,1,-
BRDA:15,1,1,-
BRDA:15,1,2,-
BRDA:20,0,0,-
BRDA:20,0,1,-
BRDA:23,0,1,-
BRDA:23,0,2,-
BRDA:23,1,4,-
BRDA:23,1,5,-
BRDA:23,4,6,-
BRDA:23,4,7,-
BRDA:25,0,2,-
BRDA:25,0,3,-
BRDA:26,0,2,-
BRDA:26,0,3,-
BRDA:55,4294967295,1,-
BRDA:55,4294967295,2,-
BRDA:55,0,3,-
BRDA:55,0,4,-
BRDA:57,0,1,-
BRDA:57,0,2,-
BRDA:58,4294967295,1,-
BRDA:58,4294967295,2,-
BRDA:60,0,0,-
BRDA:60,0,1,-
BRDA:60,0,2,-
BRDA:60,0,3,-
BRDA:60,0,4,-
BRDA:63,0,1,-
BRDA:63,0,2,-
BRDA:63,1,3,-
BRDA:63,1,4,-
BRDA:65,0,1,-
BRDA:65,0,2,-
BRDA:66,4294967295,1,-
BRDA:66,4294967295,2,-
BRDA:69,0,1,-
BRDA:69,0,2,-
BRDA:69,1,3,-
BRDA:69,1,4,-
BRDA:71,0,1,-
BRDA:71,0,2,-
BRDA:72,4294967295,1,-
BRDA:72,4294967295,2,-
BRDA:75,0,1,-
BRDA:75,0,2,-
BRDA:75,1,3,-
BRDA:75,1,4,-
BRDA:77,0,1,-
BRDA:77,0,2,-
BRDA:78,4294967295,1,-
BRDA:78,4294967295,2,-
BRDA:83,0,1,-
BRDA:83,0,2,-
BRDA:83,1,3,-
BRDA:83,1,4,-
BRDA:85,0,1,-
BRDA:85,0,2,-
BRDA:86,4294967295,1,-
BRDA:86,4294967295,2,-
BRDA:89,0,1,-
BRDA:89,0,2,-
BRDA:89,1,3,-
BRDA:89,1,4,-
BRDA:91,0,1,-
BRDA:91,0,2,-
BRDA:92,4294967295,1,-
BRDA:92,4294967295,2,-
BRDA:95,0,1,-
BRDA:95,0,2,-
BRDA:95,1,3,-
BRDA:95,1,4,-
BRDA:97,0,1,-
BRDA:97,0,2,-
BRDA:98,4294967295,1,-
BRDA:98,4294967295,2,-
BRDA:103,0,1,-
BRDA:103,0,2,-
BRDA:103,1,3,-
BRDA:103,1,4,-
BRDA:105,0,1,-
BRDA:105,0,2,-
BRDA:106,4294967295,1,-
BRDA:106,4294967295,2,-
BRDA:109,0,1,-
BRDA:109,0,2,-
BRDA:109,1,3,-
BRDA:109,1,4,-
BRDA:111,0,1,-
BRDA:111,0,2,-
BRDA:112,4294967295,1,-
BRDA:112,4294967295,2,-
BRDA:115,0,1,-
BRDA:115,0,2,-
BRDA:115,1,3,-
BRDA:115,1,4,-
BRDA:117,0,1,-
BRDA:117,0,2,-
BRDA:118,4294967295,1,-
BRDA:118,4294967295,2,-
BRDA:123,0,1,-
BRDA:123,0,2,-
BRDA:123,1,3,-
BRDA:123,1,4,-
BRDA:125,0,1,-
BRDA:125,0,2,-
BRDA:126,4294967295,1,-
BRDA:126,4294967295,2,-
BRDA:129,0,1,-
BRDA:129,0,2,-
BRDA:129,1,3,-
BRDA:129,1,4,-
BRDA:131,0,1,-
BRDA:131,0,2,-
BRDA:132,4294967295,1,-
BRDA:132,4294967295,2,-
BRDA:135,0,1,-
BRDA:135,0,2,-
BRDA:135,1,3,-
BRDA:135,1,4,-
BRDA:137,0,1,-
BRDA:137,0,2,-
BRDA:138,4294967295,1,-
BRDA:138,4294967295,2,-
BRDA:142,0,1,-
BRDA:142,0,2,-
BRDA:143,4294967295,1,-
BRDA:143,4294967295,2,-
BRDA:146,0,2,-
BRDA:146,0,3,-
BRDA:147,0,2,-
BRDA:147,0,3,-
BRF:135
BRH:0
DA:4,0
DA:6,0
DA:7,0
DA:8,0
DA:11,0
DA:13,0
DA:14,0
DA:15,0
DA:17,0
DA:19,0
DA:20,0
DA:21,0
DA:23,0
DA:25,0
DA:26,0
DA:30,0
DA:34,0
DA:36,0
DA:40,0
DA:42,0
DA:43,0
DA:44,0
DA:45,0
DA:48,0
DA:50,0
DA:51,0
DA:52,0
DA:53,0
DA:55,0
DA:57,0
DA:58,0
DA:60,0
DA:63,0
DA:65,0
DA:66,0
DA:67,0
DA:69,0
DA:71,0
DA:72,0
DA:73,0
DA:75,0
DA:77,0
DA:78,0
DA:79,0
DA:83,0
DA:85,0
DA:86,0
DA:87,0
DA:89,0
DA:91,0
DA:92,0
DA:93,0
DA:95,0
DA:97,0
DA:98,0
DA:99,0
DA:103,0
DA:105,0
DA:106,0
DA:107,0
DA:109,0
DA:111,0
DA:112,0
DA:113,0
DA:115,0
DA:117,0
DA:118,0
DA:119,0
DA:123,0
DA:125,0
DA:126,0
DA:127,0
DA:129,0
DA:131,0
DA:132,0
DA:133,0
DA:135,0
DA:137,0
DA:138,0
DA:139,0
DA:142,0
DA:143,0
DA:146,0
DA:147,0
DA:148,0
LF:85
LH:0
end_of_record
TN:
SF:/SharedWithWindows/Projects/diginstrument/inc/AudioSource.h
FN:23,_ZNK5Mixer11AudioSource11getChannelsEv
FN:30,_ZNK5Mixer11AudioSource13getSampleRateEv
FN:33,_ZN5Mixer11AudioSourceC2ERKjS2_
FNDA:0,_ZNK5Mixer11AudioSource11getChannelsEv
FNDA:0,_ZNK5Mixer11AudioSource13getSampleRateEv
FNDA:0,_ZN5Mixer11AudioSourceC2ERKjS2_
FNF:3
FNH:0
DA:23,0
DA:30,0
DA:33,0
LF:3
LH:0
end_of_record
SF:/SharedWithWindows/Projects/diginstrument/inc/CheapSquareGenerator.h
FN:25,_ZN5Mixer20CheapSquareGeneratorIfED2Ev
FN:25,_ZN5Mixer20CheapSquareGeneratorIfED0Ev
FNDA:0,_ZN5Mixer20CheapSquareGeneratorIfED0Ev
FNDA:0,_ZN5Mixer20CheapSquareGeneratorIfED2Ev
FNF:2
FNH:0
DA:25,0
LF:1
LH:0
end_of_record
SF:/SharedWithWindows/Projects/diginstrument/inc/TransitionFunction.h
FN:17,_ZN18TransitionFunctionIfEC2Ev
FN:43,_ZN18TransitionFunctionIfED0Ev
FN:43,_ZN18TransitionFunctionIfED2Ev
FNDA:0,_ZN18TransitionFunctionIfEC2Ev
FNDA:0,_ZN18TransitionFunctionIfED0Ev
FNDA:0,_ZN18TransitionFunctionIfED2Ev
FNF:3
FNH:0
DA:17,0
DA:43,0
LF:2
LH:0
end_of_record
SF:/SharedWithWindows/Projects/diginstrument/inc/TransitionFunctions.h
FN:19,_ZN10Transition6LinearIfED2Ev
FN:19,_ZN10Transition6LinearIfED0Ev
FN:19,_ZN10Transition6LinearIfEC2Ev
FN:21,_ZN10Transition6LinearIfE4initERKfS3_S3_S3_
FN:27,_ZN10Transition6LinearIfEclERKf
FN:42,_ZN10Transition6EaseIn9QuadraticIfEC2Ev
FN:42,_ZN10Transition6EaseIn9QuadraticIfED0Ev
FN:42,_ZN10Transition6EaseIn9QuadraticIfED2Ev
FN:44,_ZN10Transition6EaseIn9QuadraticIfE4initERKfS4_S4_S4_
FN:50,_ZN10Transition6EaseIn9QuadraticIfEclERKf
FN:58,_ZN10Transition6EaseIn5CubicIfED2Ev
FN:58,_ZN10Transition6EaseIn5CubicIfED0Ev
FN:58,_ZN10Transition6EaseIn5CubicIfEC2Ev
FN:60,_ZN10Transition6EaseIn5CubicIfE4initERKfS4_S4_S4_
FN:66,_ZN10Transition6EaseIn5CubicIfEclERKf
FN:74,_ZN10Transition6EaseIn7QuarticIfEC2Ev
FN:74,_ZN10Transition6EaseIn7QuarticIfED0Ev
FN:74,_ZN10Transition6EaseIn7QuarticIfED2Ev
FN:76,_ZN10Transition6EaseIn7QuarticIfE4initERKfS4_S4_S4_
FN:82,_ZN10Transition6EaseIn7QuarticIfEclERKf
FN:89,_ZN10Transition6EaseIn7QuinticIfEC2Ev
FN:89,_ZN10Transition6EaseIn7QuinticIfED2Ev
FN:89,_ZN10Transition6EaseIn7QuinticIfED0Ev
FN:91,_ZN10Transition6EaseIn7QuinticIfE4initERKfS4_S4_S4_
FN:97,_ZN10Transition6EaseIn7QuinticIfEclERKf
FN:114,_ZN10Transition7EaseOut9QuadraticIfEC2Ev
FN:114,_ZN10Transition7EaseOut9QuadraticIfED0Ev
FN:114,_ZN10Transition7EaseOut9QuadraticIfED2Ev
FN:116,_ZN10Transition7EaseOut9QuadraticIfE4initERKfS4_S4_S4_
FN:122,_ZN10Transition7EaseOut9QuadraticIfEclERKf
FN:130,_ZN10Transition7EaseOut5CubicIfED0Ev
FN:130,_ZN10Transition7EaseOut5CubicIfED2Ev
FN:130,_ZN10Transition7EaseOut5CubicIfEC2Ev
FN:132,_ZN10Transition7EaseOut5CubicIfE4initERKfS4_S4_S4_
FN:138,_ZN10Transition7EaseOut5CubicIfEclERKf
FN:146,_ZN10Transition7EaseOut7QuarticIfED0Ev
FN:146,_ZN10Transition7EaseOut7QuarticIfEC2Ev
FN:146,_ZN10Transition7EaseOut7QuarticIfED2Ev
FN:148,_ZN10Transition7EaseOut7QuarticIfE4initERKfS4_S4_S4_
FN:154,_ZN10Transition7EaseOut7QuarticIfEclERKf
FN:162,_ZN10Transition7EaseOut7QuinticIfED2Ev
FN:162,_ZN10Transition7EaseOut7QuinticIfED0Ev
FN:162,_ZN10Transition7EaseOut7QuinticIfEC2Ev
FN:164,_ZN10Transition7EaseOut7QuinticIfE4initERKfS4_S4_S4_
FN:170,_ZN10Transition7EaseOut7QuinticIfEclERKf
FN:186,_ZN10Transition9EaseInOut9QuadraticIfED2Ev
FN:186,_ZN10Transition9EaseInOut9QuadraticIfED0Ev
FN:186,_ZN10Transition9EaseInOut9QuadraticIfEC2Ev
FN:188,_ZN10Transition9EaseInOut9QuadraticIfE4initERKfS4_S4_S4_
FN:195,_ZN10Transition9EaseInOut9QuadraticIfEclERKf
FN:204,_ZN10Transition9EaseInOut5CubicIfED2Ev
FN:204,_ZN10Transition9EaseInOut5CubicIfEC2Ev
FN:204,_ZN10Transition9EaseInOut5CubicIfED0Ev
FN:206,_ZN10Transition9EaseInOut5CubicIfE4initERKfS4_S4_S4_
FN:213,_ZN10Transition9EaseInOut5CubicIfEclERKf
FN:222,_ZN10Transition9EaseInOut7QuarticIfEC2Ev
FN:222,_ZN10Transition9EaseInOut7QuarticIfED0Ev
FN:222,_ZN10Transition9EaseInOut7QuarticIfED2Ev
FN:224,_ZN10Transition9EaseInOut7QuarticIfE4initERKfS4_S4_S4_
FN:231,_ZN10Transition9EaseInOut7QuarticIfEclERKf
FN:240,_ZN10Transition9EaseInOut7QuinticIfED2Ev
FN:240,_ZN10Transition9EaseInOut7QuinticIfEC2Ev
FN:240,_ZN10Transition9EaseInOut7QuinticIfED0Ev
FN:242,_ZN10Transition9EaseInOut7QuinticIfE4initERKfS4_S4_S4_
FN:249,_ZN10Transition9EaseInOut7QuinticIfEclERKf
FNDA:0,_ZN10Transition6LinearIfED0Ev
FNDA:0,_ZN10Transition6LinearIfED2Ev
FNDA:0,_ZN10Transition6LinearIfEC2Ev
FNDA:0,_ZN10Transition6LinearIfE4initERKfS3_S3_S3_
FNDA:0,_ZN10Transition6LinearIfEclERKf
FNDA:0,_ZN10Transition6EaseIn9QuadraticIfED0Ev
FNDA:0,_ZN10Transition6EaseIn9QuadraticIfED2Ev
FNDA:0,_ZN10Transition6EaseIn9QuadraticIfEC2Ev
FNDA:0,_ZN10Transition6EaseIn9QuadraticIfE4initERKfS4_S4_S4_
FNDA:0,_ZN10Transition6EaseIn9QuadraticIfEclERKf
FNDA:0,_ZN10Transition6EaseIn5CubicIfED0Ev
FNDA:0,_ZN10Transition6EaseIn5CubicIfED2Ev
FNDA:0,_ZN10Transition6EaseIn5CubicIfEC2Ev
FNDA:0,_ZN10Transition6EaseIn5CubicIfE4initERKfS4_S4_S4_
FNDA:0,_ZN10Transition6EaseIn5CubicIfEclERKf
FNDA:0,_ZN10Transition6EaseIn7QuarticIfED0Ev
FNDA:0,_ZN10Transition6EaseIn7QuarticIfED2Ev
FNDA:0,_ZN10Transition6EaseIn7QuarticIfEC2Ev
FNDA:0,_ZN10Transition6EaseIn7QuarticIfE4initERKfS4_S4_S4_
FNDA:0,_ZN10Transition6EaseIn7QuarticIfEclERKf
FNDA:0,_ZN10Transition6EaseIn7QuinticIfED0Ev
FNDA:0,_ZN10Transition6EaseIn7QuinticIfED2Ev
FNDA:0,_ZN10Transition6EaseIn7QuinticIfEC2Ev
FNDA:0,_ZN10Transition6EaseIn7QuinticIfE4initERKfS4_S4_S4_
FNDA:0,_ZN10Transition6EaseIn7QuinticIfEclERKf
FNDA:0,_ZN10Transition7EaseOut9QuadraticIfED0Ev
FNDA:0,_ZN10Transition7EaseOut9QuadraticIfED2Ev
FNDA:0,_ZN10Transition7EaseOut9QuadraticIfEC2Ev
FNDA:0,_ZN10Transition7EaseOut9QuadraticIfE4initERKfS4_S4_S4_
FNDA:0,_ZN10Transition7EaseOut9QuadraticIfEclERKf
FNDA:0,_ZN10Transition7EaseOut5CubicIfED0Ev
FNDA:0,_ZN10Transition7EaseOut5CubicIfED2Ev
FNDA:0,_ZN10Transition7EaseOut5CubicIfEC2Ev
FNDA:0,_ZN10Transition7EaseOut5CubicIfE4initERKfS4_S4_S4_
FNDA:0,_ZN10Transition7EaseOut5CubicIfEclERKf
FNDA:0,_ZN10Transition7EaseOut7QuarticIfED0Ev
FNDA:0,_ZN10Transition7EaseOut7QuarticIfED2Ev
FNDA:0,_ZN10Transition7EaseOut7QuarticIfEC2Ev
FNDA:0,_ZN10Transition7EaseOut7QuarticIfE4initERKfS4_S4_S4_
FNDA:0,_ZN10Transition7EaseOut7QuarticIfEclERKf
FNDA:0,_ZN10Transition7EaseOut7QuinticIfED0Ev
FNDA:0,_ZN10Transition7EaseOut7QuinticIfED2Ev
FNDA:0,_ZN10Transition7EaseOut7QuinticIfEC2Ev
FNDA:0,_ZN10Transition7EaseOut7QuinticIfE4initERKfS4_S4_S4_
FNDA:0,_ZN10Transition7EaseOut7QuinticIfEclERKf
FNDA:0,_ZN10Transition9EaseInOut9QuadraticIfED0Ev
FNDA:0,_ZN10Transition9EaseInOut9QuadraticIfED2Ev
FNDA:0,_ZN10Transition9EaseInOut9QuadraticIfEC2Ev
FNDA:0,_ZN10Transition9EaseInOut9QuadraticIfE4initERKfS4_S4_S4_
FNDA:0,_ZN10Transition9EaseInOut9QuadraticIfEclERKf
FNDA:0,_ZN10Transition9EaseInOut5CubicIfED0Ev
FNDA:0,_ZN10Transition9EaseInOut5CubicIfED2Ev
FNDA:0,_ZN10Transition9EaseInOut5CubicIfEC2Ev
FNDA:0,_ZN10Transition9EaseInOut5CubicIfE4initERKfS4_S4_S4_
FNDA:0,_ZN10Transition9EaseInOut5CubicIfEclERKf
FNDA:0,_ZN10Transition9EaseInOut7QuarticIfED0Ev
FNDA:0,_ZN10Transition9EaseInOut7QuarticIfED2Ev
FNDA:0,_ZN10Transition9EaseInOut7QuarticIfEC2Ev
FNDA:0,_ZN10Transition9EaseInOut7QuarticIfE4initERKfS4_S4_S4_
FNDA:0,_ZN10Transition9EaseInOut7QuarticIfEclERKf
FNDA:0,_ZN10Transition9EaseInOut7QuinticIfED0Ev
FNDA:0,_ZN10Transition9EaseInOut7QuinticIfED2Ev
FNDA:0,_ZN10Transition9EaseInOut7QuinticIfEC2Ev
FNDA:0,_ZN10Transition9EaseInOut7QuinticIfE4initERKfS4_S4_S4_
FNDA:0,_ZN10Transition9EaseInOut7QuinticIfEclERKf
FNF:65
FNH:0
DA:19,0
DA:21,0
DA:22,0
DA:23,0
DA:24,0
DA:25,0
DA:27,0
DA:28,0
DA:42,0
DA:44,0
DA:45,0
DA:46,0
DA:47,0
DA:48,0
DA:50,0
DA:51,0
DA:58,0
DA:60,0
DA:61,0
DA:62,0
DA:63,0
DA:64,0
DA:66,0
DA:67,0
DA:74,0
DA:76,0
DA:77,0
DA:78,0
DA:79,0
DA:80,0
DA:82,0
DA:83,0
DA:89,0
DA:91,0
DA:92,0
DA:93,0
DA:94,0
DA:95,0
DA:97,0
DA:98,0
DA:114,0
DA:116,0
DA:117,0
DA:118,0
DA:119,0
DA:120,0
DA:122,0
DA:123,0
DA:130,0
DA:132,0
DA:133,0
DA:134,0
DA:135,0
DA:136,0
DA:138,0
DA:139,0
DA:146,0
DA:148,0
DA:149,0
DA:150,0
DA:151,0
DA:152,0
DA:154,0
DA:155,0
DA:162,0
DA:164,0
DA:165,0
DA:166,0
DA:167,0
DA:168,0
DA:170,0
DA:171,0
DA:186,0
DA:188,0
DA:189,0
DA:190,0
DA:191,0
DA:192,0
DA:193,0
DA:195,0
DA:196,0
DA:197,0
DA:204,0
DA:206,0
DA:207,0
DA:208,0
DA:209,0
DA:210,0
DA:211,0
DA:213,0
DA:214,0
DA:215,0
DA:222,0
DA:224,0
DA:225,0
DA:226,0
DA:227,0
DA:228,0
DA:229,0
DA:231,0
DA:232,0
DA:233,0
DA:240,0
DA:242,0
DA:243,0
DA:244,0
DA:245,0
DA:246,0
DA:247,0
DA:249,0
DA:250,0
DA:251,0
LF:112
LH:0
end_of_record
SF:/SharedWithWindows/Projects/diginstrument/inc/Transitioner.h
FN:20,_ZN12TransitionerIfN10Transition6LinearEED2Ev
FN:20,_ZN12TransitionerIfN10Transition9EaseInOut5CubicEED2Ev
FN:20,_ZN12TransitionerIfN10Transition7EaseOut5CubicEED0Ev
FN:20,_ZN12TransitionerIfN10Transition7EaseOut9QuadraticEED2Ev
FN:20,_ZN12TransitionerIfN10Transition9EaseInOut7QuinticEED2Ev
FN:20,_ZN12TransitionerIfN10Transition9EaseInOut9QuadraticEED2Ev
FN:20,_ZN12TransitionerIfN10Transition7EaseOut9QuadraticEED0Ev
FN:20,_ZN12TransitionerIfN10Transition7EaseOut7QuarticEED0Ev
FN:20,_ZN12TransitionerIfN10Transition6EaseIn7QuinticEED2Ev
FN:20,_ZN12TransitionerIfN10Transition6EaseIn5CubicEED0Ev
FN:20,_ZN12TransitionerIfN10Transition7EaseOut7QuinticEED0Ev
FN:20,_ZN12TransitionerIfN10Transition6EaseIn5CubicEED2Ev
FN:20,_ZN12TransitionerIfN10Transition7EaseOut7QuinticEED2Ev
FN:20,_ZN12TransitionerIfN10Transition6EaseIn9QuadraticEED0Ev
FN:20,_ZN12TransitionerIfN10Transition9EaseInOut7QuinticEED0Ev
FN:20,_ZN12TransitionerIfN10Transition7EaseOut5CubicEED2Ev
FN:20,_ZN12TransitionerIfN10Transition6LinearEED0Ev
FN:20,_ZN12TransitionerIfN10Transition7EaseOut7QuarticEED2Ev
FN:20,_ZN12TransitionerIfN10Transition6EaseIn7QuarticEED0Ev
FN:20,_ZN12TransitionerIfN10Transition9EaseInOut7QuarticEED0Ev
FN:20,_ZN12TransitionerIfN10Transition6EaseIn7QuarticEED2Ev
FN:20,_ZN12TransitionerIfN10Transition9EaseInOut7QuarticEED2Ev
FN:20,_ZN12TransitionerIfN10Transition6EaseIn7QuinticEED0Ev
FN:20,_ZN12TransitionerIfN10Transition6EaseIn9QuadraticEED2Ev
FN:20,_ZN12TransitionerIfN10Transition9EaseInOut9QuadraticEED0Ev
FN:20,_ZN12TransitionerIfN10Transition9EaseInOut5CubicEED0Ev
FN:30,_ZN12TransitionerIfN10Transition6EaseIn9QuadraticEE4initERKfS5_S5_
FN:30,_ZN12TransitionerIfN10Transition7EaseOut9QuadraticEE4initERKfS5_S5_
FN:30,_ZN12TransitionerIfN10Transition9EaseInOut7QuarticEE4initERKfS5_S5_
FN:30,_ZN12TransitionerIfN10Transition6LinearEE4initERKfS4_S4_
FN:30,_ZN12TransitionerIfN10Transition9EaseInOut7QuinticEE4initERKfS5_S5_
FN:30,_ZN12TransitionerIfN10Transition7EaseOut7QuarticEE4initERKfS5_S5_
FN:30,_ZN12TransitionerIfN10Transition6EaseIn7QuarticEE4initERKfS5_S5_
FN:30,_ZN12TransitionerIfN10Transition9EaseInOut5CubicEE4initERKfS5_S5_
FN:30,_ZN12TransitionerIfN10Transition7EaseOut5CubicEE4initERKfS5_S5_
FN:30,_ZN12TransitionerIfN10Transition9EaseInOut9QuadraticEE4initERKfS5_S5_
FN:30,_ZN12TransitionerIfN10Transition6EaseIn5CubicEE4initERKfS5_S5_
FN:30,_ZN12TransitionerIfN10Transition6EaseIn7QuinticEE4initERKfS5_S5_
FN:30,_ZN12TransitionerIfN10Transition7EaseOut7QuinticEE4initERKfS5_S5_
FN:38,_ZN12TransitionerIfN10Transition7EaseOut5CubicEE4stepERKf
FN:38,_ZN12TransitionerIfN10Transition6EaseIn5CubicEE4stepERKf
FN:38,_ZN12TransitionerIfN10Transition7EaseOut9QuadraticEE4stepERKf
FN:38,_ZN12TransitionerIfN10Transition6LinearEE4stepERKf
FN:38,_ZN12TransitionerIfN10Transition6EaseIn7QuinticEE4stepERKf
FN:38,_ZN12TransitionerIfN10Transition7EaseOut7QuarticEE4stepERKf
FN:38,_ZN12TransitionerIfN10Transition9EaseInOut5CubicEE4stepERKf
FN:38,_ZN12TransitionerIfN10Transition9EaseInOut9QuadraticEE4stepERKf
FN:38,_ZN12TransitionerIfN10Transition9EaseInOut7QuarticEE4stepERKf
FN:38,_ZN12TransitionerIfN10Transition9EaseInOut7QuinticEE4stepERKf
FN:38,_ZN12TransitionerIfN10Transition6EaseIn7QuarticEE4stepERKf
FN:38,_ZN12TransitionerIfN10Transition6EaseIn9QuadraticEE4stepERKf
FN:38,_ZN12TransitionerIfN10Transition7EaseOut7QuinticEE4stepERKf
FN:58,_ZN12TransitionerIfN10Transition6EaseIn9QuadraticEEC2ERf
FN:58,_ZN12TransitionerIfN10Transition9EaseInOut7QuinticEEC2ERf
FN:58,_ZN12TransitionerIfN10Transition6LinearEEC2ERf
FN:58,_ZN12TransitionerIfN10Transition9EaseInOut9QuadraticEEC2ERf
FN:58,_ZN12TransitionerIfN10Transition7EaseOut7QuarticEEC2ERf
FN:58,_ZN12TransitionerIfN10Transition9EaseInOut7QuarticEEC2ERf
FN:58,_ZN12TransitionerIfN10Transition7EaseOut7QuinticEEC2ERf
FN:58,_ZN12TransitionerIfN10Transition7EaseOut5CubicEEC2ERf
FN:58,_ZN12TransitionerIfN10Transition9EaseInOut5CubicEEC2ERf
FN:58,_ZN12TransitionerIfN10Transition6EaseIn7QuinticEEC2ERf
FN:58,_ZN12TransitionerIfN10Transition7EaseOut9QuadraticEEC2ERf
FN:58,_ZN12TransitionerIfN10Transition6EaseIn7QuarticEEC2ERf
FN:58,_ZN12TransitionerIfN10Transition6EaseIn5CubicEEC2ERf
FNDA:0,_ZN12TransitionerIfN10Transition7EaseOut7QuinticEED0Ev
FNDA:0,_ZN12TransitionerIfN10Transition7EaseOut7QuinticEED2Ev
FNDA:0,_ZN12TransitionerIfN10Transition6EaseIn7QuinticEED0Ev
FNDA:0,_ZN12TransitionerIfN10Transition6EaseIn7QuinticEED2Ev
FNDA:0,_ZN12TransitionerIfN10Transition9EaseInOut7QuinticEED0Ev
FNDA:0,_ZN12TransitionerIfN10Transition9EaseInOut7QuinticEED2Ev
FNDA:0,_ZN12TransitionerIfN10Transition7EaseOut7QuarticEED0Ev
FNDA:0,_ZN12TransitionerIfN10Transition7EaseOut7QuarticEED2Ev
FNDA:0,_ZN12TransitionerIfN10Transition6EaseIn7QuarticEED0Ev
FNDA:0,_ZN12TransitionerIfN10Transition6EaseIn7QuarticEED2Ev
FNDA:0,_ZN12TransitionerIfN10Transition9EaseInOut7QuarticEED0Ev
FNDA:0,_ZN12TransitionerIfN10Transition9EaseInOut7QuarticEED2Ev
FNDA:0,_ZN12TransitionerIfN10Transition7EaseOut5CubicEED0Ev
FNDA:0,_ZN12TransitionerIfN10Transition7EaseOut5CubicEED2Ev
FNDA:0,_ZN12TransitionerIfN10Transition6EaseIn5CubicEED0Ev
FNDA:0,_ZN12TransitionerIfN10Transition6EaseIn5CubicEED2Ev
FNDA:0,_ZN12TransitionerIfN10Transition9EaseInOut5CubicEED0Ev
FNDA:0,_ZN12TransitionerIfN10Transition9EaseInOut5CubicEED2Ev
FNDA:0,_ZN12TransitionerIfN10Transition7EaseOut9QuadraticEED0Ev
FNDA:0,_ZN12TransitionerIfN10Transition7EaseOut9QuadraticEED2Ev
FNDA:0,_ZN12TransitionerIfN10Transition6EaseIn9QuadraticEED0Ev
FNDA:0,_ZN12TransitionerIfN10Transition6EaseIn9QuadraticEED2Ev
FNDA:0,_ZN12TransitionerIfN10Transition9EaseInOut9QuadraticEED0Ev
FNDA:0,_ZN12TransitionerIfN10Transition9EaseInOut9QuadraticEED2Ev
FNDA:0,_ZN12TransitionerIfN10Transition6LinearEED0Ev
FNDA:0,_ZN12TransitionerIfN10Transition6LinearEED2Ev
FNDA:0,_ZN12TransitionerIfN10Transition6LinearEE4initERKfS4_S4_
FNDA:0,_ZN12TransitionerIfN10Transition9EaseInOut9QuadraticEE4initERKfS5_S5_
FNDA:0,_ZN12TransitionerIfN10Transition6EaseIn9QuadraticEE4initERKfS5_S5_
FNDA:0,_ZN12TransitionerIfN10Transition7EaseOut9QuadraticEE4initERKfS5_S5_
FNDA:0,_ZN12TransitionerIfN10Transition9EaseInOut5CubicEE4initERKfS5_S5_
FNDA:0,_ZN12TransitionerIfN10Transition6EaseIn5CubicEE4initERKfS5_S5_
FNDA:0,_ZN12TransitionerIfN10Transition7EaseOut5CubicEE4initERKfS5_S5_
FNDA:0,_ZN12TransitionerIfN10Transition9EaseInOut7QuarticEE4initERKfS5_S5_
FNDA:0,_ZN12TransitionerIfN10Transition6EaseIn7QuarticEE4initERKfS5_S5_
FNDA:0,_ZN12TransitionerIfN10Transition7EaseOut7QuarticEE4initERKfS5_S5_
FNDA:0,_ZN12TransitionerIfN10Transition9EaseInOut7QuinticEE4initERKfS5_S5_
FNDA:0,_ZN12TransitionerIfN10Transition6EaseIn7QuinticEE4initERKfS5_S5_
FNDA:0,_ZN12TransitionerIfN10Transition7EaseOut7QuinticEE4initERKfS5_S5_
FNDA:0,_ZN12TransitionerIfN10Transition6LinearEE4stepERKf
FNDA:0,_ZN12TransitionerIfN10Transition9EaseInOut9QuadraticEE4stepERKf
FNDA:0,_ZN12TransitionerIfN10Transition6EaseIn9QuadraticEE4stepERKf
FNDA:0,_ZN12TransitionerIfN10Transition7EaseOut9QuadraticEE4stepERKf
FNDA:0,_ZN12TransitionerIfN10Transition9EaseInOut5CubicEE4stepERKf
FNDA:0,_ZN12TransitionerIfN10Transition6EaseIn5CubicEE4stepERKf
FNDA:0,_ZN12TransitionerIfN10Transition7EaseOut5CubicEE4stepERKf
FNDA:0,_ZN12TransitionerIfN10Transition9EaseInOut7QuarticEE4stepERKf
FNDA:0,_ZN12TransitionerIfN10Transition6EaseIn7QuarticEE4stepERKf
FNDA:0,_ZN12TransitionerIfN10Transition7EaseOut7QuarticEE4stepERKf
FNDA:0,_ZN12TransitionerIfN10Transition9EaseInOut7QuinticEE4stepERKf
FNDA:0,_ZN12TransitionerIfN10Transition6EaseIn7QuinticEE4stepERKf
FNDA:0,_ZN12TransitionerIfN10Transition7EaseOut7QuinticEE4stepERKf
FNDA:0,_ZN12TransitionerIfN10Transition7EaseOut7QuinticEEC2ERf
FNDA:0,_ZN12TransitionerIfN10Transition6EaseIn7QuinticEEC2ERf
FNDA:0,_ZN12TransitionerIfN10Transition9EaseInOut7QuinticEEC2ERf
FNDA:0,_ZN12TransitionerIfN10Transition7EaseOut7QuarticEEC2ERf
FNDA:0,_ZN12TransitionerIfN10Transition6EaseIn7QuarticEEC2ERf
FNDA:0,_ZN12TransitionerIfN10Transition9EaseInOut7QuarticEEC2ERf
FNDA:0,_ZN12TransitionerIfN10Transition7EaseOut5CubicEEC2ERf
FNDA:0,_ZN12TransitionerIfN10Transition6EaseIn5CubicEEC2ERf
FNDA:0,_ZN12TransitionerIfN10Transition9EaseInOut5CubicEEC2ERf
FNDA:0,_ZN12TransitionerIfN10Transition7EaseOut9QuadraticEEC2ERf
FNDA:0,_ZN12TransitionerIfN10Transition6EaseIn9QuadraticEEC2ERf
FNDA:0,_ZN12TransitionerIfN10Transition9EaseInOut9QuadraticEEC2ERf
FNDA:0,_ZN12TransitionerIfN10Transition6LinearEEC2ERf
FNF:65
FNH:0
BRDA:40,0,0,-
BRDA:40,0,1,-
BRDA:40,1,2,-
BRDA:40,1,3,-
BRDA:40,2,4,-
BRDA:40,2,5,-
BRDA:40,3,6,-
BRDA:40,3,7,-
BRDA:40,4,8,-
BRDA:40,4,9,-
BRDA:40,5,10,-
BRDA:40,5,11,-
BRDA:40,6,12,-
BRDA:40,6,13,-
BRDA:40,7,14,-
BRDA:40,7,15,-
BRDA:40,8,16,-
BRDA:40,8,17,-
BRDA:40,9,18,-
BRDA:40,9,19,-
BRDA:40,10,20,-
BRDA:40,10,21,-
BRDA:40,11,22,-
BRDA:40,11,23,-
BRDA:40,12,24,-
BRDA:40,12,25,-
BRDA:44,0,0,-
BRDA:44,0,1,-
BRDA:44,1,2,-
BRDA:44,1,3,-
BRDA:44,2,4,-
BRDA:44,2,5,-
BRDA:44,3,6,-
BRDA:44,3,7,-
BRDA:44,4,8,-
BRDA:44,4,9,-
BRDA:44,5,10,-
BRDA:44,5,11,-
BRDA:44,6,12,-
BRDA:44,6,13,-
BRDA:44,7,14,-
BRDA:44,7,15,-
BRDA:44,8,16,-
BRDA:44,8,17,-
BRDA:44,9,18,-
BRDA:44,9,19,-
BRDA:44,10,20,-
BRDA:44,10,21,-
BRDA:44,11,22,-
BRDA:44,11,23,-
BRDA:44,12,24,-
BRDA:44,12,25,-
BRDA:58,1,2,-
BRDA:58,1,3,-
BRDA:58,5,7,-
BRDA:58,5,8,-
BRDA:58,9,12,-
BRDA:58,9,13,-
BRDA:58,13,17,-
BRDA:58,13,18,-
BRDA:58,17,22,-
BRDA:58,17,23,-
BRDA:58,21,27,-
BRDA:58,21,28,-
BRDA:58,25,32,-
BRDA:58,25,33,-
BRDA:58,29,37,-
BRDA:58,29,38,-
BRDA:58,33,42,-
BRDA:58,33,43,-
BRDA:58,37,47,-
BRDA:58,37,48,-
BRDA:58,41,52,-
BRDA:58,41,53,-
BRDA:58,45,57,-
BRDA:58,45,58,-
BRDA:58,49,62,-
BRDA:58,49,63,-
BRF:78
BRH:0
DA:20,0
DA:30,0
DA:31,0
DA:32,0
DA:33,0
DA:34,0
DA:35,0
DA:36,0
DA:38,0
DA:39,0
DA:40,0
DA:41,0
DA:42,0
DA:44,0
DA:45,0
DA:46,0
DA:48,0
DA:58,0
LF:18
LH:0
end_of_record
SF:/SharedWithWindows/Projects/diginstrument/inc/iSource.h
FN:15,_ZN8DataFlow7iSourceIfEC2Ev
FN:28,_ZN8DataFlow7iSourceIfED0Ev
FN:28,_ZN8DataFlow7iSourceIfED2Ev
FNDA:0,_ZN8DataFlow7iSourceIfEC2Ev
FNDA:0,_ZN8DataFlow7iSourceIfED0Ev
FNDA:0,_ZN8DataFlow7iSourceIfED2Ev
FNF:3
FNH:0
DA:15,0
DA:28,0
LF:2
LH:0
end_of_record
SF:/SharedWithWindows/Projects/diginstrument/inc/iTransitioner.h
FN:11,_ZN13iTransitionerIfEC2Ev
FN:33,_ZN13iTransitionerIfED0Ev
FN:33,_ZN13iTransitionerIfED2Ev
FNDA:0,_ZN13iTransitionerIfEC2Ev
FNDA:0,_ZN13iTransitionerIfED0Ev
FNDA:0,_ZN13iTransitionerIfED2Ev
FNF:3
FNH:0
DA:11,0
DA:33,0
LF:2
LH:0
end_of_record
SF:/SharedWithWindows/Projects/diginstrument/inc/iWaveformGenerator.h
FN:10,_ZN5Mixer18iWaveformGeneratorIfEC2Ev
FN:67,_ZN5Mixer18iWaveformGeneratorIfED0Ev
FN:67,_ZN5Mixer18iWaveformGeneratorIfED2Ev
FNDA:0,_ZN5Mixer18iWaveformGeneratorIfEC2Ev
FNDA:0,_ZN5Mixer18iWaveformGeneratorIfED0Ev
FNDA:0,_ZN5Mixer18iWaveformGeneratorIfED2Ev
FNF:3
FNH:0
DA:10,0
DA:67,0
LF:2
LH:0
end_of_record
SF:/SharedWithWindows/Projects/diginstrument/src/cheap_square_generator.cpp
FN:4,_ZN5Mixer20CheapSquareGeneratorIfEC2ERKfRKjS5_
FN:10,_ZN5Mixer20CheapSquareGeneratorIfE3getERKj
FN:41,_ZNK5Mixer20CheapSquareGeneratorIfE12getFrequencyEv
FN:47,_ZN5Mixer20CheapSquareGeneratorIfE12setFrequencyERKf
FN:54,_ZN5Mixer20CheapSquareGeneratorIfE12setFrequencyERKfS3_NSt7__cxx1112basic_stringIcSt11char_traitsIcESaIcEEERKj
FNDA:0,_ZN5Mixer20CheapSquareGeneratorIfEC2ERKfRKjS5_
FNDA:0,_ZN5Mixer20CheapSquareGeneratorIfE3getERKj
FNDA:0,_ZNK5Mixer20CheapSquareGeneratorIfE12getFrequencyEv
FNDA:0,_ZN5Mixer20CheapSquareGeneratorIfE12setFrequencyERKf
FNDA:0,_ZN5Mixer20CheapSquareGeneratorIfE12setFrequencyERKfS3_NSt7__cxx1112basic_stringIcSt11char_traitsIcESaIcEEERKj
FNF:5
FNH:0
BRDA:12,0,2,-
BRDA:12,0,3,-
BRDA:13,0,0,-
BRDA:13,0,1,-
BRDA:14,0,0,-
BRDA:14,0,1,-
BRDA:15,1,1,-
BRDA:15,1,2,-
BRDA:21,1,1,-
BRDA:21,1,2,-
BRDA:27,4294967295,1,-
BRDA:27,4294967295,2,-
BRDA:29,0,2,-
BRDA:29,0,3,-
BRDA:31,0,1,-
BRDA:31,0,2,-
BRDA:60,4294967295,1,-
BRDA:60,4294967295,2,-
BRDA:60,0,3,-
BRDA:60,0,4,-
BRDA:62,0,1,-
BRDA:62,0,2,-
BRDA:64,0,0,-
BRDA:64,0,1,-
BRDA:64,0,2,-
BRDA:64,0,3,-
BRDA:64,0,4,-
BRDA:67,0,1,-
BRDA:67,0,2,-
BRDA:67,1,3,-
BRDA:67,1,4,-
BRDA:69,0,1,-
BRDA:69,0,2,-
BRDA:72,0,1,-
BRDA:72,0,2,-
BRDA:72,1,3,-
BRDA:72,1,4,-
BRDA:74,0,1,-
BRDA:74,0,2,-
BRDA:77,0,1,-
BRDA:77,0,2,-
BRDA:77,1,3,-
BRDA:77,1,4,-
BRDA:79,0,1,-
BRDA:79,0,2,-
BRDA:84,0,1,-
BRDA:84,0,2,-
BRDA:84,1,3,-
BRDA:84,1,4,-
BRDA:86,0,1,-
BRDA:86,0,2,-
BRDA:89,0,1,-
BRDA:89,0,2,-
BRDA:89,1,3,-
BRDA:89,1,4,-
BRDA:91,0,1,-
BRDA:91,0,2,-
BRDA:94,0,1,-
BRDA:94,0,2,-
BRDA:94,1,3,-
BRDA:94,1,4,-
BRDA:96,0,1,-
BRDA:96,0,2,-
BRDA:101,0,1,-
BRDA:101,0,2,-
BRDA:101,1,3,-
BRDA:101,1,4,-
BRDA:103,0,1,-
BRDA:103,0,2,-
BRDA:106,0,1,-
BRDA:106,0,2,-
BRDA:106,1,3,-
BRDA:106,1,4,-
BRDA:108,0,1,-
BRDA:108,0,2,-
BRDA:111,0,1,-
BRDA:111,0,2,-
BRDA:111,1,3,-
BRDA:111,1,4,-
BRDA:113,0,1,-
BRDA:113,0,2,-
BRDA:118,0,1,-
BRDA:118,0,2,-
BRDA:118,1,3,-
BRDA:118,1,4,-
BRDA:120,0,1,-
BRDA:120,0,2,-
BRDA:123,0,1,-
BRDA:123,0,2,-
BRDA:123,1,3,-
BRDA:123,1,4,-
BRDA:125,0,1,-
BRDA:125,0,2,-
BRDA:128,0,1,-
BRDA:128,0,2,-
BRDA:128,1,3,-
BRDA:128,1,4,-
BRDA:130,0,1,-
BRDA:130,0,2,-
BRDA:134,0,1,-
BRDA:134,0,2,-
BRDA:137,0,2,-
BRDA:137,0,3,-
BRF:103
BRH:0
DA:4,0
DA:6,0
DA:7,0
DA:10,0
DA:12,0
DA:13,0
DA:14,0
DA:15,0
DA:17,0
DA:21,0
DA:23,0
DA:26,0
DA:27,0
DA:29,0
DA:31,0
DA:32,0
DA:33,0
DA:37,0
DA:41,0
DA:43,0
DA:47,0
DA:49,0
DA:50,0
DA:51,0
DA:54,0
DA:56,0
DA:57,0
DA:58,0
DA:60,0
DA:62,0
DA:64,0
DA:67,0
DA:69,0
DA:70,0
DA:72,0
DA:74,0
DA:75,0
DA:77,0
DA:79,0
DA:80,0
DA:84,0
DA:86,0
DA:87,0
DA:89,0
DA:91,0
DA:92,0
DA:94,0
DA:96,0
DA:97,0
DA:101,0
DA:103,0
DA:104,0
DA:106,0
DA:108,0
DA:109,0
DA:111,0
DA:113,0
DA:114,0
DA:118,0
DA:120,0
DA:121,0
DA:123,0
DA:125,0
DA:126,0
DA:128,0
DA:130,0
DA:131,0
DA:134,0
DA:137,0
DA:138,0
LF:70
LH:0
end_of_record
TN:
SF:/SharedWithWindows/Projects/diginstrument/inc/Applicator.h
FN:23,_ZN8DataFlow10ApplicatorIf13VolumeControlED0Ev
FN:23,_ZN8DataFlow10ApplicatorIf13VolumeControlEC2Ev
FN:23,_ZN8DataFlow10ApplicatorIf13VolumeControlED2Ev
FN:29,_ZN8DataFlow10ApplicatorIf13VolumeControlE3getERKj
FN:41,_ZN8DataFlow10ApplicatorIf13VolumeControlE9getMethodEv
FN:51,_ZN8DataFlow10ApplicatorIf13VolumeControlE6attachERNS_7iSourceIfEE
FNDA:0,_ZN8DataFlow10ApplicatorIf13VolumeControlED0Ev
FNDA:0,_ZN8DataFlow10ApplicatorIf13VolumeControlED2Ev
FNDA:0,_ZN8DataFlow10ApplicatorIf13VolumeControlEC2Ev
FNDA:0,_ZN8DataFlow10ApplicatorIf13VolumeControlE3getERKj
FNDA:0,_ZN8DataFlow10ApplicatorIf13VolumeControlE9getMethodEv
FNDA:0,_ZN8DataFlow10ApplicatorIf13VolumeControlE6attachERNS_7iSourceIfEE
FNF:6
FNH:0
BRDA:31,0,1,-
BRDA:31,0,2,-
BRDA:32,4294967295,1,-
BRDA:32,4294967295,2,-
BRF:4
BRH:0
DA:23,0
DA:29,0
DA:31,0
DA:32,0
DA:33,0
DA:41,0
DA:42,0
DA:51,0
DA:53,0
DA:54,0
LF:10
LH:0
end_of_record
SF:/SharedWithWindows/Projects/diginstrument/inc/AudioSource.h
FN:23,_ZNK5Mixer11AudioSource11getChannelsEv
FN:30,_ZNK5Mixer11AudioSource13getSampleRateEv
FN:33,_ZN5Mixer11AudioSourceC2ERKjS2_
FNDA:0,_ZNK5Mixer11AudioSource11getChannelsEv
FNDA:0,_ZNK5Mixer11AudioSource13getSampleRateEv
FNDA:0,_ZN5Mixer11AudioSourceC2ERKjS2_
FNF:3
FNH:0
DA:23,0
DA:30,0
DA:33,0
LF:3
LH:0
end_of_record
SF:/SharedWithWindows/Projects/diginstrument/inc/ComplexWaveformGenerator.h
FN:35,_ZN5Mixer24ComplexWaveformGeneratorIfED2Ev
FN:35,_ZN5Mixer24ComplexWaveformGeneratorIfED0Ev
FNDA:0,_ZN5Mixer24ComplexWaveformGeneratorIfED0Ev
FNDA:0,_ZN5Mixer24ComplexWaveformGeneratorIfED2Ev
FNF:2
FNH:0
DA:35,0
LF:1
LH:0
end_of_record
SF:/SharedWithWindows/Projects/diginstrument/inc/ConsolidationMethods.h
FN:19,_ZN13Consolidation12AccumulationIfED2Ev
FN:19,_ZN13Consolidation12AccumulationIfED0Ev
FN:19,_ZN13Consolidation12AccumulationIfEC2Ev
FNDA:0,_ZN13Consolidation12AccumulationIfED0Ev
FNDA:0,_ZN13Consolidation12AccumulationIfED2Ev
FNDA:0,_ZN13Consolidation12AccumulationIfEC2Ev
FNF:3
FNH:0
DA:19,0
LF:1
LH:0
end_of_record
SF:/SharedWithWindows/Projects/diginstrument/inc/Consolidator.h
FN:20,_ZN8DataFlow12ConsolidatorIfN13Consolidation12AccumulationEED0Ev
FN:20,_ZN8DataFlow12ConsolidatorIfN13Consolidation12AccumulationEED2Ev
FN:20,_ZN8DataFlow12ConsolidatorIfN13Consolidation12AccumulationEEC2Ev
FN:31,_ZN8DataFlow12ConsolidatorIfN13Consolidation12AccumulationEE6attachERNS_7iSourceIfEE
FN:60,_ZN8DataFlow12ConsolidatorIfN13Consolidation12AccumulationEE3getERKj
FNDA:0,_ZN8DataFlow12ConsolidatorIfN13Consolidation12AccumulationEED0Ev
FNDA:0,_ZN8DataFlow12ConsolidatorIfN13Consolidation12AccumulationEED2Ev
FNDA:0,_ZN8DataFlow12ConsolidatorIfN13Consolidation12AccumulationEEC2Ev
FNDA:0,_ZN8DataFlow12ConsolidatorIfN13Consolidation12AccumulationEE6attachERNS_7iSourceIfEE
FNDA:0,_ZN8DataFlow12ConsolidatorIfN13Consolidation12AccumulationEE3getERKj
FNF:5
FNH:0
BRDA:32,0,2,-
BRDA:32,0,3,-
BRDA:61,0,4,-
BRDA:61,0,5,-
BRDA:62,0,1,-
BRDA:62,0,2,-
BRDA:63,0,4,-
BRDA:63,0,5,-
BRF:8
BRH:0
DA:20,0
DA:31,0
DA:32,0
DA:33,0
DA:60,0
DA:61,0
DA:62,0
DA:63,0
DA:65,0
LF:9
LH:0
end_of_record
SF:/SharedWithWindows/Projects/diginstrument/inc/TransitionFunction.h
FN:17,_ZN18TransitionFunctionIfEC2Ev
FN:43,_ZN18TransitionFunctionIfED0Ev
FN:43,_ZN18TransitionFunctionIfED2Ev
FNDA:0,_ZN18TransitionFunctionIfEC2Ev
FNDA:0,_ZN18TransitionFunctionIfED0Ev
FNDA:0,_ZN18TransitionFunctionIfED2Ev
FNF:3
FNH:0
DA:17,0
DA:43,0
LF:2
LH:0
end_of_record
SF:/SharedWithWindows/Projects/diginstrument/inc/TransitionFunctions.h
FN:19,_ZN10Transition6LinearIfED2Ev
FN:19,_ZN10Transition6LinearIfEC2Ev
FN:19,_ZN10Transition6LinearIfED0Ev
FN:21,_ZN10Transition6LinearIfE4initERKfS3_S3_S3_
FN:27,_ZN10Transition6LinearIfEclERKf
FN:42,_ZN10Transition6EaseIn9QuadraticIfED0Ev
FN:42,_ZN10Transition6EaseIn9QuadraticIfEC2Ev
FN:42,_ZN10Transition6EaseIn9QuadraticIfED2Ev
FN:44,_ZN10Transition6EaseIn9QuadraticIfE4initERKfS4_S4_S4_
FN:50,_ZN10Transition6EaseIn9QuadraticIfEclERKf
FN:58,_ZN10Transition6EaseIn5CubicIfED0Ev
FN:58,_ZN10Transition6EaseIn5CubicIfED2Ev
FN:58,_ZN10Transition6EaseIn5CubicIfEC2Ev
FN:60,_ZN10Transition6EaseIn5CubicIfE4initERKfS4_S4_S4_
FN:66,_ZN10Transition6EaseIn5CubicIfEclERKf
FN:74,_ZN10Transition6EaseIn7QuarticIfED0Ev
FN:74,_ZN10Transition6EaseIn7QuarticIfEC2Ev
FN:74,_ZN10Transition6EaseIn7QuarticIfED2Ev
FN:76,_ZN10Transition6EaseIn7QuarticIfE4initERKfS4_S4_S4_
FN:82,_ZN10Transition6EaseIn7QuarticIfEclERKf
FN:89,_ZN10Transition6EaseIn7QuinticIfED2Ev
FN:89,_ZN10Transition6EaseIn7QuinticIfEC2Ev
FN:89,_ZN10Transition6EaseIn7QuinticIfED0Ev
FN:91,_ZN10Transition6EaseIn7QuinticIfE4initERKfS4_S4_S4_
FN:97,_ZN10Transition6EaseIn7QuinticIfEclERKf
FN:114,_ZN10Transition7EaseOut9QuadraticIfEC2Ev
FN:114,_ZN10Transition7EaseOut9QuadraticIfED2Ev
FN:114,_ZN10Transition7EaseOut9QuadraticIfED0Ev
FN:116,_ZN10Transition7EaseOut9QuadraticIfE4initERKfS4_S4_S4_
FN:122,_ZN10Transition7EaseOut9QuadraticIfEclERKf
FN:130,_ZN10Transition7EaseOut5CubicIfED0Ev
FN:130,_ZN10Transition7EaseOut5CubicIfEC2Ev
FN:130,_ZN10Transition7EaseOut5CubicIfED2Ev
FN:132,_ZN10Transition7EaseOut5CubicIfE4initERKfS4_S4_S4_
FN:138,_ZN10Transition7EaseOut5CubicIfEclERKf
FN:146,_ZN10Transition7EaseOut7QuarticIfED0Ev
FN:146,_ZN10Transition7EaseOut7QuarticIfEC2Ev
FN:146,_ZN10Transition7EaseOut7QuarticIfED2Ev
FN:148,_ZN10Transition7EaseOut7QuarticIfE4initERKfS4_S4_S4_
FN:154,_ZN10Transition7EaseOut7QuarticIfEclERKf
FN:162,_ZN10Transition7EaseOut7QuinticIfEC2Ev
FN:162,_ZN10Transition7EaseOut7QuinticIfED0Ev
FN:162,_ZN10Transition7EaseOut7QuinticIfED2Ev
FN:164,_ZN10Transition7EaseOut7QuinticIfE4initERKfS4_S4_S4_
FN:170,_ZN10Transition7EaseOut7QuinticIfEclERKf
FN:186,_ZN10Transition9EaseInOut9QuadraticIfED0Ev
FN:186,_ZN10Transition9EaseInOut9QuadraticIfED2Ev
FN:186,_ZN10Transition9EaseInOut9QuadraticIfEC2Ev
FN:188,_ZN10Transition9EaseInOut9QuadraticIfE4initERKfS4_S4_S4_
FN:195,_ZN10Transition9EaseInOut9QuadraticIfEclERKf
FN:204,_ZN10Transition9EaseInOut5CubicIfED0Ev
FN:204,_ZN10Transition9EaseInOut5CubicIfEC2Ev
FN:204,_ZN10Transition9EaseInOut5CubicIfED2Ev
FN:206,_ZN10Transition9EaseInOut5CubicIfE4initERKfS4_S4_S4_
FN:213,_ZN10Transition9EaseInOut5CubicIfEclERKf
FN:222,_ZN10Transition9EaseInOut7QuarticIfEC2Ev
FN:222,_ZN10Transition9EaseInOut7QuarticIfED2Ev
FN:222,_ZN10Transition9EaseInOut7QuarticIfED0Ev
FN:224,_ZN10Transition9EaseInOut7QuarticIfE4initERKfS4_S4_S4_
FN:231,_ZN10Transition9EaseInOut7QuarticIfEclERKf
FN:240,_ZN10Transition9EaseInOut7QuinticIfED2Ev
FN:240,_ZN10Transition9EaseInOut7QuinticIfEC2Ev
FN:240,_ZN10Transition9EaseInOut7QuinticIfED0Ev
FN:242,_ZN10Transition9EaseInOut7QuinticIfE4initERKfS4_S4_S4_
FN:249,_ZN10Transition9EaseInOut7QuinticIfEclERKf
FNDA:0,_ZN10Transition6LinearIfED0Ev
FNDA:0,_ZN10Transition6LinearIfED2Ev
FNDA:0,_ZN10Transition6LinearIfEC2Ev
FNDA:0,_ZN10Transition6LinearIfE4initERKfS3_S3_S3_
FNDA:0,_ZN10Transition6LinearIfEclERKf
FNDA:0,_ZN10Transition6EaseIn9QuadraticIfED0Ev
FNDA:0,_ZN10Transition6EaseIn9QuadraticIfED2Ev
FNDA:0,_ZN10Transition6EaseIn9QuadraticIfEC2Ev
FNDA:0,_ZN10Transition6EaseIn9QuadraticIfE4initERKfS4_S4_S4_
FNDA:0,_ZN10Transition6EaseIn9QuadraticIfEclERKf
FNDA:0,_ZN10Transition6EaseIn5CubicIfED0Ev
FNDA:0,_ZN10Transition6EaseIn5CubicIfED2Ev
FNDA:0,_ZN10Transition6EaseIn5CubicIfEC2Ev
FNDA:0,_ZN10Transition6EaseIn5CubicIfE4initERKfS4_S4_S4_
FNDA:0,_ZN10Transition6EaseIn5CubicIfEclERKf
FNDA:0,_ZN10Transition6EaseIn7QuarticIfED0Ev
FNDA:0,_ZN10Transition6EaseIn7QuarticIfED2Ev
FNDA:0,_ZN10Transition6EaseIn7QuarticIfEC2Ev
FNDA:0,_ZN10Transition6EaseIn7QuarticIfE4initERKfS4_S4_S4_
FNDA:0,_ZN10Transition6EaseIn7QuarticIfEclERKf
FNDA:0,_ZN10Transition6EaseIn7QuinticIfED0Ev
FNDA:0,_ZN10Transition6EaseIn7QuinticIfED2Ev
FNDA:0,_ZN10Transition6EaseIn7QuinticIfEC2Ev
FNDA:0,_ZN10Transition6EaseIn7QuinticIfE4initERKfS4_S4_S4_
FNDA:0,_ZN10Transition6EaseIn7QuinticIfEclERKf
FNDA:0,_ZN10Transition7EaseOut9QuadraticIfED0Ev
FNDA:0,_ZN10Transition7EaseOut9QuadraticIfED2Ev
FNDA:0,_ZN10Transition7EaseOut9QuadraticIfEC2Ev
FNDA:0,_ZN10Transition7EaseOut9QuadraticIfE4initERKfS4_S4_S4_
FNDA:0,_ZN10Transition7EaseOut9QuadraticIfEclERKf
FNDA:0,_ZN10Transition7EaseOut5CubicIfED0Ev
FNDA:0,_ZN10Transition7EaseOut5CubicIfED2Ev
FNDA:0,_ZN10Transition7EaseOut5CubicIfEC2Ev
FNDA:0,_ZN10Transition7EaseOut5CubicIfE4initERKfS4_S4_S4_
FNDA:0,_ZN10Transition7EaseOut5CubicIfEclERKf
FNDA:0,_ZN10Transition7EaseOut7QuarticIfED0Ev
FNDA:0,_ZN10Transition7EaseOut7QuarticIfED2Ev
FNDA:0,_ZN10Transition7EaseOut7QuarticIfEC2Ev
FNDA:0,_ZN10Transition7EaseOut7QuarticIfE4initERKfS4_S4_S4_
FNDA:0,_ZN10Transition7EaseOut7QuarticIfEclERKf
FNDA:0,_ZN10Transition7EaseOut7QuinticIfED0Ev
FNDA:0,_ZN10Transition7EaseOut7QuinticIfED2Ev
FNDA:0,_ZN10Transition7EaseOut7QuinticIfEC2Ev
FNDA:0,_ZN10Transition7EaseOut7QuinticIfE4initERKfS4_S4_S4_
FNDA:0,_ZN10Transition7EaseOut7QuinticIfEclERKf
FNDA:0,_ZN10Transition9EaseInOut9QuadraticIfED0Ev
FNDA:0,_ZN10Transition9EaseInOut9QuadraticIfED2Ev
FNDA:0,_ZN10Transition9EaseInOut9QuadraticIfEC2Ev
FNDA:0,_ZN10Transition9EaseInOut9QuadraticIfE4initERKfS4_S4_S4_
FNDA:0,_ZN10Transition9EaseInOut9QuadraticIfEclERKf
FNDA:0,_ZN10Transition9EaseInOut5CubicIfED0Ev
FNDA:0,_ZN10Transition9EaseInOut5CubicIfED2Ev
FNDA:0,_ZN10Transition9EaseInOut5CubicIfEC2Ev
FNDA:0,_ZN10Transition9EaseInOut5CubicIfE4initERKfS4_S4_S4_
FNDA:0,_ZN10Transition9EaseInOut5CubicIfEclERKf
FNDA:0,_ZN10Transition9EaseInOut7QuarticIfED0Ev
FNDA:0,_ZN10Transition9EaseInOut7QuarticIfED2Ev
FNDA:0,_ZN10Transition9EaseInOut7QuarticIfEC2Ev
FNDA:0,_ZN10Transition9EaseInOut7QuarticIfE4initERKfS4_S4_S4_
FNDA:0,_ZN10Transition9EaseInOut7QuarticIfEclERKf
FNDA:0,_ZN10Transition9EaseInOut7QuinticIfED0Ev
FNDA:0,_ZN10Transition9EaseInOut7QuinticIfED2Ev
FNDA:0,_ZN10Transition9EaseInOut7QuinticIfEC2Ev
FNDA:0,_ZN10Transition9EaseInOut7QuinticIfE4initERKfS4_S4_S4_
FNDA:0,_ZN10Transition9EaseInOut7QuinticIfEclERKf
FNF:65
FNH:0
DA:19,0
DA:21,0
DA:22,0
DA:23,0
DA:24,0
DA:25,0
DA:27,0
DA:28,0
DA:42,0
DA:44,0
DA:45,0
DA:46,0
DA:47,0
DA:48,0
DA:50,0
DA:51,0
DA:58,0
DA:60,0
DA:61,0
DA:62,0
DA:63,0
DA:64,0
DA:66,0
DA:67,0
DA:74,0
DA:76,0
DA:77,0
DA:78,0
DA:79,0
DA:80,0
DA:82,0
DA:83,0
DA:89,0
DA:91,0
DA:92,0
DA:93,0
DA:94,0
DA:95,0
DA:97,0
DA:98,0
DA:114,0
DA:116,0
DA:117,0
DA:118,0
DA:119,0
DA:120,0
DA:122,0
DA:123,0
DA:130,0
DA:132,0
DA:133,0
DA:134,0
DA:135,0
DA:136,0
DA:138,0
DA:139,0
DA:146,0
DA:148,0
DA:149,0
DA:150,0
DA:151,0
DA:152,0
DA:154,0
DA:155,0
DA:162,0
DA:164,0
DA:165,0
DA:166,0
DA:167,0
DA:168,0
DA:170,0
DA:171,0
DA:186,0
DA:188,0
DA:189,0
DA:190,0
DA:191,0
DA:192,0
DA:193,0
DA:195,0
DA:196,0
DA:197,0
DA:204,0
DA:206,0
DA:207,0
DA:208,0
DA:209,0
DA:210,0
DA:211,0
DA:213,0
DA:214,0
DA:215,0
DA:222,0
DA:224,0
DA:225,0
DA:226,0
DA:227,0
DA:228,0
DA:229,0
DA:231,0
DA:232,0
DA:233,0
DA:240,0
DA:242,0
DA:243,0
DA:244,0
DA:245,0
DA:246,0
DA:247,0
DA:249,0
DA:250,0
DA:251,0
LF:112
LH:0
end_of_record
SF:/SharedWithWindows/Projects/diginstrument/inc/Transitioner.h
FN:20,_ZN12TransitionerIfN10Transition7EaseOut7QuarticEED0Ev
FN:20,_ZN12TransitionerIfN10Transition7EaseOut9QuadraticEED0Ev
FN:20,_ZN12TransitionerIfN10Transition9EaseInOut9QuadraticEED2Ev
FN:20,_ZN12TransitionerIfN10Transition9EaseInOut7QuinticEED2Ev
FN:20,_ZN12TransitionerIfN10Transition7EaseOut9QuadraticEED2Ev
FN:20,_ZN12TransitionerIfN10Transition7EaseOut5CubicEED0Ev
FN:20,_ZN12TransitionerIfN10Transition9EaseInOut5CubicEED2Ev
FN:20,_ZN12TransitionerIfN10Transition6LinearEED2Ev
FN:20,_ZN12TransitionerIfN10Transition9EaseInOut7QuinticEED0Ev
FN:20,_ZN12TransitionerIfN10Transition6EaseIn9QuadraticEED0Ev
FN:20,_ZN12TransitionerIfN10Transition6EaseIn5CubicEED2Ev
FN:20,_ZN12TransitionerIfN10Transition7EaseOut7QuinticEED2Ev
FN:20,_ZN12TransitionerIfN10Transition7EaseOut7QuinticEED0Ev
FN:20,_ZN12TransitionerIfN10Transition6EaseIn5CubicEED0Ev
FN:20,_ZN12TransitionerIfN10Transition6EaseIn7QuinticEED2Ev
FN:20,_ZN12TransitionerIfN10Transition9EaseInOut7QuarticEED2Ev
FN:20,_ZN12TransitionerIfN10Transition6EaseIn7QuarticEED2Ev
FN:20,_ZN12TransitionerIfN10Transition6EaseIn7QuarticEED0Ev
FN:20,_ZN12TransitionerIfN10Transition9EaseInOut7QuarticEED0Ev
FN:20,_ZN12TransitionerIfN10Transition7EaseOut7QuarticEED2Ev
FN:20,_ZN12TransitionerIfN10Transition7EaseOut5CubicEED2Ev
FN:20,_ZN12TransitionerIfN10Transition6LinearEED0Ev
FN:20,_ZN12TransitionerIfN10Transition9EaseInOut5CubicEED0Ev
FN:20,_ZN12TransitionerIfN10Transition9EaseInOut9QuadraticEED0Ev
FN:20,_ZN12TransitionerIfN10Transition6EaseIn9QuadraticEED2Ev
FN:20,_ZN12TransitionerIfN10Transition6EaseIn7QuinticEED0Ev
FN:30,_ZN12TransitionerIfN10Transition6EaseIn9QuadraticEE4initERKfS5_S5_
FN:30,_ZN12TransitionerIfN10Transition9EaseInOut7QuarticEE4initERKfS5_S5_
FN:30,_ZN12TransitionerIfN10Transition7EaseOut9QuadraticEE4initERKfS5_S5_
FN:30,_ZN12TransitionerIfN10Transition9EaseInOut5CubicEE4initERKfS5_S5_
FN:30,_ZN12TransitionerIfN10Transition6EaseIn7QuarticEE4initERKfS5_S5_
FN:30,_ZN12TransitionerIfN10Transition7EaseOut7QuarticEE4initERKfS5_S5_
FN:30,_ZN12TransitionerIfN10Transition9EaseInOut7QuinticEE4initERKfS5_S5_
FN:30,_ZN12TransitionerIfN10Transition6LinearEE4initERKfS4_S4_
FN:30,_ZN12TransitionerIfN10Transition6EaseIn5CubicEE4initERKfS5_S5_
FN:30,_ZN12TransitionerIfN10Transition6EaseIn7QuinticEE4initERKfS5_S5_
FN:30,_ZN12TransitionerIfN10Transition7EaseOut7QuinticEE4initERKfS5_S5_
FN:30,_ZN12TransitionerIfN10Transition9EaseInOut9QuadraticEE4initERKfS5_S5_
FN:30,_ZN12TransitionerIfN10Transition7EaseOut5CubicEE4initERKfS5_S5_
FN:38,_ZN12TransitionerIfN10Transition6LinearEE4stepERKf
FN:38,_ZN12TransitionerIfN10Transition7EaseOut9QuadraticEE4stepERKf
FN:38,_ZN12TransitionerIfN10Transition7EaseOut5CubicEE4stepERKf
FN:38,_ZN12TransitionerIfN10Transition6EaseIn5CubicEE4stepERKf
FN:38,_ZN12TransitionerIfN10Transition6EaseIn7QuinticEE4stepERKf
FN:38,_ZN12TransitionerIfN10Transition9EaseInOut7QuarticEE4stepERKf
FN:38,_ZN12TransitionerIfN10Transition9EaseInOut5CubicEE4stepERKf
FN:38,_ZN12TransitionerIfN10Transition9EaseInOut9QuadraticEE4stepERKf
FN:38,_ZN12TransitionerIfN10Transition7EaseOut7QuarticEE4stepERKf
FN:38,_ZN12TransitionerIfN10Transition7EaseOut7QuinticEE4stepERKf
FN:38,_ZN12TransitionerIfN10Transition6EaseIn9QuadraticEE4stepERKf
FN:38,_ZN12TransitionerIfN10Transition6EaseIn7QuarticEE4stepERKf
FN:38,_ZN12TransitionerIfN10Transition9EaseInOut7QuinticEE4stepERKf
FN:58,_ZN12TransitionerIfN10Transition6LinearEEC2ERf
FN:58,_ZN12TransitionerIfN10Transition9EaseInOut7QuinticEEC2ERf
FN:58,_ZN12TransitionerIfN10Transition6EaseIn9QuadraticEEC2ERf
FN:58,_ZN12TransitionerIfN10Transition7EaseOut7QuinticEEC2ERf
FN:58,_ZN12TransitionerIfN10Transition9EaseInOut7QuarticEEC2ERf
FN:58,_ZN12TransitionerIfN10Transition7EaseOut7QuarticEEC2ERf
FN:58,_ZN12TransitionerIfN10Transition9EaseInOut9QuadraticEEC2ERf
FN:58,_ZN12TransitionerIfN10Transition6EaseIn7QuinticEEC2ERf
FN:58,_ZN12TransitionerIfN10Transition9EaseInOut5CubicEEC2ERf
FN:58,_ZN12TransitionerIfN10Transition7EaseOut5CubicEEC2ERf
FN:58,_ZN12TransitionerIfN10Transition6EaseIn5CubicEEC2ERf
FN:58,_ZN12TransitionerIfN10Transition7EaseOut9QuadraticEEC2ERf
FN:58,_ZN12TransitionerIfN10Transition6EaseIn7QuarticEEC2ERf
FNDA:0,_ZN12TransitionerIfN10Transition7EaseOut7QuinticEED0Ev
FNDA:0,_ZN12TransitionerIfN10Transition7EaseOut7QuinticEED2Ev
FNDA:0,_ZN12TransitionerIfN10Transition6EaseIn7QuinticEED0Ev
FNDA:0,_ZN12TransitionerIfN10Transition6EaseIn7QuinticEED2Ev
FNDA:0,_ZN12TransitionerIfN10Transition9EaseInOut7QuinticEED0Ev
FNDA:0,_ZN12TransitionerIfN10Transition9EaseInOut7QuinticEED2Ev
FNDA:0,_ZN12TransitionerIfN10Transition7EaseOut7QuarticEED0Ev
FNDA:0,_ZN12TransitionerIfN10Transition7EaseOut7QuarticEED2Ev
FNDA:0,_ZN12TransitionerIfN10Transition6EaseIn7QuarticEED0Ev
FNDA:0,_ZN12TransitionerIfN10Transition6EaseIn7QuarticEED2Ev
FNDA:0,_ZN12TransitionerIfN10Transition9EaseInOut7QuarticEED0Ev
FNDA:0,_ZN12TransitionerIfN10Transition9EaseInOut7QuarticEED2Ev
FNDA:0,_ZN12TransitionerIfN10Transition7EaseOut5CubicEED0Ev
FNDA:0,_ZN12TransitionerIfN10Transition7EaseOut5CubicEED2Ev
FNDA:0,_ZN12TransitionerIfN10Transition6EaseIn5CubicEED0Ev
FNDA:0,_ZN12TransitionerIfN10Transition6EaseIn5CubicEED2Ev
FNDA:0,_ZN12TransitionerIfN10Transition9EaseInOut5CubicEED0Ev
FNDA:0,_ZN12TransitionerIfN10Transition9EaseInOut5CubicEED2Ev
FNDA:0,_ZN12TransitionerIfN10Transition7EaseOut9QuadraticEED0Ev
FNDA:0,_ZN12TransitionerIfN10Transition7EaseOut9QuadraticEED2Ev
FNDA:0,_ZN12TransitionerIfN10Transition6EaseIn9QuadraticEED0Ev
FNDA:0,_ZN12TransitionerIfN10Transition6EaseIn9QuadraticEED2Ev
FNDA:0,_ZN12TransitionerIfN10Transition9EaseInOut9QuadraticEED0Ev
FNDA:0,_ZN12TransitionerIfN10Transition9EaseInOut9QuadraticEED2Ev
FNDA:0,_ZN12TransitionerIfN10Transition6LinearEED0Ev
FNDA:0,_ZN12TransitionerIfN10Transition6LinearEED2Ev
FNDA:0,_ZN12TransitionerIfN10Transition6LinearEE4initERKfS4_S4_
FNDA:0,_ZN12TransitionerIfN10Transition9EaseInOut9QuadraticEE4initERKfS5_S5_
FNDA:0,_ZN12TransitionerIfN10Transition6EaseIn9QuadraticEE4initERKfS5_S5_
FNDA:0,_ZN12TransitionerIfN10Transition7EaseOut9QuadraticEE4initERKfS5_S5_
FNDA:0,_ZN12TransitionerIfN10Transition9EaseInOut5CubicEE4initERKfS5_S5_
FNDA:0,_ZN12TransitionerIfN10Transition6EaseIn5CubicEE4initERKfS5_S5_
FNDA:0,_ZN12TransitionerIfN10Transition7EaseOut5CubicEE4initERKfS5_S5_
FNDA:0,_ZN12TransitionerIfN10Transition9EaseInOut7QuarticEE4initERKfS5_S5_
FNDA:0,_ZN12TransitionerIfN10Transition6EaseIn7QuarticEE4initERKfS5_S5_
FNDA:0,_ZN12TransitionerIfN10Transition7EaseOut7QuarticEE4initERKfS5_S5_
FNDA:0,_ZN12TransitionerIfN10Transition9EaseInOut7QuinticEE4initERKfS5_S5_
FNDA:0,_ZN12TransitionerIfN10Transition6EaseIn7QuinticEE4initERKfS5_S5_
FNDA:0,_ZN12TransitionerIfN10Transition7EaseOut7QuinticEE4initERKfS5_S5_
FNDA:0,_ZN12TransitionerIfN10Transition6LinearEE4stepERKf
FNDA:0,_ZN12TransitionerIfN10Transition9EaseInOut9QuadraticEE4stepERKf
FNDA:0,_ZN12TransitionerIfN10Transition6EaseIn9QuadraticEE4stepERKf
FNDA:0,_ZN12TransitionerIfN10Transition7EaseOut9QuadraticEE4stepERKf
FNDA:0,_ZN12TransitionerIfN10Transition9EaseInOut5CubicEE4stepERKf
FNDA:0,_ZN12TransitionerIfN10Transition6EaseIn5CubicEE4stepERKf
FNDA:0,_ZN12TransitionerIfN10Transition7EaseOut5CubicEE4stepERKf
FNDA:0,_ZN12TransitionerIfN10Transition9EaseInOut7QuarticEE4stepERKf
FNDA:0,_ZN12TransitionerIfN10Transition6EaseIn7QuarticEE4stepERKf
FNDA:0,_ZN12TransitionerIfN10Transition7EaseOut7QuarticEE4stepERKf
FNDA:0,_ZN12TransitionerIfN10Transition9EaseInOut7QuinticEE4stepERKf
FNDA:0,_ZN12TransitionerIfN10Transition6EaseIn7QuinticEE4stepERKf
FNDA:0,_ZN12TransitionerIfN10Transition7EaseOut7QuinticEE4stepERKf
FNDA:0,_ZN12TransitionerIfN10Transition7EaseOut7QuinticEEC2ERf
FNDA:0,_ZN12TransitionerIfN10Transition6EaseIn7QuinticEEC2ERf
FNDA:0,_ZN12TransitionerIfN10Transition9EaseInOut7QuinticEEC2ERf
FNDA:0,_ZN12TransitionerIfN10Transition7EaseOut7QuarticEEC2ERf
FNDA:0,_ZN12TransitionerIfN10Transition6EaseIn7QuarticEEC2ERf
FNDA:0,_ZN12TransitionerIfN10Transition9EaseInOut7QuarticEEC2ERf
FNDA:0,_ZN12TransitionerIfN10Transition7EaseOut5CubicEEC2ERf
FNDA:0,_ZN12TransitionerIfN10Transition6EaseIn5CubicEEC2ERf
FNDA:0,_ZN12TransitionerIfN10Transition9EaseInOut5CubicEEC2ERf
FNDA:0,_ZN12TransitionerIfN10Transition7EaseOut9QuadraticEEC2ERf
FNDA:0,_ZN12TransitionerIfN10Transition6EaseIn9QuadraticEEC2ERf
FNDA:0,_ZN12TransitionerIfN10Transition9EaseInOut9QuadraticEEC2ERf
FNDA:0,_ZN12TransitionerIfN10Transition6LinearEEC2ERf
FNF:65
FNH:0
BRDA:40,0,0,-
BRDA:40,0,1,-
BRDA:40,1,2,-
BRDA:40,1,3,-
BRDA:40,2,4,-
BRDA:40,2,5,-
BRDA:40,3,6,-
BRDA:40,3,7,-
BRDA:40,4,8,-
BRDA:40,4,9,-
BRDA:40,5,10,-
BRDA:40,5,11,-
BRDA:40,6,12,-
BRDA:40,6,13,-
BRDA:40,7,14,-
BRDA:40,7,15,-
BRDA:40,8,16,-
BRDA:40,8,17,-
BRDA:40,9,18,-
BRDA:40,9,19,-
BRDA:40,10,20,-
BRDA:40,10,21,-
BRDA:40,11,22,-
BRDA:40,11,23,-
BRDA:40,12,24,-
BRDA:40,12,25,-
BRDA:44,0,0,-
BRDA:44,0,1,-
BRDA:44,1,2,-
BRDA:44,1,3,-
BRDA:44,2,4,-
BRDA:44,2,5,-
BRDA:44,3,6,-
BRDA:44,3,7,-
BRDA:44,4,8,-
BRDA:44,4,9,-
BRDA:44,5,10,-
BRDA:44,5,11,-
BRDA:44,6,12,-
BRDA:44,6,13,-
BRDA:44,7,14,-
BRDA:44,7,15,-
BRDA:44,8,16,-
BRDA:44,8,17,-
BRDA:44,9,18,-
BRDA:44,9,19,-
BRDA:44,10,20,-
BRDA:44,10,21,-
BRDA:44,11,22,-
BRDA:44,11,23,-
BRDA:44,12,24,-
BRDA:44,12,25,-
BRDA:58,1,2,-
BRDA:58,1,3,-
BRDA:58,5,7,-
BRDA:58,5,8,-
BRDA:58,9,12,-
BRDA:58,9,13,-
BRDA:58,13,17,-
BRDA:58,13,18,-
BRDA:58,17,22,-
BRDA:58,17,23,-
BRDA:58,21,27,-
BRDA:58,21,28,-
BRDA:58,25,32,-
BRDA:58,25,33,-
BRDA:58,29,37,-
BRDA:58,29,38,-
BRDA:58,33,42,-
BRDA:58,33,43,-
BRDA:58,37,47,-
BRDA:58,37,48,-
BRDA:58,41,52,-
BRDA:58,41,53,-
BRDA:58,45,57,-
BRDA:58,45,58,-
BRDA:58,49,62,-
BRDA:58,49,63,-
BRF:78
BRH:0
DA:20,0
DA:30,0
DA:31,0
DA:32,0
DA:33,0
DA:34,0
DA:35,0
DA:36,0
DA:38,0
DA:39,0
DA:40,0
DA:41,0
DA:42,0
DA:44,0
DA:45,0
DA:46,0
DA:48,0
DA:58,0
LF:18
LH:0
end_of_record
SF:/SharedWithWindows/Projects/diginstrument/inc/VolumeControl.h
FN:15,_ZN13VolumeControlIfED2Ev
FN:22,_ZN13VolumeControlIfE14stepTransitionERKi
FN:34,_ZN13VolumeControlIfE9getVolumeEv
FN:44,_ZN13VolumeControlIfE9setVolumeERKf
FN:55,_ZN13VolumeControlIfEclERSt6vectorIfSaIfEE
FN:101,_ZN13VolumeControlIfE9setVolumeERKfS2_RKiNSt7__cxx1112basic_stringIcSt11char_traitsIcESaIcEEERKj
FN:183,_ZN13VolumeControlIfEC2Ev
FNDA:0,_ZN13VolumeControlIfED2Ev
FNDA:0,_ZN13VolumeControlIfE14stepTransitionERKi
FNDA:0,_ZN13VolumeControlIfE9getVolumeEv
FNDA:0,_ZN13VolumeControlIfE9setVolumeERKf
FNDA:0,_ZN13VolumeControlIfEclERSt6vectorIfSaIfEE
FNDA:0,_ZN13VolumeControlIfE9setVolumeERKfS2_RKiNSt7__cxx1112basic_stringIcSt11char_traitsIcESaIcEEERKj
FNDA:0,_ZN13VolumeControlIfEC2Ev
FNF:7
FNH:0
BRDA:23,0,1,-
BRDA:23,0,2,-
BRDA:24,0,2,-
BRDA:24,0,3,-
BRDA:57,1,5,-
BRDA:57,1,6,-
BRDA:60,4294967295,1,-
BRDA:60,4294967295,2,-
BRDA:103,0,1,-
BRDA:103,0,2,-
BRDA:107,0,0,-
BRDA:107,0,1,-
BRDA:107,0,2,-
BRDA:107,0,3,-
BRDA:107,0,4,-
BRDA:110,0,1,-
BRDA:110,0,2,-
BRDA:115,0,1,-
BRDA:115,0,2,-
BRDA:120,0,1,-
BRDA:120,0,2,-
BRDA:127,0,1,-
BRDA:127,0,2,-
BRDA:132,0,1,-
BRDA:132,0,2,-
BRDA:137,0,1,-
BRDA:137,0,2,-
BRDA:144,0,1,-
BRDA:144,0,2,-
BRDA:149,0,1,-
BRDA:149,0,2,-
BRDA:154,0,1,-
BRDA:154,0,2,-
BRDA:161,0,1,-
BRDA:161,0,2,-
BRDA:166,0,1,-
BRDA:166,0,2,-
BRDA:171,0,1,-
BRDA:171,0,2,-
BRDA:180,0,3,-
BRDA:180,0,4,-
BRF:41
BRH:0
DA:15,0
DA:22,0
DA:23,0
DA:24,0
DA:26,0
DA:34,0
DA:36,0
DA:44,0
DA:46,0
DA:47,0
DA:55,0
DA:57,0
DA:59,0
DA:60,0
DA:62,0
DA:101,0
DA:102,0
DA:103,0
DA:105,0
DA:107,0
DA:110,0
DA:112,0
DA:113,0
DA:115,0
DA:117,0
DA:118,0
DA:120,0
DA:122,0
DA:123,0
DA:127,0
DA:129,0
DA:130,0
DA:132,0
DA:134,0
DA:135,0
DA:137,0
DA:139,0
DA:140,0
DA:144,0
DA:146,0
DA:147,0
DA:149,0
DA:151,0
DA:152,0
DA:154,0
DA:156,0
DA:157,0
DA:161,0
DA:163,0
DA:164,0
DA:166,0
DA:168,0
DA:169,0
DA:171,0
DA:173,0
DA:174,0
DA:177,0
DA:180,0
DA:181,0
DA:183,0
LF:60
LH:0
end_of_record
SF:/SharedWithWindows/Projects/diginstrument/inc/iConsolidationMethod.h
FN:13,_ZN8DataFlow20iConsolidationMethodIfEC2Ev
FN:41,_ZN8DataFlow20iConsolidationMethodIfED2Ev
FN:41,_ZN8DataFlow20iConsolidationMethodIfED0Ev
FNDA:0,_ZN8DataFlow20iConsolidationMethodIfEC2Ev
FNDA:0,_ZN8DataFlow20iConsolidationMethodIfED0Ev
FNDA:0,_ZN8DataFlow20iConsolidationMethodIfED2Ev
FNF:3
FNH:0
DA:13,0
DA:41,0
LF:2
LH:0
end_of_record
SF:/SharedWithWindows/Projects/diginstrument/inc/iSource.h
FN:15,_ZN8DataFlow7iSourceIfEC2Ev
FN:28,_ZN8DataFlow7iSourceIfED0Ev
FN:28,_ZN8DataFlow7iSourceIfED2Ev
FNDA:0,_ZN8DataFlow7iSourceIfEC2Ev
FNDA:0,_ZN8DataFlow7iSourceIfED0Ev
FNDA:0,_ZN8DataFlow7iSourceIfED2Ev
FNF:3
FNH:0
DA:15,0
DA:28,0
LF:2
LH:0
end_of_record
SF:/SharedWithWindows/Projects/diginstrument/inc/iTransitioner.h
FN:11,_ZN13iTransitionerIfEC2Ev
FN:33,_ZN13iTransitionerIfED0Ev
FN:33,_ZN13iTransitionerIfED2Ev
FNDA:0,_ZN13iTransitionerIfEC2Ev
FNDA:0,_ZN13iTransitionerIfED0Ev
FNDA:0,_ZN13iTransitionerIfED2Ev
FNF:3
FNH:0
DA:11,0
DA:33,0
LF:2
LH:0
end_of_record
SF:/SharedWithWindows/Projects/diginstrument/src/complex_waveform_generator.cpp
FN:4,_ZN5Mixer24ComplexWaveformGeneratorIfEC2ERKSt6vectorISt4pairIffESaIS4_EERKjSA_
FN:18,_ZN5Mixer24ComplexWaveformGeneratorIfE3getERKj
FN:24,_ZN5Mixer24ComplexWaveformGeneratorIfE12getComponentERKf
FN:33,_ZN5Mixer24ComplexWaveformGeneratorIfE12setComponentERKfS3_
FN:48,_ZN5Mixer24ComplexWaveformGeneratorIfE12setComponentERKfS3_S3_NSt7__cxx1112basic_stringIcSt11char_traitsIcESaIcEEERKj
FNDA:0,_ZN5Mixer24ComplexWaveformGeneratorIfEC2ERKSt6vectorISt4pairIffESaIS4_EERKjSA_
FNDA:0,_ZN5Mixer24ComplexWaveformGeneratorIfE3getERKj
FNDA:0,_ZN5Mixer24ComplexWaveformGeneratorIfE12getComponentERKf
FNDA:0,_ZN5Mixer24ComplexWaveformGeneratorIfE12setComponentERKfS3_
FNDA:0,_ZN5Mixer24ComplexWaveformGeneratorIfE12setComponentERKfS3_S3_NSt7__cxx1112basic_stringIcSt11char_traitsIcESaIcEEERKj
FNF:5
FNH:0
BRDA:7,0,5,-
BRDA:7,0,6,-
BRDA:8,4294967295,1,-
BRDA:8,4294967295,2,-
BRDA:9,4294967295,1,-
BRDA:9,4294967295,2,-
BRDA:12,4294967295,2,-
BRDA:12,4294967295,3,-
BRDA:13,0,5,-
BRDA:13,0,6,-
BRDA:19,0,1,-
BRDA:19,0,2,-
BRDA:19,1,5,-
BRDA:19,1,6,-
BRDA:25,0,1,-
BRDA:25,0,2,-
BRDA:26,4294967295,2,-
BRDA:26,4294967295,3,-
BRDA:27,0,1,-
BRDA:27,0,2,-
BRDA:34,0,1,-
BRDA:34,0,2,-
BRDA:35,4294967295,2,-
BRDA:35,4294967295,3,-
BRDA:36,0,1,-
BRDA:36,0,2,-
BRDA:39,0,3,-
BRDA:39,0,4,-
BRDA:40,4294967295,1,-
BRDA:40,4294967295,2,-
BRDA:43,4294967295,2,-
BRDA:43,4294967295,3,-
BRDA:44,0,5,-
BRDA:44,0,6,-
BRDA:49,0,1,-
BRDA:49,0,2,-
BRDA:50,4294967295,2,-
BRDA:50,4294967295,3,-
BRDA:51,0,1,-
BRDA:51,0,2,-
BRDA:51,1,6,-
BRDA:51,1,7,-
BRDA:51,2,11,-
BRDA:51,2,12,-
BRF:44
BRH:0
DA:4,0
DA:5,0
DA:7,0
DA:8,0
DA:9,0
DA:10,0
DA:11,0
DA:12,0
DA:13,0
DA:15,0
DA:18,0
DA:19,0
DA:20,0
DA:24,0
DA:25,0
DA:26,0
DA:27,0
DA:29,0
DA:33,0
DA:34,0
DA:35,0
DA:36,0
DA:37,0
DA:39,0
DA:40,0
DA:41,0
DA:42,0
DA:43,0
DA:44,0
DA:48,0
DA:49,0
DA:50,0
DA:51,0
DA:53,0
LF:34
LH:0
end_of_record
TN:
SF:/SharedWithWindows/Projects/diginstrument/inc/ConsolidationMethods.h
FN:19,_ZN13Consolidation12AccumulationIiED2Ev
FN:19,_ZN13Consolidation12AccumulationIfED2Ev
FN:19,_ZN13Consolidation12AccumulationIfED0Ev
FN:19,_ZN13Consolidation12AccumulationIiED0Ev
FN:35,_ZN13Consolidation14MultiplicationIiED0Ev
FN:35,_ZN13Consolidation14MultiplicationIfED0Ev
FN:35,_ZN13Consolidation14MultiplicationIiED2Ev
FN:35,_ZN13Consolidation14MultiplicationIfED2Ev
FNDA:0,_ZN13Consolidation12AccumulationIfED0Ev
FNDA:0,_ZN13Consolidation12AccumulationIfED2Ev
FNDA:0,_ZN13Consolidation12AccumulationIiED0Ev
FNDA:0,_ZN13Consolidation12AccumulationIiED2Ev
FNDA:0,_ZN13Consolidation14MultiplicationIfED0Ev
FNDA:0,_ZN13Consolidation14MultiplicationIfED2Ev
FNDA:0,_ZN13Consolidation14MultiplicationIiED0Ev
FNDA:0,_ZN13Consolidation14MultiplicationIiED2Ev
FNF:8
FNH:0
DA:19,0
DA:35,0
LF:2
LH:0
end_of_record
SF:/SharedWithWindows/Projects/diginstrument/inc/iConsolidationMethod.h
FN:41,_ZN8DataFlow20iConsolidationMethodIiED2Ev
FN:41,_ZN8DataFlow20iConsolidationMethodIfED2Ev
FN:41,_ZN8DataFlow20iConsolidationMethodIiED0Ev
FN:41,_ZN8DataFlow20iConsolidationMethodIfED0Ev
FNDA:0,_ZN8DataFlow20iConsolidationMethodIfED0Ev
FNDA:0,_ZN8DataFlow20iConsolidationMethodIfED2Ev
FNDA:0,_ZN8DataFlow20iConsolidationMethodIiED0Ev
FNDA:0,_ZN8DataFlow20iConsolidationMethodIiED2Ev
FNF:4
FNH:0
DA:41,0
LF:1
LH:0
end_of_record
SF:/SharedWithWindows/Projects/diginstrument/src/consolidation_methods.cpp
FN:4,_ZN13Consolidation12AccumulationIiE4initERKSt6vectorIiSaIiEE
FN:4,_ZN13Consolidation12AccumulationIfE4initERKSt6vectorIfSaIfEE
FN:10,_ZN13Consolidation12AccumulationIiE3addERKSt6vectorIiSaIiEE
FN:10,_ZN13Consolidation12AccumulationIfE3addERKSt6vectorIfSaIfEE
FN:17,_ZN13Consolidation12AccumulationIiE3getEv
FN:17,_ZN13Consolidation12AccumulationIfE3getEv
FN:25,_ZN13Consolidation14MultiplicationIiE4initERKSt6vectorIiSaIiEE
FN:25,_ZN13Consolidation14MultiplicationIfE4initERKSt6vectorIfSaIfEE
FN:31,_ZN13Consolidation14MultiplicationIiE3addERKSt6vectorIiSaIiEE
FN:31,_ZN13Consolidation14MultiplicationIfE3addERKSt6vectorIfSaIfEE
FN:38,_ZN13Consolidation14MultiplicationIfE3getEv
FN:38,_ZN13Consolidation14MultiplicationIiE3getEv
FNDA:0,_ZN13Consolidation12AccumulationIiE4initERKSt6vectorIiSaIiEE
FNDA:0,_ZN13Consolidation12AccumulationIfE4initERKSt6vectorIfSaIfEE
FNDA:0,_ZN13Consolidation12AccumulationIiE3addERKSt6vectorIiSaIiEE
FNDA:0,_ZN13Consolidation12AccumulationIfE3addERKSt6vectorIfSaIfEE
FNDA:0,_ZN13Consolidation12AccumulationIiE3getEv
FNDA:0,_ZN13Consolidation12AccumulationIfE3getEv
FNDA:0,_ZN13Consolidation14MultiplicationIiE4initERKSt6vectorIiSaIiEE
FNDA:0,_ZN13Consolidation14MultiplicationIfE4initERKSt6vectorIfSaIfEE
FNDA:0,_ZN13Consolidation14MultiplicationIiE3addERKSt6vectorIiSaIiEE
FNDA:0,_ZN13Consolidation14MultiplicationIfE3addERKSt6vectorIfSaIfEE
FNDA:0,_ZN13Consolidation14MultiplicationIiE3getEv
FNDA:0,_ZN13Consolidation14MultiplicationIfE3getEv
FNF:12
FNH:0
BRDA:11,1,1,-
BRDA:11,1,2,-
BRDA:11,3,4,-
BRDA:11,3,5,-
BRDA:32,1,1,-
BRDA:32,1,2,-
BRDA:32,3,4,-
BRDA:32,3,5,-
BRF:8
BRH:0
DA:4,0
DA:5,0
DA:6,0
DA:10,0
DA:11,0
DA:12,0
DA:14,0
DA:17,0
DA:18,0
DA:25,0
DA:26,0
DA:27,0
DA:31,0
DA:32,0
DA:33,0
DA:35,0
DA:38,0
DA:39,0
LF:18
LH:0
end_of_record
TN:
SF:/SharedWithWindows/Projects/diginstrument/inc/Multiplexer.h
FN:17,_ZN5Mixer11MultiplexerIfED2Ev
FN:17,_ZN5Mixer11MultiplexerIfED0Ev
FN:48,_ZN5Mixer11MultiplexerIfE15setChannelCountEj
FN:58,_ZN5Mixer11MultiplexerIfE15getChannelCountEv
FN:66,_ZN5Mixer11MultiplexerIfE5clearEv
FN:76,_ZN5Mixer11MultiplexerIfEC2Ej
FN:82,_ZN5Mixer11MultiplexerIfEC2Ev
FNDA:0,_ZN5Mixer11MultiplexerIfED0Ev
FNDA:0,_ZN5Mixer11MultiplexerIfED2Ev
FNDA:0,_ZN5Mixer11MultiplexerIfE15setChannelCountEj
FNDA:0,_ZN5Mixer11MultiplexerIfE15getChannelCountEv
FNDA:0,_ZN5Mixer11MultiplexerIfE5clearEv
FNDA:0,_ZN5Mixer11MultiplexerIfEC2Ej
FNDA:0,_ZN5Mixer11MultiplexerIfEC2Ev
FNF:7
FNH:0
DA:17,0
DA:48,0
DA:49,0
DA:50,0
DA:58,0
DA:59,0
DA:66,0
DA:67,0
DA:68,0
DA:76,0
DA:82,0
LF:11
LH:0
end_of_record
SF:/SharedWithWindows/Projects/diginstrument/inc/iSource.h
FN:15,_ZN8DataFlow7iSourceIfEC2Ev
FN:28,_ZN8DataFlow7iSourceIfED2Ev
FN:28,_ZN8DataFlow7iSourceIfED0Ev
FNDA:0,_ZN8DataFlow7iSourceIfEC2Ev
FNDA:0,_ZN8DataFlow7iSourceIfED0Ev
FNDA:0,_ZN8DataFlow7iSourceIfED2Ev
FNF:3
FNH:0
DA:15,0
DA:28,0
LF:2
LH:0
end_of_record
SF:/SharedWithWindows/Projects/diginstrument/src/multiplexer.cpp
FN:4,_ZN5Mixer11MultiplexerIfE3getERKj
FN:26,_ZN5Mixer11MultiplexerIfE12clearChannelERKj
FN:34,_ZN5Mixer11MultiplexerIfE10setChannelERKjRN8DataFlow7iSourceIfEE
FNDA:0,_ZN5Mixer11MultiplexerIfE3getERKj
FNDA:0,_ZN5Mixer11MultiplexerIfE12clearChannelERKj
FNDA:0,_ZN5Mixer11MultiplexerIfE10setChannelERKjRN8DataFlow7iSourceIfEE
FNF:3
FNH:0
BRDA:6,4294967295,1,-
BRDA:6,4294967295,2,-
BRDA:8,0,1,-
BRDA:8,0,2,-
BRDA:8,1,3,-
BRDA:8,1,4,-
BRDA:9,0,1,-
BRDA:9,0,2,-
BRDA:10,4294967295,2,-
BRDA:10,4294967295,3,-
BRDA:11,0,2,-
BRDA:11,0,3,-
BRDA:11,1,5,-
BRDA:11,1,6,-
BRDA:11,2,8,-
BRDA:11,2,9,-
BRDA:14,0,1,-
BRDA:14,0,2,-
BRDA:14,1,4,-
BRDA:14,1,5,-
BRDA:14,2,7,-
BRDA:14,2,8,-
BRDA:14,3,10,-
BRDA:14,3,11,-
BRDA:17,1,1,-
BRDA:17,1,2,-
BRDA:17,2,3,-
BRDA:17,2,4,-
BRDA:18,1,1,-
BRDA:18,1,2,-
BRDA:18,2,3,-
BRDA:18,2,4,-
BRDA:19,0,3,-
BRDA:19,0,4,-
BRDA:27,0,1,-
BRDA:27,0,2,-
BRDA:28,4294967295,2,-
BRDA:28,4294967295,3,-
BRDA:29,0,2,-
BRDA:29,0,3,-
BRF:40
BRH:0
DA:4,0
DA:5,0
DA:6,0
DA:7,0
DA:8,0
DA:9,0
DA:10,0
DA:11,0
DA:14,0
DA:17,0
DA:18,0
DA:19,0
DA:22,0
DA:26,0
DA:27,0
DA:28,0
DA:29,0
DA:31,0
DA:34,0
DA:35,0
DA:36,0
LF:21
LH:0
end_of_record
TN:
SF:/SharedWithWindows/Projects/diginstrument/inc/iSource.h
FN:15,_ZN8DataFlow7iSourceIfEC2Ev
FN:28,_ZN8DataFlow7iSourceIfED0Ev
FN:28,_ZN8DataFlow7iSourceIfED2Ev
FNDA:0,_ZN8DataFlow7iSourceIfEC2Ev
FNDA:0,_ZN8DataFlow7iSourceIfED0Ev
FNDA:0,_ZN8DataFlow7iSourceIfED2Ev
FNF:3
FNH:0
DA:15,0
DA:28,0
LF:2
LH:0
end_of_record
SF:/SharedWithWindows/Projects/diginstrument/src/ogg_file_loader.cpp
FN:6,_ZN13OggFileLoaderIf13VorbisDecoderE10getDecoderEv
FN:11,_ZN13OggFileLoaderIf13VorbisDecoderE4initEv
FN:22,_ZN13OggFileLoaderIf13VorbisDecoderE10initStreamER8ogg_page
FN:34,_ZN13OggFileLoaderIf13VorbisDecoderE4readEv
FN:44,_ZN13OggFileLoaderIf13VorbisDecoderE12readNextPageEv
FN:56,_ZN13OggFileLoaderIf13VorbisDecoderE8nextPageEv
FN:71,_ZN13OggFileLoaderIf13VorbisDecoderE10nextPacketEv
FN:85,_ZN13OggFileLoaderIf13VorbisDecoderE3getERKj
FN:114,_ZN13OggFileLoaderIf13VorbisDecoderE4openERKNSt7__cxx1112basic_stringIcSt11char_traitsIcESaIcEEE
FN:127,_ZN13OggFileLoaderIf13VorbisDecoderE5closeEv
FN:135,_ZN13OggFileLoaderIf13VorbisDecoderE5clearEv
FN:144,_ZN13OggFileLoaderIf13VorbisDecoderEC2Ev
FN:150,_ZN13OggFileLoaderIf13VorbisDecoderED2Ev
FN:150,_ZN13OggFileLoaderIf13VorbisDecoderED0Ev
FNDA:0,_ZN13OggFileLoaderIf13VorbisDecoderE10getDecoderEv
FNDA:0,_ZN13OggFileLoaderIf13VorbisDecoderE4initEv
FNDA:0,_ZN13OggFileLoaderIf13VorbisDecoderE10initStreamER8ogg_page
FNDA:0,_ZN13OggFileLoaderIf13VorbisDecoderE4readEv
FNDA:0,_ZN13OggFileLoaderIf13VorbisDecoderE12readNextPageEv
FNDA:0,_ZN13OggFileLoaderIf13VorbisDecoderE8nextPageEv
FNDA:0,_ZN13OggFileLoaderIf13VorbisDecoderE10nextPacketEv
FNDA:0,_ZN13OggFileLoaderIf13VorbisDecoderE3getERKj
FNDA:0,_ZN13OggFileLoaderIf13VorbisDecoderE4openERKNSt7__cxx1112basic_stringIcSt11char_traitsIcESaIcEEE
FNDA:0,_ZN13OggFileLoaderIf13VorbisDecoderE5closeEv
FNDA:0,_ZN13OggFileLoaderIf13VorbisDecoderE5clearEv
FNDA:0,_ZN13OggFileLoaderIf13VorbisDecoderEC2Ev
FNDA:0,_ZN13OggFileLoaderIf13VorbisDecoderED0Ev
FNDA:0,_ZN13OggFileLoaderIf13VorbisDecoderED2Ev
FNF:14
FNH:0
BRDA:13,1,0,-
BRDA:13,1,1,-
BRDA:25,4294967295,0,-
BRDA:25,4294967295,1,-
BRDA:47,0,0,-
BRDA:47,0,1,-
BRDA:47,1,2,-
BRDA:47,1,3,-
BRDA:49,0,1,-
BRDA:49,0,2,-
BRDA:59,4294967295,0,-
BRDA:59,4294967295,1,-
BRDA:63,0,0,-
BRDA:63,0,1,-
BRDA:73,0,0,-
BRDA:73,0,1,-
BRDA:76,0,0,-
BRDA:76,0,1,-
BRDA:76,1,2,-
BRDA:76,1,3,-
BRDA:88,4294967295,1,-
BRDA:88,4294967295,2,-
BRDA:90,0,0,-
BRDA:90,0,1,-
BRDA:92,0,1,-
BRDA:92,0,2,-
BRDA:94,4294967295,9,-
BRDA:94,4294967295,10,-
BRDA:96,0,7,-
BRDA:96,0,8,-
BRDA:99,0,1,-
BRDA:99,0,2,-
BRDA:100,0,0,-
BRDA:100,0,1,-
BRDA:104,0,1,-
BRDA:104,0,2,-
BRDA:106,4294967295,9,-
BRDA:106,4294967295,10,-
BRDA:108,0,7,-
BRDA:108,0,8,-
BRDA:117,4294967295,1,-
BRDA:117,4294967295,2,-
BRDA:137,0,0,-
BRDA:137,0,1,-
BRDA:144,1,2,-
BRDA:144,1,3,-
BRDA:144,2,5,-
BRDA:144,2,6,-
BRDA:146,4294967295,1,-
BRDA:146,4294967295,2,-
BRDA:152,0,1,-
BRDA:152,0,2,-
BRF:52
BRH:0
DA:6,0
DA:7,0
DA:11,0
DA:13,0
DA:15,0
DA:16,0
DA:18,0
DA:22,0
DA:24,0
DA:25,0
DA:28,0
DA:30,0
DA:31,0
DA:34,0
DA:36,0
DA:37,0
DA:38,0
DA:39,0
DA:40,0
DA:44,0
DA:46,0
DA:47,0
DA:49,0
DA:50,0
DA:52,0
DA:56,0
DA:58,0
DA:59,0
DA:61,0
DA:63,0
DA:65,0
DA:67,0
DA:71,0
DA:73,0
DA:74,0
DA:75,0
DA:76,0
DA:78,0
DA:79,0
DA:81,0
DA:85,0
DA:87,0
DA:88,0
DA:89,0
DA:90,0
DA:92,0
DA:93,0
DA:94,0
DA:95,0
DA:96,0
DA:97,0
DA:99,0
DA:100,0
DA:101,0
DA:102,0
DA:104,0
DA:105,0
DA:106,0
DA:107,0
DA:108,0
DA:110,0
DA:114,0
DA:116,0
DA:117,0
DA:120,0
DA:122,0
DA:123,0
DA:127,0
DA:129,0
DA:130,0
DA:131,0
DA:135,0
DA:137,0
DA:138,0
DA:140,0
DA:141,0
DA:144,0
DA:146,0
DA:147,0
DA:150,0
DA:152,0
DA:154,0
DA:156,0
DA:157,0
LF:84
LH:0
end_of_record
TN:
SF:/SharedWithWindows/Projects/diginstrument/inc/Pattern.h
FN:23,_ZN11Composition7PatternltERS0_
FN:39,_ZNK11Composition4Note9getLengthEv
FN:40,_ZNK11Composition4Note7getNameB5cxx11Ev
FNDA:27,_ZN11Composition7PatternltERS0_
FNDA:15,_ZNK11Composition4Note9getLengthEv
FNDA:14,_ZNK11Composition4Note7getNameB5cxx11Ev
FNF:3
FNH:3
DA:23,27
DA:24,27
DA:39,30
DA:40,28
LF:4
LH:4
end_of_record
SF:/SharedWithWindows/Projects/diginstrument/src/pattern.cpp
FN:3,_ZN11Composition7Pattern18flattenPatternIntoERSt8multisetISt4pairIfNSt7__cxx1112basic_stringIcSt11char_traitsIcESaIcEEEESt4lessIS9_ESaIS9_EEf
FN:11,_ZN11Composition4Note18flattenPatternIntoERSt8multisetISt4pairIfNSt7__cxx1112basic_stringIcSt11char_traitsIcESaIcEEEESt4lessIS9_ESaIS9_EEf
FN:16,_ZN11Composition7Pattern9serializeB5cxx11Ev
FN:23,_ZNK11Composition7Pattern9getLengthEv
FN:35,_ZN11Composition7Pattern3addERS0_f
FN:40,_ZN11Composition7Pattern6removeERS0_f
FNDA:7,_ZN11Composition7Pattern18flattenPatternIntoERSt8multisetISt4pairIfNSt7__cxx1112basic_stringIcSt11char_traitsIcESaIcEEEESt4lessIS9_ESaIS9_EEf
FNDA:14,_ZN11Composition4Note18flattenPatternIntoERSt8multisetISt4pairIfNSt7__cxx1112basic_stringIcSt11char_traitsIcESaIcEEEESt4lessIS9_ESaIS9_EEf
FNDA:3,_ZN11Composition7Pattern9serializeB5cxx11Ev
FNDA:6,_ZNK11Composition7Pattern9getLengthEv
FNDA:36,_ZN11Composition7Pattern3addERS0_f
FNDA:5,_ZN11Composition7Pattern6removeERS0_f
FNF:6
FNH:6
BRDA:5,1,5,18
BRDA:5,1,6,7
BRDA:7,4294967295,1,18
BRDA:7,4294967295,2,0
BRDA:13,0,3,14
BRDA:13,0,4,0
BRDA:19,4294967295,1,3
BRDA:19,4294967295,2,0
BRDA:20,0,6,3
BRDA:20,0,7,0
BRDA:26,1,5,19
BRDA:26,1,6,6
BRDA:27,4294967295,1,19
BRDA:27,4294967295,2,0
BRDA:28,0,0,11
BRDA:28,0,1,8
BRDA:37,0,3,36
BRDA:37,0,4,0
BRDA:42,0,3,5
BRDA:42,0,4,0
BRDA:43,4294967295,2,5
BRDA:43,4294967295,3,0
BRDA:45,0,2,5
BRDA:45,0,3,0
BRF:24
BRH:15
DA:3,7
DA:5,25
DA:7,18
DA:9,7
DA:11,14
DA:13,14
DA:14,14
DA:16,3
DA:18,6
DA:19,3
DA:20,6
DA:23,6
DA:25,6
DA:26,25
DA:27,19
DA:28,19
DA:29,11
DA:32,6
DA:35,36
DA:37,36
DA:38,36
DA:40,5
DA:42,5
DA:43,5
DA:45,5
DA:46,5
DA:48,5
LF:27
LH:27
end_of_record
TN:
SF:/SharedWithWindows/Projects/diginstrument/inc/PortAudioBackend.h
FN:26,_ZN5Mixer16PortAudioBackendIfED2Ev
FN:26,_ZN5Mixer16PortAudioBackendIfED0Ev
FNDA:0,_ZN5Mixer16PortAudioBackendIfED0Ev
FNDA:0,_ZN5Mixer16PortAudioBackendIfED2Ev
FNF:2
FNH:0
DA:26,0
LF:1
LH:0
end_of_record
SF:/SharedWithWindows/Projects/diginstrument/inc/iAudioBackend.h
FN:27,_ZN5Mixer13iAudioBackendIfED0Ev
FN:27,_ZN5Mixer13iAudioBackendIfED2Ev
FNDA:0,_ZN5Mixer13iAudioBackendIfED0Ev
FNDA:0,_ZN5Mixer13iAudioBackendIfED2Ev
FNF:2
FNH:0
DA:27,0
LF:1
LH:0
end_of_record
SF:/SharedWithWindows/Projects/diginstrument/src/portaudio_backend.cpp
FN:4,_Z16Pa_error_occurediNSt7__cxx1112basic_stringIcSt11char_traitsIcESaIcEEE
FN:15,_ZN5Mixer16PortAudioBackendIfE5startEv
FN:38,_ZN5Mixer16PortAudioBackendIfE4stopEv
FN:60,_ZN5Mixer16PortAudioBackendIfE5closeEv
FN:79,_ZN5Mixer16PortAudioBackendIfE4initERN8DataFlow7iSourceIfEERKjS7_
FN:132,_ZN5Mixer16PortAudioBackendIfE16callbackFunctionEPKvPvmPK24PaStreamCallbackTimeInfomS4_
FN:148,_Z41__static_initialization_and_destruction_0ii
FN:148,_GLOBAL__sub_I__Z16Pa_error_occurediNSt7__cxx1112basic_stringIcSt11char_traitsIcESaIcEEE
FNDA:0,_Z16Pa_error_occurediNSt7__cxx1112basic_stringIcSt11char_traitsIcESaIcEEE
FNDA:0,_ZN5Mixer16PortAudioBackendIfE5startEv
FNDA:0,_ZN5Mixer16PortAudioBackendIfE4stopEv
FNDA:0,_ZN5Mixer16PortAudioBackendIfE5closeEv
FNDA:0,_ZN5Mixer16PortAudioBackendIfE4initERN8DataFlow7iSourceIfEERKjS7_
FNDA:0,_ZN5Mixer16PortAudioBackendIfE16callbackFunctionEPKvPvmPK24PaStreamCallbackTimeInfomS4_
FNDA:2,_GLOBAL__sub_I__Z16Pa_error_occurediNSt7__cxx1112basic_stringIcSt11char_traitsIcESaIcEEE
FNDA:2,_Z41__static_initialization_and_destruction_0ii
FNF:8
FNH:2
BRDA:17,0,0,-
BRDA:17,0,1,-
BRDA:21,0,1,-
BRDA:21,0,2,-
BRDA:26,4294967295,0,-
BRDA:26,4294967295,1,-
BRDA:29,0,2,-
BRDA:29,0,3,-
BRDA:29,1,6,-
BRDA:29,1,7,-
BRDA:40,0,0,-
BRDA:40,0,1,-
BRDA:44,0,1,-
BRDA:44,0,2,-
BRDA:49,4294967295,0,-
BRDA:49,4294967295,1,-
BRDA:52,0,2,-
BRDA:52,0,3,-
BRDA:52,1,6,-
BRDA:52,1,7,-
BRDA:62,0,0,-
BRDA:62,0,1,-
BRDA:67,4294967295,0,-
BRDA:67,4294967295,1,-
BRDA:70,0,2,-
BRDA:70,0,3,-
BRDA:70,1,6,-
BRDA:70,1,7,-
BRDA:85,0,1,-
BRDA:85,0,2,-
BRDA:86,0,0,-
BRDA:86,0,1,-
BRDA:89,0,2,-
BRDA:89,0,3,-
BRDA:89,1,6,-
BRDA:89,1,7,-
BRDA:94,0,1,-
BRDA:94,0,2,-
BRDA:95,0,0,-
BRDA:95,0,1,-
BRDA:97,0,0,-
BRDA:97,0,1,-
BRDA:100,0,2,-
BRDA:100,0,3,-
BRDA:100,1,6,-
BRDA:100,1,7,-
BRDA:107,0,1,-
BRDA:107,0,2,-
BRDA:110,0,1,-
BRDA:110,0,2,-
BRDA:120,0,0,-
BRDA:120,0,1,-
BRDA:123,0,2,-
BRDA:123,0,3,-
BRDA:123,1,6,-
BRDA:123,1,7,-
BRDA:143,0,1,-
BRDA:143,0,2,-
BRDA:144,4294967295,5,-
BRDA:144,4294967295,6,-
BRDA:148,3,1,2
BRDA:148,3,2,0
BRDA:148,4,3,2
BRDA:148,4,4,0
BRF:64
BRH:2
DA:4,0
DA:6,0
DA:7,0
DA:8,0
DA:9,0
DA:10,0
DA:11,0
DA:15,0
DA:17,0
DA:19,0
DA:21,0
DA:23,0
DA:25,0
DA:26,0
DA:29,0
DA:31,0
DA:34,0
DA:38,0
DA:40,0
DA:42,0
DA:44,0
DA:46,0
DA:48,0
DA:49,0
DA:52,0
DA:54,0
DA:56,0
DA:60,0
DA:62,0
DA:64,0
DA:66,0
DA:67,0
DA:70,0
DA:72,0
DA:74,0
DA:79,0
DA:81,0
DA:85,0
DA:86,0
DA:89,0
DA:91,0
DA:94,0
DA:95,0
DA:97,0
DA:100,0
DA:102,0
DA:105,0
DA:106,0
DA:107,0
DA:108,0
DA:110,0
DA:114,0
DA:118,0
DA:120,0
DA:123,0
DA:125,0
DA:127,0
DA:132,0
DA:139,0
DA:140,0
DA:143,0
DA:144,0
DA:145,0
DA:148,8
LF:64
LH:1
end_of_record
TN:
SF:/SharedWithWindows/Projects/diginstrument/inc/QueueBuffer.h
FN:13,_ZN8DataFlow11QueueBufferIfED0Ev
FN:13,_ZN8DataFlow11QueueBufferIfED2Ev
FNDA:0,_ZN8DataFlow11QueueBufferIfED0Ev
FNDA:0,_ZN8DataFlow11QueueBufferIfED2Ev
FNF:2
FNH:0
DA:13,0
LF:1
LH:0
end_of_record
SF:/SharedWithWindows/Projects/diginstrument/inc/iBuffer.h
FN:23,_ZN8DataFlow7iBufferIfED2Ev
FN:23,_ZN8DataFlow7iBufferIfED0Ev
FNDA:0,_ZN8DataFlow7iBufferIfED0Ev
FNDA:0,_ZN8DataFlow7iBufferIfED2Ev
FNF:2
FNH:0
DA:23,0
LF:1
LH:0
end_of_record
SF:/SharedWithWindows/Projects/diginstrument/inc/iSource.h
FN:28,_ZN8DataFlow7iSourceIfED0Ev
FN:28,_ZN8DataFlow7iSourceIfED2Ev
FNDA:0,_ZN8DataFlow7iSourceIfED0Ev
FNDA:0,_ZN8DataFlow7iSourceIfED2Ev
FNF:2
FNH:0
DA:28,0
LF:1
LH:0
end_of_record
SF:/SharedWithWindows/Projects/diginstrument/src/queue_buffer.cpp
FN:4,_ZN8DataFlow11QueueBufferIfE3getERKj
FN:16,_ZN8DataFlow11QueueBufferIfE3getEv
FN:23,_ZN8DataFlow11QueueBufferIfE3putESt6vectorIfSaIfEE
FN:30,_ZN8DataFlow11QueueBufferIfE3putEf
FN:35,_ZN8DataFlow11QueueBufferIfE5clearEv
FN:41,_ZN8DataFlow11QueueBufferIfE4sizeEv
FNDA:0,_ZN8DataFlow11QueueBufferIfE3getERKj
FNDA:0,_ZN8DataFlow11QueueBufferIfE3getEv
FNDA:0,_ZN8DataFlow11QueueBufferIfE3putESt6vectorIfSaIfEE
FNDA:0,_ZN8DataFlow11QueueBufferIfE3putEf
FNDA:0,_ZN8DataFlow11QueueBufferIfE5clearEv
FNDA:0,_ZN8DataFlow11QueueBufferIfE4sizeEv
FNF:6
FNH:0
BRDA:6,4294967295,1,-
BRDA:6,4294967295,2,-
BRDA:7,1,0,-
BRDA:7,1,1,-
BRDA:8,0,1,-
BRDA:8,0,2,-
BRDA:9,0,2,-
BRDA:9,0,3,-
BRDA:24,1,5,-
BRDA:24,1,6,-
BRDA:25,4294967295,2,-
BRDA:25,4294967295,3,-
BRDA:36,0,1,-
BRDA:36,0,2,-
BRDA:36,1,4,-
BRDA:36,1,5,-
BRF:16
BRH:0
DA:4,0
DA:5,0
DA:6,0
DA:7,0
DA:8,0
DA:9,0
DA:10,0
DA:12,0
DA:16,0
DA:17,0
DA:18,0
DA:19,0
DA:23,0
DA:24,0
DA:25,0
DA:27,0
DA:30,0
DA:31,0
DA:32,0
DA:35,0
DA:36,0
DA:37,0
DA:38,0
DA:41,0
DA:42,0
LF:25
LH:0
end_of_record
TN:
SF:/SharedWithWindows/Projects/diginstrument/inc/AudioSource.h
FN:23,_ZNK5Mixer11AudioSource11getChannelsEv
FN:30,_ZNK5Mixer11AudioSource13getSampleRateEv
FN:33,_ZN5Mixer11AudioSourceC2ERKjS2_
FNDA:0,_ZNK5Mixer11AudioSource11getChannelsEv
FNDA:0,_ZNK5Mixer11AudioSource13getSampleRateEv
FNDA:0,_ZN5Mixer11AudioSourceC2ERKjS2_
FNF:3
FNH:0
DA:23,0
DA:30,0
DA:33,0
LF:3
LH:0
end_of_record
SF:/SharedWithWindows/Projects/diginstrument/inc/Recorder.h
FN:53,_ZN5Mixer8RecorderIfE6attachERN8DataFlow7iBufferIfEE
FN:65,_ZN5Mixer8RecorderIfEC2ERKjS3_
FNDA:0,_ZN5Mixer8RecorderIfE6attachERN8DataFlow7iBufferIfEE
FNDA:0,_ZN5Mixer8RecorderIfEC2ERKjS3_
FNF:2
FNH:0
DA:53,0
DA:54,0
DA:55,0
DA:65,0
LF:4
LH:0
end_of_record
SF:/SharedWithWindows/Projects/diginstrument/src/recorder.cpp
FN:4,_Z29Pa_error_occured_during_inputiNSt7__cxx1112basic_stringIcSt11char_traitsIcESaIcEEE
FN:16,_ZN5Mixer8RecorderIfE6recordERKfb
FN:89,_ZN5Mixer8RecorderIfE16callbackFunctionEPKvPvmPK24PaStreamCallbackTimeInfomS4_
FN:112,_GLOBAL__sub_I__Z29Pa_error_occured_during_inputiNSt7__cxx1112basic_stringIcSt11char_traitsIcESaIcEEE
FN:112,_Z41__static_initialization_and_destruction_0ii
FNDA:0,_Z29Pa_error_occured_during_inputiNSt7__cxx1112basic_stringIcSt11char_traitsIcESaIcEEE
FNDA:0,_ZN5Mixer8RecorderIfE6recordERKfb
FNDA:0,_ZN5Mixer8RecorderIfE16callbackFunctionEPKvPvmPK24PaStreamCallbackTimeInfomS4_
FNDA:2,_GLOBAL__sub_I__Z29Pa_error_occured_during_inputiNSt7__cxx1112basic_stringIcSt11char_traitsIcESaIcEEE
FNDA:2,_Z41__static_initialization_and_destruction_0ii
FNF:5
FNH:2
BRDA:20,0,1,-
BRDA:20,0,2,-
BRDA:21,0,0,-
BRDA:21,0,1,-
BRDA:24,0,2,-
BRDA:24,0,3,-
BRDA:24,1,6,-
BRDA:24,1,7,-
BRDA:30,0,1,-
BRDA:30,0,2,-
BRDA:31,0,0,-
BRDA:31,0,1,-
BRDA:33,0,2,-
BRDA:33,0,3,-
BRDA:33,1,6,-
BRDA:33,1,7,-
BRDA:39,0,1,-
BRDA:39,0,2,-
BRDA:43,0,0,-
BRDA:43,0,1,-
BRDA:55,4294967295,1,-
BRDA:55,4294967295,2,-
BRDA:57,0,0,-
BRDA:57,0,1,-
BRDA:60,0,2,-
BRDA:60,0,3,-
BRDA:60,1,6,-
BRDA:60,1,7,-
BRDA:64,0,1,-
BRDA:64,0,2,-
BRDA:65,0,0,-
BRDA:65,0,1,-
BRDA:67,0,2,-
BRDA:67,0,3,-
BRDA:67,1,6,-
BRDA:67,1,7,-
BRDA:72,0,1,-
BRDA:72,0,2,-
BRDA:72,1,5,-
BRDA:72,1,6,-
BRDA:73,0,2,-
BRDA:73,0,3,-
BRDA:76,0,1,-
BRDA:76,0,2,-
BRDA:77,0,0,-
BRDA:77,0,1,-
BRDA:79,0,2,-
BRDA:79,0,3,-
BRDA:79,1,6,-
BRDA:79,1,7,-
BRDA:83,0,1,-
BRDA:83,0,2,-
BRDA:101,4294967295,2,-
BRDA:101,4294967295,3,-
BRDA:102,1,0,-
BRDA:102,1,1,-
BRDA:103,1,1,-
BRDA:103,1,2,-
BRDA:104,0,1,-
BRDA:104,0,2,-
BRDA:107,0,1,-
BRDA:107,0,2,-
BRDA:107,1,4,-
BRDA:107,1,5,-
BRDA:112,3,1,2
BRDA:112,3,2,0
BRDA:112,4,3,2
BRDA:112,4,4,0
BRF:68
BRH:2
DA:4,0
DA:6,0
DA:7,0
DA:8,0
DA:9,0
DA:10,0
DA:11,0
DA:16,0
DA:20,0
DA:21,0
DA:24,0
DA:26,0
DA:30,0
DA:31,0
DA:33,0
DA:35,0
DA:37,0
DA:38,0
DA:39,0
DA:40,0
DA:42,0
DA:43,0
DA:44,0
DA:47,0
DA:51,0
DA:55,0
DA:57,0
DA:60,0
DA:62,0
DA:64,0
DA:65,0
DA:67,0
DA:69,0
DA:72,0
DA:73,0
DA:76,0
DA:77,0
DA:79,0
DA:81,0
DA:83,0
DA:84,0
DA:89,0
DA:96,0
DA:97,0
DA:100,0
DA:101,0
DA:102,0
DA:103,0
DA:104,0
DA:107,0
DA:109,0
DA:112,8
LF:52
LH:1
end_of_record
TN:
SF:/SharedWithWindows/Projects/diginstrument/inc/RepeatingBuffer.h
FN:15,_ZN8DataFlow15RepeatingBufferIfED2Ev
FN:15,_ZN8DataFlow15RepeatingBufferIiED2Ev
FN:15,_ZN8DataFlow15RepeatingBufferIiED0Ev
FN:15,_ZN8DataFlow15RepeatingBufferIfED0Ev
FN:46,_ZN8DataFlow15RepeatingBufferIiEC2Ev
FN:46,_ZN8DataFlow15RepeatingBufferIfEC2Ev
FNDA:0,_ZN8DataFlow15RepeatingBufferIfED0Ev
FNDA:0,_ZN8DataFlow15RepeatingBufferIfED2Ev
FNDA:0,_ZN8DataFlow15RepeatingBufferIiED0Ev
FNDA:0,_ZN8DataFlow15RepeatingBufferIiED2Ev
FNDA:0,_ZN8DataFlow15RepeatingBufferIiEC2Ev
FNDA:0,_ZN8DataFlow15RepeatingBufferIfEC2Ev
FNF:6
FNH:0
DA:15,0
DA:46,0
LF:2
LH:0
end_of_record
SF:/SharedWithWindows/Projects/diginstrument/inc/iBuffer.h
FN:11,_ZN8DataFlow7iBufferIfEC2Ev
FN:11,_ZN8DataFlow7iBufferIiEC2Ev
FN:23,_ZN8DataFlow7iBufferIiED2Ev
FN:23,_ZN8DataFlow7iBufferIfED2Ev
FN:23,_ZN8DataFlow7iBufferIiED0Ev
FN:23,_ZN8DataFlow7iBufferIfED0Ev
FNDA:0,_ZN8DataFlow7iBufferIiEC2Ev
FNDA:0,_ZN8DataFlow7iBufferIfEC2Ev
FNDA:0,_ZN8DataFlow7iBufferIiED0Ev
FNDA:0,_ZN8DataFlow7iBufferIiED2Ev
FNDA:0,_ZN8DataFlow7iBufferIfED0Ev
FNDA:0,_ZN8DataFlow7iBufferIfED2Ev
FNF:6
FNH:0
DA:11,0
DA:23,0
LF:2
LH:0
end_of_record
SF:/SharedWithWindows/Projects/diginstrument/inc/iSource.h
FN:15,_ZN8DataFlow7iSourceIfEC2Ev
FN:15,_ZN8DataFlow7iSourceIiEC2Ev
FN:28,_ZN8DataFlow7iSourceIiED0Ev
FN:28,_ZN8DataFlow7iSourceIfED2Ev
FN:28,_ZN8DataFlow7iSourceIfED0Ev
FN:28,_ZN8DataFlow7iSourceIiED2Ev
FNDA:0,_ZN8DataFlow7iSourceIiEC2Ev
FNDA:0,_ZN8DataFlow7iSourceIfEC2Ev
FNDA:0,_ZN8DataFlow7iSourceIiED0Ev
FNDA:0,_ZN8DataFlow7iSourceIiED2Ev
FNDA:0,_ZN8DataFlow7iSourceIfED0Ev
FNDA:0,_ZN8DataFlow7iSourceIfED2Ev
FNF:6
FNH:0
DA:15,0
DA:28,0
LF:2
LH:0
end_of_record
SF:/SharedWithWindows/Projects/diginstrument/src/repeating_buffer.cpp
FN:4,_ZN8DataFlow15RepeatingBufferIiE3getERKj
FN:4,_ZN8DataFlow15RepeatingBufferIfE3getERKj
FN:15,_ZN8DataFlow15RepeatingBufferIfE3putESt6vectorIfSaIfEE
FN:15,_ZN8DataFlow15RepeatingBufferIiE3putESt6vectorIiSaIiEE
FN:21,_ZN8DataFlow15RepeatingBufferIfE5clearEv
FN:21,_ZN8DataFlow15RepeatingBufferIiE5clearEv
FN:26,_ZN8DataFlow15RepeatingBufferIiE4sizeEv
FN:26,_ZN8DataFlow15RepeatingBufferIfE4sizeEv
FN:31,_ZN8DataFlow15RepeatingBufferIfEC2ESt6vectorIfSaIfEE
FN:31,_ZN8DataFlow15RepeatingBufferIiEC2ESt6vectorIiSaIiEE
FNDA:0,_ZN8DataFlow15RepeatingBufferIiE3getERKj
FNDA:0,_ZN8DataFlow15RepeatingBufferIfE3getERKj
FNDA:0,_ZN8DataFlow15RepeatingBufferIiE3putESt6vectorIiSaIiEE
FNDA:0,_ZN8DataFlow15RepeatingBufferIfE3putESt6vectorIfSaIfEE
FNDA:0,_ZN8DataFlow15RepeatingBufferIiE5clearEv
FNDA:0,_ZN8DataFlow15RepeatingBufferIfE5clearEv
FNDA:0,_ZN8DataFlow15RepeatingBufferIiE4sizeEv
FNDA:0,_ZN8DataFlow15RepeatingBufferIfE4sizeEv
FNDA:0,_ZN8DataFlow15RepeatingBufferIiEC2ESt6vectorIiSaIiEE
FNDA:0,_ZN8DataFlow15RepeatingBufferIfEC2ESt6vectorIfSaIfEE
FNF:10
FNH:0
BRDA:6,4294967295,1,-
BRDA:6,4294967295,2,-
BRDA:6,4294967295,4,-
BRDA:6,4294967295,5,-
BRDA:7,1,0,-
BRDA:7,1,1,-
BRDA:7,3,2,-
BRDA:7,3,3,-
BRDA:8,0,2,-
BRDA:8,0,3,-
BRDA:8,1,6,-
BRDA:8,1,7,-
BRF:12
BRH:0
DA:4,0
DA:5,0
DA:6,0
DA:7,0
DA:8,0
DA:9,0
DA:11,0
DA:15,0
DA:16,0
DA:17,0
DA:18,0
DA:21,0
DA:22,0
DA:23,0
DA:26,0
DA:27,0
DA:31,0
DA:32,0
DA:33,0
LF:19
LH:0
end_of_record
TN:
SF:/SharedWithWindows/Projects/diginstrument/inc/Applicator.h
FN:23,_ZN8DataFlow10ApplicatorIf13VolumeControlEC2Ev
FN:23,_ZN8DataFlow10ApplicatorIf13VolumeControlED2Ev
FN:23,_ZN8DataFlow10ApplicatorIf13VolumeControlED0Ev
FN:29,_ZN8DataFlow10ApplicatorIf13VolumeControlE3getERKj
FN:41,_ZN8DataFlow10ApplicatorIf13VolumeControlE9getMethodEv
FN:51,_ZN8DataFlow10ApplicatorIf13VolumeControlE6attachERNS_7iSourceIfEE
FNDA:0,_ZN8DataFlow10ApplicatorIf13VolumeControlED0Ev
FNDA:0,_ZN8DataFlow10ApplicatorIf13VolumeControlED2Ev
FNDA:0,_ZN8DataFlow10ApplicatorIf13VolumeControlEC2Ev
FNDA:0,_ZN8DataFlow10ApplicatorIf13VolumeControlE3getERKj
FNDA:0,_ZN8DataFlow10ApplicatorIf13VolumeControlE9getMethodEv
FNDA:0,_ZN8DataFlow10ApplicatorIf13VolumeControlE6attachERNS_7iSourceIfEE
FNF:6
FNH:0
BRDA:31,0,1,-
BRDA:31,0,2,-
BRDA:32,4294967295,1,-
BRDA:32,4294967295,2,-
BRF:4
BRH:0
DA:23,0
DA:29,0
DA:31,0
DA:32,0
DA:33,0
DA:41,0
DA:42,0
DA:51,0
DA:53,0
DA:54,0
LF:10
LH:0
end_of_record
SF:/SharedWithWindows/Projects/diginstrument/inc/AudioSource.h
FN:33,_ZN5Mixer11AudioSourceC2ERKjS2_
FNDA:0,_ZN5Mixer11AudioSourceC2ERKjS2_
FNF:1
FNH:0
DA:33,0
LF:1
LH:0
end_of_record
SF:/SharedWithWindows/Projects/diginstrument/inc/ConsolidationMethods.h
FN:19,_ZN13Consolidation12AccumulationIfED0Ev
FN:19,_ZN13Consolidation12AccumulationIfED2Ev
FN:19,_ZN13Consolidation12AccumulationIfEC2Ev
FNDA:0,_ZN13Consolidation12AccumulationIfED0Ev
FNDA:0,_ZN13Consolidation12AccumulationIfED2Ev
FNDA:0,_ZN13Consolidation12AccumulationIfEC2Ev
FNF:3
FNH:0
DA:19,0
LF:1
LH:0
end_of_record
SF:/SharedWithWindows/Projects/diginstrument/inc/Consolidator.h
FN:20,_ZN8DataFlow12ConsolidatorIfN13Consolidation12AccumulationEEC2Ev
FN:20,_ZN8DataFlow12ConsolidatorIfN13Consolidation12AccumulationEED0Ev
FN:20,_ZN8DataFlow12ConsolidatorIfN13Consolidation12AccumulationEED2Ev
FN:31,_ZN8DataFlow12ConsolidatorIfN13Consolidation12AccumulationEE6attachERNS_7iSourceIfEE
FN:60,_ZN8DataFlow12ConsolidatorIfN13Consolidation12AccumulationEE3getERKj
FNDA:0,_ZN8DataFlow12ConsolidatorIfN13Consolidation12AccumulationEED0Ev
FNDA:0,_ZN8DataFlow12ConsolidatorIfN13Consolidation12AccumulationEED2Ev
FNDA:0,_ZN8DataFlow12ConsolidatorIfN13Consolidation12AccumulationEEC2Ev
FNDA:0,_ZN8DataFlow12ConsolidatorIfN13Consolidation12AccumulationEE6attachERNS_7iSourceIfEE
FNDA:0,_ZN8DataFlow12ConsolidatorIfN13Consolidation12AccumulationEE3getERKj
FNF:5
FNH:0
BRDA:32,0,2,-
BRDA:32,0,3,-
BRDA:61,0,4,-
BRDA:61,0,5,-
BRDA:62,0,1,-
BRDA:62,0,2,-
BRDA:63,0,4,-
BRDA:63,0,5,-
BRF:8
BRH:0
DA:20,0
DA:31,0
DA:32,0
DA:33,0
DA:60,0
DA:61,0
DA:62,0
DA:63,0
DA:65,0
LF:9
LH:0
end_of_record
SF:/SharedWithWindows/Projects/diginstrument/inc/SawtoothGenerator.h
FN:29,_ZN5Mixer17SawtoothGeneratorIfED0Ev
FN:29,_ZN5Mixer17SawtoothGeneratorIfED2Ev
FNDA:0,_ZN5Mixer17SawtoothGeneratorIfED0Ev
FNDA:0,_ZN5Mixer17SawtoothGeneratorIfED2Ev
FNF:2
FNH:0
DA:29,0
LF:1
LH:0
end_of_record
SF:/SharedWithWindows/Projects/diginstrument/inc/VolumeControl.h
FN:15,_ZN13VolumeControlIfED2Ev
FN:22,_ZN13VolumeControlIfE14stepTransitionERKi
FN:44,_ZN13VolumeControlIfE9setVolumeERKf
FN:55,_ZN13VolumeControlIfEclERSt6vectorIfSaIfEE
FN:183,_ZN13VolumeControlIfEC2Ev
FNDA:0,_ZN13VolumeControlIfED2Ev
FNDA:0,_ZN13VolumeControlIfE14stepTransitionERKi
FNDA:0,_ZN13VolumeControlIfE9setVolumeERKf
FNDA:0,_ZN13VolumeControlIfEclERSt6vectorIfSaIfEE
FNDA:0,_ZN13VolumeControlIfEC2Ev
FNF:5
FNH:0
BRDA:23,0,1,-
BRDA:23,0,2,-
BRDA:24,0,2,-
BRDA:24,0,3,-
BRDA:57,1,5,-
BRDA:57,1,6,-
BRDA:60,4294967295,1,-
BRDA:60,4294967295,2,-
BRF:8
BRH:0
DA:15,0
DA:22,0
DA:23,0
DA:24,0
DA:26,0
DA:44,0
DA:46,0
DA:47,0
DA:55,0
DA:57,0
DA:59,0
DA:60,0
DA:62,0
DA:183,0
LF:14
LH:0
end_of_record
SF:/SharedWithWindows/Projects/diginstrument/inc/iConsolidationMethod.h
FN:13,_ZN8DataFlow20iConsolidationMethodIfEC2Ev
FN:41,_ZN8DataFlow20iConsolidationMethodIfED0Ev
FN:41,_ZN8DataFlow20iConsolidationMethodIfED2Ev
FNDA:0,_ZN8DataFlow20iConsolidationMethodIfEC2Ev
FNDA:0,_ZN8DataFlow20iConsolidationMethodIfED0Ev
FNDA:0,_ZN8DataFlow20iConsolidationMethodIfED2Ev
FNF:3
FNH:0
DA:13,0
DA:41,0
LF:2
LH:0
end_of_record
SF:/SharedWithWindows/Projects/diginstrument/inc/iSource.h
FN:15,_ZN8DataFlow7iSourceIfEC2Ev
FN:28,_ZN8DataFlow7iSourceIfED0Ev
FN:28,_ZN8DataFlow7iSourceIfED2Ev
FNDA:0,_ZN8DataFlow7iSourceIfEC2Ev
FNDA:0,_ZN8DataFlow7iSourceIfED0Ev
FNDA:0,_ZN8DataFlow7iSourceIfED2Ev
FNF:3
FNH:0
DA:15,0
DA:28,0
LF:2
LH:0
end_of_record
SF:/SharedWithWindows/Projects/diginstrument/inc/iWaveformGenerator.h
FN:10,_ZN5Mixer18iWaveformGeneratorIfEC2Ev
FN:67,_ZN5Mixer18iWaveformGeneratorIfED2Ev
FN:67,_ZN5Mixer18iWaveformGeneratorIfED0Ev
FNDA:0,_ZN5Mixer18iWaveformGeneratorIfEC2Ev
FNDA:0,_ZN5Mixer18iWaveformGeneratorIfED0Ev
FNDA:0,_ZN5Mixer18iWaveformGeneratorIfED2Ev
FNF:3
FNH:0
DA:10,0
DA:67,0
LF:2
LH:0
end_of_record
SF:/SharedWithWindows/Projects/diginstrument/src/sawtooth_generator.cpp
FN:4,_ZN5Mixer17SawtoothGeneratorIfEC2ERKfRKjS5_S5_
FN:18,_ZN5Mixer17SawtoothGeneratorIfE3getERKj
FN:24,_ZNK5Mixer17SawtoothGeneratorIfE12getFrequencyEv
FN:30,_ZN5Mixer17SawtoothGeneratorIfE12setFrequencyERKf
FN:41,_ZN5Mixer17SawtoothGeneratorIfE12setFrequencyERKfS3_NSt7__cxx1112basic_stringIcSt11char_traitsIcESaIcEEERKj
FNDA:0,_ZN5Mixer17SawtoothGeneratorIfEC2ERKfRKjS5_S5_
FNDA:0,_ZN5Mixer17SawtoothGeneratorIfE3getERKj
FNDA:0,_ZNK5Mixer17SawtoothGeneratorIfE12getFrequencyEv
FNDA:0,_ZN5Mixer17SawtoothGeneratorIfE12setFrequencyERKf
FNDA:0,_ZN5Mixer17SawtoothGeneratorIfE12setFrequencyERKfS3_NSt7__cxx1112basic_stringIcSt11char_traitsIcESaIcEEERKj
FNF:5
FNH:0
BRDA:6,4294967295,1,-
BRDA:6,4294967295,2,-
BRDA:7,0,1,-
BRDA:7,0,2,-
BRDA:8,1,0,-
BRDA:8,1,1,-
BRDA:9,0,1,-
BRDA:9,0,2,-
BRDA:9,1,4,-
BRDA:9,1,5,-
BRDA:10,4294967295,1,-
BRDA:10,4294967295,2,-
BRDA:10,0,4,-
BRDA:10,0,5,-
BRDA:13,4294967295,3,-
BRDA:13,4294967295,4,-
BRDA:33,1,5,-
BRDA:33,1,6,-
BRDA:34,4294967295,2,-
BRDA:34,4294967295,3,-
BRDA:44,1,5,-
BRDA:44,1,6,-
BRDA:45,4294967295,2,-
BRDA:45,4294967295,3,-
BRDA:45,0,5,-
BRDA:45,0,6,-
BRF:26
BRH:0
DA:4,0
DA:6,0
DA:7,0
DA:8,0
DA:9,0
DA:10,0
DA:11,0
DA:12,0
DA:13,0
DA:15,0
DA:18,0
DA:20,0
DA:24,0
DA:26,0
DA:30,0
DA:32,0
DA:33,0
DA:34,0
DA:35,0
DA:37,0
DA:38,0
DA:41,0
DA:43,0
DA:44,0
DA:45,0
DA:46,0
DA:48,0
DA:49,0
LF:28
LH:0
end_of_record
TN:
SF:/SharedWithWindows/Projects/diginstrument/inc/Instrument.h
FN:22,_ZN10Instrument6SimpleIfE6removeENSt7__cxx1112basic_stringIcSt11char_traitsIcESaIcEEE
FNDA:0,_ZN10Instrument6SimpleIfE6removeENSt7__cxx1112basic_stringIcSt11char_traitsIcESaIcEEE
FNF:1
FNH:0
DA:22,0
LF:1
LH:0
end_of_record
SF:/SharedWithWindows/Projects/diginstrument/src/simple_instrument.cpp
FN:4,_ZN10Instrument6SimpleIfE4playESt6vectorISt4pairIfNSt7__cxx1112basic_stringIcSt11char_traitsIcESaIcEEEESaISA_EE
FN:7,_ZN10Instrument6SimpleIfE3addERNS_5iNoteIfEENSt7__cxx1112basic_stringIcSt11char_traitsIcESaIcEEE
FN:13,_ZN10Instrument6SimpleIfE10getNotesetB5cxx11Ev
FNDA:0,_ZN10Instrument6SimpleIfE4playESt6vectorISt4pairIfNSt7__cxx1112basic_stringIcSt11char_traitsIcESaIcEEEESaISA_EE
FNDA:3,_ZN10Instrument6SimpleIfE3addERNS_5iNoteIfEENSt7__cxx1112basic_stringIcSt11char_traitsIcESaIcEEE
FNDA:5,_ZN10Instrument6SimpleIfE10getNotesetB5cxx11Ev
FNF:3
FNH:2
BRDA:9,0,2,3
BRDA:9,0,3,0
BRDA:9,1,5,3
BRDA:9,1,6,0
BRDA:15,0,6,5
BRDA:15,0,7,0
BRF:6
BRH:3
DA:4,0
DA:7,3
DA:9,3
DA:10,3
DA:13,5
DA:15,5
LF:6
LH:5
end_of_record
TN:
SF:/SharedWithWindows/Projects/diginstrument/inc/AudioSource.h
FN:23,_ZNK5Mixer11AudioSource11getChannelsEv
FN:30,_ZNK5Mixer11AudioSource13getSampleRateEv
FN:33,_ZN5Mixer11AudioSourceC2ERKjS2_
FNDA:0,_ZNK5Mixer11AudioSource11getChannelsEv
FNDA:0,_ZNK5Mixer11AudioSource13getSampleRateEv
FNDA:0,_ZN5Mixer11AudioSourceC2ERKjS2_
FNF:3
FNH:0
DA:23,0
DA:30,0
DA:33,0
LF:3
LH:0
end_of_record
SF:/SharedWithWindows/Projects/diginstrument/inc/SineGenerator.h
FN:23,_ZN5Mixer13SineGeneratorIfED2Ev
FN:23,_ZN5Mixer13SineGeneratorIfED0Ev
FN:30,_ZN5Mixer13SineGeneratorIfE6fillerEf
FNDA:0,_ZN5Mixer13SineGeneratorIfED0Ev
FNDA:0,_ZN5Mixer13SineGeneratorIfED2Ev
FNDA:0,_ZN5Mixer13SineGeneratorIfE6fillerEf
FNF:3
FNH:0
DA:23,0
DA:30,0
LF:2
LH:0
end_of_record
SF:/SharedWithWindows/Projects/diginstrument/inc/TransitionFunction.h
FN:17,_ZN18TransitionFunctionIfEC2Ev
FN:43,_ZN18TransitionFunctionIfED0Ev
FN:43,_ZN18TransitionFunctionIfED2Ev
FNDA:0,_ZN18TransitionFunctionIfEC2Ev
FNDA:0,_ZN18TransitionFunctionIfED0Ev
FNDA:0,_ZN18TransitionFunctionIfED2Ev
FNF:3
FNH:0
DA:17,0
DA:43,0
LF:2
LH:0
end_of_record
SF:/SharedWithWindows/Projects/diginstrument/inc/TransitionFunctions.h
FN:19,_ZN10Transition6LinearIfED0Ev
FN:19,_ZN10Transition6LinearIfEC2Ev
FN:19,_ZN10Transition6LinearIfED2Ev
FN:21,_ZN10Transition6LinearIfE4initERKfS3_S3_S3_
FN:27,_ZN10Transition6LinearIfEclERKf
FN:42,_ZN10Transition6EaseIn9QuadraticIfED2Ev
FN:42,_ZN10Transition6EaseIn9QuadraticIfEC2Ev
FN:42,_ZN10Transition6EaseIn9QuadraticIfED0Ev
FN:44,_ZN10Transition6EaseIn9QuadraticIfE4initERKfS4_S4_S4_
FN:50,_ZN10Transition6EaseIn9QuadraticIfEclERKf
FN:58,_ZN10Transition6EaseIn5CubicIfEC2Ev
FN:58,_ZN10Transition6EaseIn5CubicIfED2Ev
FN:58,_ZN10Transition6EaseIn5CubicIfED0Ev
FN:60,_ZN10Transition6EaseIn5CubicIfE4initERKfS4_S4_S4_
FN:66,_ZN10Transition6EaseIn5CubicIfEclERKf
FN:74,_ZN10Transition6EaseIn7QuarticIfED2Ev
FN:74,_ZN10Transition6EaseIn7QuarticIfEC2Ev
FN:74,_ZN10Transition6EaseIn7QuarticIfED0Ev
FN:76,_ZN10Transition6EaseIn7QuarticIfE4initERKfS4_S4_S4_
FN:82,_ZN10Transition6EaseIn7QuarticIfEclERKf
FN:89,_ZN10Transition6EaseIn7QuinticIfED0Ev
FN:89,_ZN10Transition6EaseIn7QuinticIfEC2Ev
FN:89,_ZN10Transition6EaseIn7QuinticIfED2Ev
FN:91,_ZN10Transition6EaseIn7QuinticIfE4initERKfS4_S4_S4_
FN:97,_ZN10Transition6EaseIn7QuinticIfEclERKf
FN:114,_ZN10Transition7EaseOut9QuadraticIfED2Ev
FN:114,_ZN10Transition7EaseOut9QuadraticIfED0Ev
FN:114,_ZN10Transition7EaseOut9QuadraticIfEC2Ev
FN:116,_ZN10Transition7EaseOut9QuadraticIfE4initERKfS4_S4_S4_
FN:122,_ZN10Transition7EaseOut9QuadraticIfEclERKf
FN:130,_ZN10Transition7EaseOut5CubicIfED2Ev
FN:130,_ZN10Transition7EaseOut5CubicIfEC2Ev
FN:130,_ZN10Transition7EaseOut5CubicIfED0Ev
FN:132,_ZN10Transition7EaseOut5CubicIfE4initERKfS4_S4_S4_
FN:138,_ZN10Transition7EaseOut5CubicIfEclERKf
FN:146,_ZN10Transition7EaseOut7QuarticIfED2Ev
FN:146,_ZN10Transition7EaseOut7QuarticIfEC2Ev
FN:146,_ZN10Transition7EaseOut7QuarticIfED0Ev
FN:148,_ZN10Transition7EaseOut7QuarticIfE4initERKfS4_S4_S4_
FN:154,_ZN10Transition7EaseOut7QuarticIfEclERKf
FN:162,_ZN10Transition7EaseOut7QuinticIfEC2Ev
FN:162,_ZN10Transition7EaseOut7QuinticIfED0Ev
FN:162,_ZN10Transition7EaseOut7QuinticIfED2Ev
FN:164,_ZN10Transition7EaseOut7QuinticIfE4initERKfS4_S4_S4_
FN:170,_ZN10Transition7EaseOut7QuinticIfEclERKf
FN:186,_ZN10Transition9EaseInOut9QuadraticIfEC2Ev
FN:186,_ZN10Transition9EaseInOut9QuadraticIfED0Ev
FN:186,_ZN10Transition9EaseInOut9QuadraticIfED2Ev
FN:188,_ZN10Transition9EaseInOut9QuadraticIfE4initERKfS4_S4_S4_
FN:195,_ZN10Transition9EaseInOut9QuadraticIfEclERKf
FN:204,_ZN10Transition9EaseInOut5CubicIfED2Ev
FN:204,_ZN10Transition9EaseInOut5CubicIfED0Ev
FN:204,_ZN10Transition9EaseInOut5CubicIfEC2Ev
FN:206,_ZN10Transition9EaseInOut5CubicIfE4initERKfS4_S4_S4_
FN:213,_ZN10Transition9EaseInOut5CubicIfEclERKf
FN:222,_ZN10Transition9EaseInOut7QuarticIfED0Ev
FN:222,_ZN10Transition9EaseInOut7QuarticIfED2Ev
FN:222,_ZN10Transition9EaseInOut7QuarticIfEC2Ev
FN:224,_ZN10Transition9EaseInOut7QuarticIfE4initERKfS4_S4_S4_
FN:231,_ZN10Transition9EaseInOut7QuarticIfEclERKf
FN:240,_ZN10Transition9EaseInOut7QuinticIfED0Ev
FN:240,_ZN10Transition9EaseInOut7QuinticIfEC2Ev
FN:240,_ZN10Transition9EaseInOut7QuinticIfED2Ev
FN:242,_ZN10Transition9EaseInOut7QuinticIfE4initERKfS4_S4_S4_
FN:249,_ZN10Transition9EaseInOut7QuinticIfEclERKf
FNDA:0,_ZN10Transition6LinearIfED0Ev
FNDA:0,_ZN10Transition6LinearIfED2Ev
FNDA:0,_ZN10Transition6LinearIfEC2Ev
FNDA:0,_ZN10Transition6LinearIfE4initERKfS3_S3_S3_
FNDA:0,_ZN10Transition6LinearIfEclERKf
FNDA:0,_ZN10Transition6EaseIn9QuadraticIfED0Ev
FNDA:0,_ZN10Transition6EaseIn9QuadraticIfED2Ev
FNDA:0,_ZN10Transition6EaseIn9QuadraticIfEC2Ev
FNDA:0,_ZN10Transition6EaseIn9QuadraticIfE4initERKfS4_S4_S4_
FNDA:0,_ZN10Transition6EaseIn9QuadraticIfEclERKf
FNDA:0,_ZN10Transition6EaseIn5CubicIfED0Ev
FNDA:0,_ZN10Transition6EaseIn5CubicIfED2Ev
FNDA:0,_ZN10Transition6EaseIn5CubicIfEC2Ev
FNDA:0,_ZN10Transition6EaseIn5CubicIfE4initERKfS4_S4_S4_
FNDA:0,_ZN10Transition6EaseIn5CubicIfEclERKf
FNDA:0,_ZN10Transition6EaseIn7QuarticIfED0Ev
FNDA:0,_ZN10Transition6EaseIn7QuarticIfED2Ev
FNDA:0,_ZN10Transition6EaseIn7QuarticIfEC2Ev
FNDA:0,_ZN10Transition6EaseIn7QuarticIfE4initERKfS4_S4_S4_
FNDA:0,_ZN10Transition6EaseIn7QuarticIfEclERKf
FNDA:0,_ZN10Transition6EaseIn7QuinticIfED0Ev
FNDA:0,_ZN10Transition6EaseIn7QuinticIfED2Ev
FNDA:0,_ZN10Transition6EaseIn7QuinticIfEC2Ev
FNDA:0,_ZN10Transition6EaseIn7QuinticIfE4initERKfS4_S4_S4_
FNDA:0,_ZN10Transition6EaseIn7QuinticIfEclERKf
FNDA:0,_ZN10Transition7EaseOut9QuadraticIfED0Ev
FNDA:0,_ZN10Transition7EaseOut9QuadraticIfED2Ev
FNDA:0,_ZN10Transition7EaseOut9QuadraticIfEC2Ev
FNDA:0,_ZN10Transition7EaseOut9QuadraticIfE4initERKfS4_S4_S4_
FNDA:0,_ZN10Transition7EaseOut9QuadraticIfEclERKf
FNDA:0,_ZN10Transition7EaseOut5CubicIfED0Ev
FNDA:0,_ZN10Transition7EaseOut5CubicIfED2Ev
FNDA:0,_ZN10Transition7EaseOut5CubicIfEC2Ev
FNDA:0,_ZN10Transition7EaseOut5CubicIfE4initERKfS4_S4_S4_
FNDA:0,_ZN10Transition7EaseOut5CubicIfEclERKf
FNDA:0,_ZN10Transition7EaseOut7QuarticIfED0Ev
FNDA:0,_ZN10Transition7EaseOut7QuarticIfED2Ev
FNDA:0,_ZN10Transition7EaseOut7QuarticIfEC2Ev
FNDA:0,_ZN10Transition7EaseOut7QuarticIfE4initERKfS4_S4_S4_
FNDA:0,_ZN10Transition7EaseOut7QuarticIfEclERKf
FNDA:0,_ZN10Transition7EaseOut7QuinticIfED0Ev
FNDA:0,_ZN10Transition7EaseOut7QuinticIfED2Ev
FNDA:0,_ZN10Transition7EaseOut7QuinticIfEC2Ev
FNDA:0,_ZN10Transition7EaseOut7QuinticIfE4initERKfS4_S4_S4_
FNDA:0,_ZN10Transition7EaseOut7QuinticIfEclERKf
FNDA:0,_ZN10Transition9EaseInOut9QuadraticIfED0Ev
FNDA:0,_ZN10Transition9EaseInOut9QuadraticIfED2Ev
FNDA:0,_ZN10Transition9EaseInOut9QuadraticIfEC2Ev
FNDA:0,_ZN10Transition9EaseInOut9QuadraticIfE4initERKfS4_S4_S4_
FNDA:0,_ZN10Transition9EaseInOut9QuadraticIfEclERKf
FNDA:0,_ZN10Transition9EaseInOut5CubicIfED0Ev
FNDA:0,_ZN10Transition9EaseInOut5CubicIfED2Ev
FNDA:0,_ZN10Transition9EaseInOut5CubicIfEC2Ev
FNDA:0,_ZN10Transition9EaseInOut5CubicIfE4initERKfS4_S4_S4_
FNDA:0,_ZN10Transition9EaseInOut5CubicIfEclERKf
FNDA:0,_ZN10Transition9EaseInOut7QuarticIfED0Ev
FNDA:0,_ZN10Transition9EaseInOut7QuarticIfED2Ev
FNDA:0,_ZN10Transition9EaseInOut7QuarticIfEC2Ev
FNDA:0,_ZN10Transition9EaseInOut7QuarticIfE4initERKfS4_S4_S4_
FNDA:0,_ZN10Transition9EaseInOut7QuarticIfEclERKf
FNDA:0,_ZN10Transition9EaseInOut7QuinticIfED0Ev
FNDA:0,_ZN10Transition9EaseInOut7QuinticIfED2Ev
FNDA:0,_ZN10Transition9EaseInOut7QuinticIfEC2Ev
FNDA:0,_ZN10Transition9EaseInOut7QuinticIfE4initERKfS4_S4_S4_
FNDA:0,_ZN10Transition9EaseInOut7QuinticIfEclERKf
FNF:65
FNH:0
DA:19,0
DA:21,0
DA:22,0
DA:23,0
DA:24,0
DA:25,0
DA:27,0
DA:28,0
DA:42,0
DA:44,0
DA:45,0
DA:46,0
DA:47,0
DA:48,0
DA:50,0
DA:51,0
DA:58,0
DA:60,0
DA:61,0
DA:62,0
DA:63,0
DA:64,0
DA:66,0
DA:67,0
DA:74,0
DA:76,0
DA:77,0
DA:78,0
DA:79,0
DA:80,0
DA:82,0
DA:83,0
DA:89,0
DA:91,0
DA:92,0
DA:93,0
DA:94,0
DA:95,0
DA:97,0
DA:98,0
DA:114,0
DA:116,0
DA:117,0
DA:118,0
DA:119,0
DA:120,0
DA:122,0
DA:123,0
DA:130,0
DA:132,0
DA:133,0
DA:134,0
DA:135,0
DA:136,0
DA:138,0
DA:139,0
DA:146,0
DA:148,0
DA:149,0
DA:150,0
DA:151,0
DA:152,0
DA:154,0
DA:155,0
DA:162,0
DA:164,0
DA:165,0
DA:166,0
DA:167,0
DA:168,0
DA:170,0
DA:171,0
DA:186,0
DA:188,0
DA:189,0
DA:190,0
DA:191,0
DA:192,0
DA:193,0
DA:195,0
DA:196,0
DA:197,0
DA:204,0
DA:206,0
DA:207,0
DA:208,0
DA:209,0
DA:210,0
DA:211,0
DA:213,0
DA:214,0
DA:215,0
DA:222,0
DA:224,0
DA:225,0
DA:226,0
DA:227,0
DA:228,0
DA:229,0
DA:231,0
DA:232,0
DA:233,0
DA:240,0
DA:242,0
DA:243,0
DA:244,0
DA:245,0
DA:246,0
DA:247,0
DA:249,0
DA:250,0
DA:251,0
LF:112
LH:0
end_of_record
SF:/SharedWithWindows/Projects/diginstrument/inc/Transitioner.h
FN:20,_ZN12TransitionerIfN10Transition6EaseIn9QuadraticEED0Ev
FN:20,_ZN12TransitionerIfN10Transition9EaseInOut7QuinticEED0Ev
FN:20,_ZN12TransitionerIfN10Transition7EaseOut7QuinticEED2Ev
FN:20,_ZN12TransitionerIfN10Transition6EaseIn5CubicEED2Ev
FN:20,_ZN12TransitionerIfN10Transition7EaseOut7QuinticEED0Ev
FN:20,_ZN12TransitionerIfN10Transition6EaseIn7QuinticEED2Ev
FN:20,_ZN12TransitionerIfN10Transition6EaseIn5CubicEED0Ev
FN:20,_ZN12TransitionerIfN10Transition7EaseOut7QuarticEED0Ev
FN:20,_ZN12TransitionerIfN10Transition9EaseInOut7QuinticEED2Ev
FN:20,_ZN12TransitionerIfN10Transition9EaseInOut9QuadraticEED2Ev
FN:20,_ZN12TransitionerIfN10Transition7EaseOut9QuadraticEED0Ev
FN:20,_ZN12TransitionerIfN10Transition7EaseOut9QuadraticEED2Ev
FN:20,_ZN12TransitionerIfN10Transition6LinearEED2Ev
FN:20,_ZN12TransitionerIfN10Transition7EaseOut5CubicEED0Ev
FN:20,_ZN12TransitionerIfN10Transition9EaseInOut5CubicEED2Ev
FN:20,_ZN12TransitionerIfN10Transition9EaseInOut9QuadraticEED0Ev
FN:20,_ZN12TransitionerIfN10Transition9EaseInOut5CubicEED0Ev
FN:20,_ZN12TransitionerIfN10Transition6EaseIn7QuinticEED0Ev
FN:20,_ZN12TransitionerIfN10Transition6EaseIn9QuadraticEED2Ev
FN:20,_ZN12TransitionerIfN10Transition9EaseInOut7QuarticEED2Ev
FN:20,_ZN12TransitionerIfN10Transition6EaseIn7QuarticEED2Ev
FN:20,_ZN12TransitionerIfN10Transition6EaseIn7QuarticEED0Ev
FN:20,_ZN12TransitionerIfN10Transition9EaseInOut7QuarticEED0Ev
FN:20,_ZN12TransitionerIfN10Transition6LinearEED0Ev
FN:20,_ZN12TransitionerIfN10Transition7EaseOut5CubicEED2Ev
FN:20,_ZN12TransitionerIfN10Transition7EaseOut7QuarticEED2Ev
FN:30,_ZN12TransitionerIfN10Transition9EaseInOut7QuarticEE4initERKfS5_S5_
FN:30,_ZN12TransitionerIfN10Transition7EaseOut9QuadraticEE4initERKfS5_S5_
FN:30,_ZN12TransitionerIfN10Transition6EaseIn9QuadraticEE4initERKfS5_S5_
FN:30,_ZN12TransitionerIfN10Transition7EaseOut7QuinticEE4initERKfS5_S5_
FN:30,_ZN12TransitionerIfN10Transition6EaseIn5CubicEE4initERKfS5_S5_
FN:30,_ZN12TransitionerIfN10Transition6EaseIn7QuinticEE4initERKfS5_S5_
FN:30,_ZN12TransitionerIfN10Transition9EaseInOut9QuadraticEE4initERKfS5_S5_
FN:30,_ZN12TransitionerIfN10Transition7EaseOut5CubicEE4initERKfS5_S5_
FN:30,_ZN12TransitionerIfN10Transition9EaseInOut5CubicEE4initERKfS5_S5_
FN:30,_ZN12TransitionerIfN10Transition7EaseOut7QuarticEE4initERKfS5_S5_
FN:30,_ZN12TransitionerIfN10Transition6EaseIn7QuarticEE4initERKfS5_S5_
FN:30,_ZN12TransitionerIfN10Transition9EaseInOut7QuinticEE4initERKfS5_S5_
FN:30,_ZN12TransitionerIfN10Transition6LinearEE4initERKfS4_S4_
FN:38,_ZN12TransitionerIfN10Transition6EaseIn7QuinticEE4stepERKf
FN:38,_ZN12TransitionerIfN10Transition6LinearEE4stepERKf
FN:38,_ZN12TransitionerIfN10Transition7EaseOut9QuadraticEE4stepERKf
FN:38,_ZN12TransitionerIfN10Transition6EaseIn5CubicEE4stepERKf
FN:38,_ZN12TransitionerIfN10Transition7EaseOut5CubicEE4stepERKf
FN:38,_ZN12TransitionerIfN10Transition7EaseOut7QuinticEE4stepERKf
FN:38,_ZN12TransitionerIfN10Transition6EaseIn9QuadraticEE4stepERKf
FN:38,_ZN12TransitionerIfN10Transition9EaseInOut7QuinticEE4stepERKf
FN:38,_ZN12TransitionerIfN10Transition6EaseIn7QuarticEE4stepERKf
FN:38,_ZN12TransitionerIfN10Transition9EaseInOut7QuarticEE4stepERKf
FN:38,_ZN12TransitionerIfN10Transition9EaseInOut9QuadraticEE4stepERKf
FN:38,_ZN12TransitionerIfN10Transition9EaseInOut5CubicEE4stepERKf
FN:38,_ZN12TransitionerIfN10Transition7EaseOut7QuarticEE4stepERKf
FN:58,_ZN12TransitionerIfN10Transition9EaseInOut7QuarticEEC2ERf
FN:58,_ZN12TransitionerIfN10Transition7EaseOut7QuinticEEC2ERf
FN:58,_ZN12TransitionerIfN10Transition9EaseInOut9QuadraticEEC2ERf
FN:58,_ZN12TransitionerIfN10Transition7EaseOut7QuarticEEC2ERf
FN:58,_ZN12TransitionerIfN10Transition6LinearEEC2ERf
FN:58,_ZN12TransitionerIfN10Transition9EaseInOut7QuinticEEC2ERf
FN:58,_ZN12TransitionerIfN10Transition6EaseIn9QuadraticEEC2ERf
FN:58,_ZN12TransitionerIfN10Transition6EaseIn5CubicEEC2ERf
FN:58,_ZN12TransitionerIfN10Transition7EaseOut9QuadraticEEC2ERf
FN:58,_ZN12TransitionerIfN10Transition6EaseIn7QuarticEEC2ERf
FN:58,_ZN12TransitionerIfN10Transition6EaseIn7QuinticEEC2ERf
FN:58,_ZN12TransitionerIfN10Transition9EaseInOut5CubicEEC2ERf
FN:58,_ZN12TransitionerIfN10Transition7EaseOut5CubicEEC2ERf
FNDA:0,_ZN12TransitionerIfN10Transition7EaseOut7QuinticEED0Ev
FNDA:0,_ZN12TransitionerIfN10Transition7EaseOut7QuinticEED2Ev
FNDA:0,_ZN12TransitionerIfN10Transition6EaseIn7QuinticEED0Ev
FNDA:0,_ZN12TransitionerIfN10Transition6EaseIn7QuinticEED2Ev
FNDA:0,_ZN12TransitionerIfN10Transition9EaseInOut7QuinticEED0Ev
FNDA:0,_ZN12TransitionerIfN10Transition9EaseInOut7QuinticEED2Ev
FNDA:0,_ZN12TransitionerIfN10Transition7EaseOut7QuarticEED0Ev
FNDA:0,_ZN12TransitionerIfN10Transition7EaseOut7QuarticEED2Ev
FNDA:0,_ZN12TransitionerIfN10Transition6EaseIn7QuarticEED0Ev
FNDA:0,_ZN12TransitionerIfN10Transition6EaseIn7QuarticEED2Ev
FNDA:0,_ZN12TransitionerIfN10Transition9EaseInOut7QuarticEED0Ev
FNDA:0,_ZN12TransitionerIfN10Transition9EaseInOut7QuarticEED2Ev
FNDA:0,_ZN12TransitionerIfN10Transition7EaseOut5CubicEED0Ev
FNDA:0,_ZN12TransitionerIfN10Transition7EaseOut5CubicEED2Ev
FNDA:0,_ZN12TransitionerIfN10Transition6EaseIn5CubicEED0Ev
FNDA:0,_ZN12TransitionerIfN10Transition6EaseIn5CubicEED2Ev
FNDA:0,_ZN12TransitionerIfN10Transition9EaseInOut5CubicEED0Ev
FNDA:0,_ZN12TransitionerIfN10Transition9EaseInOut5CubicEED2Ev
FNDA:0,_ZN12TransitionerIfN10Transition7EaseOut9QuadraticEED0Ev
FNDA:0,_ZN12TransitionerIfN10Transition7EaseOut9QuadraticEED2Ev
FNDA:0,_ZN12TransitionerIfN10Transition6EaseIn9QuadraticEED0Ev
FNDA:0,_ZN12TransitionerIfN10Transition6EaseIn9QuadraticEED2Ev
FNDA:0,_ZN12TransitionerIfN10Transition9EaseInOut9QuadraticEED0Ev
FNDA:0,_ZN12TransitionerIfN10Transition9EaseInOut9QuadraticEED2Ev
FNDA:0,_ZN12TransitionerIfN10Transition6LinearEED0Ev
FNDA:0,_ZN12TransitionerIfN10Transition6LinearEED2Ev
FNDA:0,_ZN12TransitionerIfN10Transition6LinearEE4initERKfS4_S4_
FNDA:0,_ZN12TransitionerIfN10Transition9EaseInOut9QuadraticEE4initERKfS5_S5_
FNDA:0,_ZN12TransitionerIfN10Transition6EaseIn9QuadraticEE4initERKfS5_S5_
FNDA:0,_ZN12TransitionerIfN10Transition7EaseOut9QuadraticEE4initERKfS5_S5_
FNDA:0,_ZN12TransitionerIfN10Transition9EaseInOut5CubicEE4initERKfS5_S5_
FNDA:0,_ZN12TransitionerIfN10Transition6EaseIn5CubicEE4initERKfS5_S5_
FNDA:0,_ZN12TransitionerIfN10Transition7EaseOut5CubicEE4initERKfS5_S5_
FNDA:0,_ZN12TransitionerIfN10Transition9EaseInOut7QuarticEE4initERKfS5_S5_
FNDA:0,_ZN12TransitionerIfN10Transition6EaseIn7QuarticEE4initERKfS5_S5_
FNDA:0,_ZN12TransitionerIfN10Transition7EaseOut7QuarticEE4initERKfS5_S5_
FNDA:0,_ZN12TransitionerIfN10Transition9EaseInOut7QuinticEE4initERKfS5_S5_
FNDA:0,_ZN12TransitionerIfN10Transition6EaseIn7QuinticEE4initERKfS5_S5_
FNDA:0,_ZN12TransitionerIfN10Transition7EaseOut7QuinticEE4initERKfS5_S5_
FNDA:0,_ZN12TransitionerIfN10Transition6LinearEE4stepERKf
FNDA:0,_ZN12TransitionerIfN10Transition9EaseInOut9QuadraticEE4stepERKf
FNDA:0,_ZN12TransitionerIfN10Transition6EaseIn9QuadraticEE4stepERKf
FNDA:0,_ZN12TransitionerIfN10Transition7EaseOut9QuadraticEE4stepERKf
FNDA:0,_ZN12TransitionerIfN10Transition9EaseInOut5CubicEE4stepERKf
FNDA:0,_ZN12TransitionerIfN10Transition6EaseIn5CubicEE4stepERKf
FNDA:0,_ZN12TransitionerIfN10Transition7EaseOut5CubicEE4stepERKf
FNDA:0,_ZN12TransitionerIfN10Transition9EaseInOut7QuarticEE4stepERKf
FNDA:0,_ZN12TransitionerIfN10Transition6EaseIn7QuarticEE4stepERKf
FNDA:0,_ZN12TransitionerIfN10Transition7EaseOut7QuarticEE4stepERKf
FNDA:0,_ZN12TransitionerIfN10Transition9EaseInOut7QuinticEE4stepERKf
FNDA:0,_ZN12TransitionerIfN10Transition6EaseIn7QuinticEE4stepERKf
FNDA:0,_ZN12TransitionerIfN10Transition7EaseOut7QuinticEE4stepERKf
FNDA:0,_ZN12TransitionerIfN10Transition7EaseOut7QuinticEEC2ERf
FNDA:0,_ZN12TransitionerIfN10Transition6EaseIn7QuinticEEC2ERf
FNDA:0,_ZN12TransitionerIfN10Transition9EaseInOut7QuinticEEC2ERf
FNDA:0,_ZN12TransitionerIfN10Transition7EaseOut7QuarticEEC2ERf
FNDA:0,_ZN12TransitionerIfN10Transition6EaseIn7QuarticEEC2ERf
FNDA:0,_ZN12TransitionerIfN10Transition9EaseInOut7QuarticEEC2ERf
FNDA:0,_ZN12TransitionerIfN10Transition7EaseOut5CubicEEC2ERf
FNDA:0,_ZN12TransitionerIfN10Transition6EaseIn5CubicEEC2ERf
FNDA:0,_ZN12TransitionerIfN10Transition9EaseInOut5CubicEEC2ERf
FNDA:0,_ZN12TransitionerIfN10Transition7EaseOut9QuadraticEEC2ERf
FNDA:0,_ZN12TransitionerIfN10Transition6EaseIn9QuadraticEEC2ERf
FNDA:0,_ZN12TransitionerIfN10Transition9EaseInOut9QuadraticEEC2ERf
FNDA:0,_ZN12TransitionerIfN10Transition6LinearEEC2ERf
FNF:65
FNH:0
BRDA:40,0,0,-
BRDA:40,0,1,-
BRDA:40,1,2,-
BRDA:40,1,3,-
BRDA:40,2,4,-
BRDA:40,2,5,-
BRDA:40,3,6,-
BRDA:40,3,7,-
BRDA:40,4,8,-
BRDA:40,4,9,-
BRDA:40,5,10,-
BRDA:40,5,11,-
BRDA:40,6,12,-
BRDA:40,6,13,-
BRDA:40,7,14,-
BRDA:40,7,15,-
BRDA:40,8,16,-
BRDA:40,8,17,-
BRDA:40,9,18,-
BRDA:40,9,19,-
BRDA:40,10,20,-
BRDA:40,10,21,-
BRDA:40,11,22,-
BRDA:40,11,23,-
BRDA:40,12,24,-
BRDA:40,12,25,-
BRDA:44,0,0,-
BRDA:44,0,1,-
BRDA:44,1,2,-
BRDA:44,1,3,-
BRDA:44,2,4,-
BRDA:44,2,5,-
BRDA:44,3,6,-
BRDA:44,3,7,-
BRDA:44,4,8,-
BRDA:44,4,9,-
BRDA:44,5,10,-
BRDA:44,5,11,-
BRDA:44,6,12,-
BRDA:44,6,13,-
BRDA:44,7,14,-
BRDA:44,7,15,-
BRDA:44,8,16,-
BRDA:44,8,17,-
BRDA:44,9,18,-
BRDA:44,9,19,-
BRDA:44,10,20,-
BRDA:44,10,21,-
BRDA:44,11,22,-
BRDA:44,11,23,-
BRDA:44,12,24,-
BRDA:44,12,25,-
BRDA:58,1,2,-
BRDA:58,1,3,-
BRDA:58,5,7,-
BRDA:58,5,8,-
BRDA:58,9,12,-
BRDA:58,9,13,-
BRDA:58,13,17,-
BRDA:58,13,18,-
BRDA:58,17,22,-
BRDA:58,17,23,-
BRDA:58,21,27,-
BRDA:58,21,28,-
BRDA:58,25,32,-
BRDA:58,25,33,-
BRDA:58,29,37,-
BRDA:58,29,38,-
BRDA:58,33,42,-
BRDA:58,33,43,-
BRDA:58,37,47,-
BRDA:58,37,48,-
BRDA:58,41,52,-
BRDA:58,41,53,-
BRDA:58,45,57,-
BRDA:58,45,58,-
BRDA:58,49,62,-
BRDA:58,49,63,-
BRF:78
BRH:0
DA:20,0
DA:30,0
DA:31,0
DA:32,0
DA:33,0
DA:34,0
DA:35,0
DA:36,0
DA:38,0
DA:39,0
DA:40,0
DA:41,0
DA:42,0
DA:44,0
DA:45,0
DA:46,0
DA:48,0
DA:58,0
LF:18
LH:0
end_of_record
SF:/SharedWithWindows/Projects/diginstrument/inc/iSource.h
FN:15,_ZN8DataFlow7iSourceIfEC2Ev
FN:28,_ZN8DataFlow7iSourceIfED0Ev
FN:28,_ZN8DataFlow7iSourceIfED2Ev
FNDA:0,_ZN8DataFlow7iSourceIfEC2Ev
FNDA:0,_ZN8DataFlow7iSourceIfED0Ev
FNDA:0,_ZN8DataFlow7iSourceIfED2Ev
FNF:3
FNH:0
DA:15,0
DA:28,0
LF:2
LH:0
end_of_record
SF:/SharedWithWindows/Projects/diginstrument/inc/iTransitioner.h
FN:11,_ZN13iTransitionerIfEC2Ev
FN:33,_ZN13iTransitionerIfED0Ev
FN:33,_ZN13iTransitionerIfED2Ev
FNDA:0,_ZN13iTransitionerIfEC2Ev
FNDA:0,_ZN13iTransitionerIfED0Ev
FNDA:0,_ZN13iTransitionerIfED2Ev
FNF:3
FNH:0
DA:11,0
DA:33,0
LF:2
LH:0
end_of_record
SF:/SharedWithWindows/Projects/diginstrument/inc/iWaveformGenerator.h
FN:10,_ZN5Mixer18iWaveformGeneratorIfEC2Ev
FN:67,_ZN5Mixer18iWaveformGeneratorIfED2Ev
FN:67,_ZN5Mixer18iWaveformGeneratorIfED0Ev
FNDA:0,_ZN5Mixer18iWaveformGeneratorIfEC2Ev
FNDA:0,_ZN5Mixer18iWaveformGeneratorIfED0Ev
FNDA:0,_ZN5Mixer18iWaveformGeneratorIfED2Ev
FNF:3
FNH:0
DA:10,0
DA:67,0
LF:2
LH:0
end_of_record
SF:/SharedWithWindows/Projects/diginstrument/src/sine_generator.cpp
FN:10,_ZN5Mixer13SineGeneratorIfEC2ERKfRKjS5_
FN:25,_ZN5Mixer13SineGeneratorIfE3getERKj
FN:44,_ZNK5Mixer13SineGeneratorIfE12getFrequencyEv
FN:50,_ZN5Mixer13SineGeneratorIfE12setFrequencyERKf
FN:56,_ZN5Mixer13SineGeneratorIfE12setFrequencyERKfS3_NSt7__cxx1112basic_stringIcSt11char_traitsIcESaIcEEERKj
FNDA:0,_ZN5Mixer13SineGeneratorIfEC2ERKfRKjS5_
FNDA:0,_ZN5Mixer13SineGeneratorIfE3getERKj
FNDA:0,_ZNK5Mixer13SineGeneratorIfE12getFrequencyEv
FNDA:0,_ZN5Mixer13SineGeneratorIfE12setFrequencyERKf
FNDA:0,_ZN5Mixer13SineGeneratorIfE12setFrequencyERKfS3_NSt7__cxx1112basic_stringIcSt11char_traitsIcESaIcEEERKj
FNF:5
FNH:0
BRDA:14,4294967295,0,-
BRDA:14,4294967295,1,-
BRDA:16,1,0,-
BRDA:16,1,1,-
BRDA:18,0,2,-
BRDA:18,0,3,-
BRDA:28,0,1,-
BRDA:28,0,2,-
BRDA:30,1,1,-
BRDA:30,1,2,-
BRDA:32,0,2,-
BRDA:32,0,3,-
BRDA:35,4294967295,1,-
BRDA:35,4294967295,2,-
BRDA:37,0,2,-
BRDA:37,0,3,-
BRDA:61,4294967295,1,-
BRDA:61,4294967295,2,-
BRDA:61,0,3,-
BRDA:61,0,4,-
BRDA:63,0,1,-
BRDA:63,0,2,-
BRDA:65,0,0,-
BRDA:65,0,1,-
BRDA:65,0,2,-
BRDA:65,0,3,-
BRDA:65,0,4,-
BRDA:68,0,1,-
BRDA:68,0,2,-
BRDA:68,1,3,-
BRDA:68,1,4,-
BRDA:70,0,1,-
BRDA:70,0,2,-
BRDA:73,0,1,-
BRDA:73,0,2,-
BRDA:73,1,3,-
BRDA:73,1,4,-
BRDA:75,0,1,-
BRDA:75,0,2,-
BRDA:78,0,1,-
BRDA:78,0,2,-
BRDA:78,1,3,-
BRDA:78,1,4,-
BRDA:80,0,1,-
BRDA:80,0,2,-
BRDA:85,0,1,-
BRDA:85,0,2,-
BRDA:85,1,3,-
BRDA:85,1,4,-
BRDA:87,0,1,-
BRDA:87,0,2,-
BRDA:90,0,1,-
BRDA:90,0,2,-
BRDA:90,1,3,-
BRDA:90,1,4,-
BRDA:92,0,1,-
BRDA:92,0,2,-
BRDA:95,0,1,-
BRDA:95,0,2,-
BRDA:95,1,3,-
BRDA:95,1,4,-
BRDA:97,0,1,-
BRDA:97,0,2,-
BRDA:102,0,1,-
BRDA:102,0,2,-
BRDA:102,1,3,-
BRDA:102,1,4,-
BRDA:104,0,1,-
BRDA:104,0,2,-
BRDA:107,0,1,-
BRDA:107,0,2,-
BRDA:107,1,3,-
BRDA:107,1,4,-
BRDA:109,0,1,-
BRDA:109,0,2,-
BRDA:112,0,1,-
BRDA:112,0,2,-
BRDA:112,1,3,-
BRDA:112,1,4,-
BRDA:114,0,1,-
BRDA:114,0,2,-
BRDA:119,0,1,-
BRDA:119,0,2,-
BRDA:119,1,3,-
BRDA:119,1,4,-
BRDA:121,0,1,-
BRDA:121,0,2,-
BRDA:124,0,1,-
BRDA:124,0,2,-
BRDA:124,1,3,-
BRDA:124,1,4,-
BRDA:126,0,1,-
BRDA:126,0,2,-
BRDA:129,0,1,-
BRDA:129,0,2,-
BRDA:129,1,3,-
BRDA:129,1,4,-
BRDA:131,0,1,-
BRDA:131,0,2,-
BRDA:135,0,1,-
BRDA:135,0,2,-
BRDA:138,0,2,-
BRDA:138,0,3,-
BRF:103
BRH:0
DA:10,0
DA:12,0
DA:13,0
DA:14,0
DA:16,0
DA:18,0
DA:20,0
DA:22,0
DA:25,0
DA:27,0
DA:28,0
DA:30,0
DA:32,0
DA:34,0
DA:35,0
DA:37,0
DA:40,0
DA:44,0
DA:46,0
DA:50,0
DA:52,0
DA:53,0
DA:56,0
DA:58,0
DA:59,0
DA:61,0
DA:63,0
DA:65,0
DA:68,0
DA:70,0
DA:71,0
DA:73,0
DA:75,0
DA:76,0
DA:78,0
DA:80,0
DA:81,0
DA:85,0
DA:87,0
DA:88,0
DA:90,0
DA:92,0
DA:93,0
DA:95,0
DA:97,0
DA:98,0
DA:102,0
DA:104,0
DA:105,0
DA:107,0
DA:109,0
DA:110,0
DA:112,0
DA:114,0
DA:115,0
DA:119,0
DA:121,0
DA:122,0
DA:124,0
DA:126,0
DA:127,0
DA:129,0
DA:131,0
DA:132,0
DA:135,0
DA:138,0
DA:139,0
LF:67
LH:0
end_of_record
TN:
SF:/SharedWithWindows/Projects/diginstrument/inc/Applicator.h
FN:23,_ZN8DataFlow10ApplicatorIf13VolumeControlED0Ev
FN:23,_ZN8DataFlow10ApplicatorIf13VolumeControlED2Ev
FN:23,_ZN8DataFlow10ApplicatorIf13VolumeControlEC2Ev
FN:29,_ZN8DataFlow10ApplicatorIf13VolumeControlE3getERKj
FN:41,_ZN8DataFlow10ApplicatorIf13VolumeControlE9getMethodEv
FN:51,_ZN8DataFlow10ApplicatorIf13VolumeControlE6attachERNS_7iSourceIfEE
FNDA:0,_ZN8DataFlow10ApplicatorIf13VolumeControlED0Ev
FNDA:0,_ZN8DataFlow10ApplicatorIf13VolumeControlED2Ev
FNDA:0,_ZN8DataFlow10ApplicatorIf13VolumeControlEC2Ev
FNDA:0,_ZN8DataFlow10ApplicatorIf13VolumeControlE3getERKj
FNDA:0,_ZN8DataFlow10ApplicatorIf13VolumeControlE9getMethodEv
FNDA:0,_ZN8DataFlow10ApplicatorIf13VolumeControlE6attachERNS_7iSourceIfEE
FNF:6
FNH:0
BRDA:31,0,1,-
BRDA:31,0,2,-
BRDA:32,4294967295,1,-
BRDA:32,4294967295,2,-
BRF:4
BRH:0
DA:23,0
DA:29,0
DA:31,0
DA:32,0
DA:33,0
DA:41,0
DA:42,0
DA:51,0
DA:53,0
DA:54,0
LF:10
LH:0
end_of_record
SF:/SharedWithWindows/Projects/diginstrument/inc/AudioSource.h
FN:33,_ZN5Mixer11AudioSourceC2ERKjS2_
FNDA:0,_ZN5Mixer11AudioSourceC2ERKjS2_
FNF:1
FNH:0
DA:33,0
LF:1
LH:0
end_of_record
SF:/SharedWithWindows/Projects/diginstrument/inc/ConsolidationMethods.h
FN:19,_ZN13Consolidation12AccumulationIfEC2Ev
FN:19,_ZN13Consolidation12AccumulationIfED0Ev
FN:19,_ZN13Consolidation12AccumulationIfED2Ev
FNDA:0,_ZN13Consolidation12AccumulationIfED0Ev
FNDA:0,_ZN13Consolidation12AccumulationIfED2Ev
FNDA:0,_ZN13Consolidation12AccumulationIfEC2Ev
FNF:3
FNH:0
DA:19,0
LF:1
LH:0
end_of_record
SF:/SharedWithWindows/Projects/diginstrument/inc/Consolidator.h
FN:20,_ZN8DataFlow12ConsolidatorIfN13Consolidation12AccumulationEED2Ev
FN:20,_ZN8DataFlow12ConsolidatorIfN13Consolidation12AccumulationEED0Ev
FN:20,_ZN8DataFlow12ConsolidatorIfN13Consolidation12AccumulationEEC2Ev
FN:31,_ZN8DataFlow12ConsolidatorIfN13Consolidation12AccumulationEE6attachERNS_7iSourceIfEE
FN:60,_ZN8DataFlow12ConsolidatorIfN13Consolidation12AccumulationEE3getERKj
FNDA:0,_ZN8DataFlow12ConsolidatorIfN13Consolidation12AccumulationEED0Ev
FNDA:0,_ZN8DataFlow12ConsolidatorIfN13Consolidation12AccumulationEED2Ev
FNDA:0,_ZN8DataFlow12ConsolidatorIfN13Consolidation12AccumulationEEC2Ev
FNDA:0,_ZN8DataFlow12ConsolidatorIfN13Consolidation12AccumulationEE6attachERNS_7iSourceIfEE
FNDA:0,_ZN8DataFlow12ConsolidatorIfN13Consolidation12AccumulationEE3getERKj
FNF:5
FNH:0
BRDA:32,0,2,-
BRDA:32,0,3,-
BRDA:61,0,4,-
BRDA:61,0,5,-
BRDA:62,0,1,-
BRDA:62,0,2,-
BRDA:63,0,4,-
BRDA:63,0,5,-
BRF:8
BRH:0
DA:20,0
DA:31,0
DA:32,0
DA:33,0
DA:60,0
DA:61,0
DA:62,0
DA:63,0
DA:65,0
LF:9
LH:0
end_of_record
SF:/SharedWithWindows/Projects/diginstrument/inc/SquareGenerator.h
FN:29,_ZN5Mixer15SquareGeneratorIfED0Ev
FN:29,_ZN5Mixer15SquareGeneratorIfED2Ev
FNDA:0,_ZN5Mixer15SquareGeneratorIfED0Ev
FNDA:0,_ZN5Mixer15SquareGeneratorIfED2Ev
FNF:2
FNH:0
DA:29,0
LF:1
LH:0
end_of_record
SF:/SharedWithWindows/Projects/diginstrument/inc/VolumeControl.h
FN:15,_ZN13VolumeControlIfED2Ev
FN:22,_ZN13VolumeControlIfE14stepTransitionERKi
FN:44,_ZN13VolumeControlIfE9setVolumeERKf
FN:55,_ZN13VolumeControlIfEclERSt6vectorIfSaIfEE
FN:183,_ZN13VolumeControlIfEC2Ev
FNDA:0,_ZN13VolumeControlIfED2Ev
FNDA:0,_ZN13VolumeControlIfE14stepTransitionERKi
FNDA:0,_ZN13VolumeControlIfE9setVolumeERKf
FNDA:0,_ZN13VolumeControlIfEclERSt6vectorIfSaIfEE
FNDA:0,_ZN13VolumeControlIfEC2Ev
FNF:5
FNH:0
BRDA:23,0,1,-
BRDA:23,0,2,-
BRDA:24,0,2,-
BRDA:24,0,3,-
BRDA:57,1,5,-
BRDA:57,1,6,-
BRDA:60,4294967295,1,-
BRDA:60,4294967295,2,-
BRF:8
BRH:0
DA:15,0
DA:22,0
DA:23,0
DA:24,0
DA:26,0
DA:44,0
DA:46,0
DA:47,0
DA:55,0
DA:57,0
DA:59,0
DA:60,0
DA:62,0
DA:183,0
LF:14
LH:0
end_of_record
SF:/SharedWithWindows/Projects/diginstrument/inc/iConsolidationMethod.h
FN:13,_ZN8DataFlow20iConsolidationMethodIfEC2Ev
FN:41,_ZN8DataFlow20iConsolidationMethodIfED2Ev
FN:41,_ZN8DataFlow20iConsolidationMethodIfED0Ev
FNDA:0,_ZN8DataFlow20iConsolidationMethodIfEC2Ev
FNDA:0,_ZN8DataFlow20iConsolidationMethodIfED0Ev
FNDA:0,_ZN8DataFlow20iConsolidationMethodIfED2Ev
FNF:3
FNH:0
DA:13,0
DA:41,0
LF:2
LH:0
end_of_record
SF:/SharedWithWindows/Projects/diginstrument/inc/iSource.h
FN:15,_ZN8DataFlow7iSourceIfEC2Ev
FN:28,_ZN8DataFlow7iSourceIfED2Ev
FN:28,_ZN8DataFlow7iSourceIfED0Ev
FNDA:0,_ZN8DataFlow7iSourceIfEC2Ev
FNDA:0,_ZN8DataFlow7iSourceIfED0Ev
FNDA:0,_ZN8DataFlow7iSourceIfED2Ev
FNF:3
FNH:0
DA:15,0
DA:28,0
LF:2
LH:0
end_of_record
SF:/SharedWithWindows/Projects/diginstrument/inc/iWaveformGenerator.h
FN:10,_ZN5Mixer18iWaveformGeneratorIfEC2Ev
FN:67,_ZN5Mixer18iWaveformGeneratorIfED2Ev
FN:67,_ZN5Mixer18iWaveformGeneratorIfED0Ev
FNDA:0,_ZN5Mixer18iWaveformGeneratorIfEC2Ev
FNDA:0,_ZN5Mixer18iWaveformGeneratorIfED0Ev
FNDA:0,_ZN5Mixer18iWaveformGeneratorIfED2Ev
FNF:3
FNH:0
DA:10,0
DA:67,0
LF:2
LH:0
end_of_record
SF:/SharedWithWindows/Projects/diginstrument/src/square_generator.cpp
FN:4,_ZN5Mixer15SquareGeneratorIfEC2ERKfRKjS5_S5_
FN:18,_ZN5Mixer15SquareGeneratorIfE3getERKj
FN:24,_ZNK5Mixer15SquareGeneratorIfE12getFrequencyEv
FN:30,_ZN5Mixer15SquareGeneratorIfE12setFrequencyERKf
FN:41,_ZN5Mixer15SquareGeneratorIfE12setFrequencyERKfS3_NSt7__cxx1112basic_stringIcSt11char_traitsIcESaIcEEERKj
FNDA:0,_ZN5Mixer15SquareGeneratorIfEC2ERKfRKjS5_S5_
FNDA:0,_ZN5Mixer15SquareGeneratorIfE3getERKj
FNDA:0,_ZNK5Mixer15SquareGeneratorIfE12getFrequencyEv
FNDA:0,_ZN5Mixer15SquareGeneratorIfE12setFrequencyERKf
FNDA:0,_ZN5Mixer15SquareGeneratorIfE12setFrequencyERKfS3_NSt7__cxx1112basic_stringIcSt11char_traitsIcESaIcEEERKj
FNF:5
FNH:0
BRDA:6,4294967295,1,-
BRDA:6,4294967295,2,-
BRDA:7,0,1,-
BRDA:7,0,2,-
BRDA:8,1,0,-
BRDA:8,1,1,-
BRDA:9,0,1,-
BRDA:9,0,2,-
BRDA:9,1,4,-
BRDA:9,1,5,-
BRDA:10,4294967295,1,-
BRDA:10,4294967295,2,-
BRDA:10,0,4,-
BRDA:10,0,5,-
BRDA:13,4294967295,3,-
BRDA:13,4294967295,4,-
BRDA:33,1,5,-
BRDA:33,1,6,-
BRDA:34,4294967295,2,-
BRDA:34,4294967295,3,-
BRDA:44,1,5,-
BRDA:44,1,6,-
BRDA:45,4294967295,2,-
BRDA:45,4294967295,3,-
BRDA:45,0,5,-
BRDA:45,0,6,-
BRF:26
BRH:0
DA:4,0
DA:6,0
DA:7,0
DA:8,0
DA:9,0
DA:10,0
DA:11,0
DA:12,0
DA:13,0
DA:15,0
DA:18,0
DA:20,0
DA:24,0
DA:26,0
DA:30,0
DA:32,0
DA:33,0
DA:34,0
DA:35,0
DA:37,0
DA:38,0
DA:41,0
DA:43,0
DA:44,0
DA:45,0
DA:46,0
DA:48,0
DA:49,0
LF:28
LH:0
end_of_record
TN:
SF:/SharedWithWindows/Projects/diginstrument/inc/Applicator.h
FN:23,_ZN8DataFlow10ApplicatorIf13VolumeControlEC2Ev
FN:23,_ZN8DataFlow10ApplicatorIf13VolumeControlED2Ev
FN:23,_ZN8DataFlow10ApplicatorIf13VolumeControlED0Ev
FN:29,_ZN8DataFlow10ApplicatorIf13VolumeControlE3getERKj
FN:41,_ZN8DataFlow10ApplicatorIf13VolumeControlE9getMethodEv
FN:51,_ZN8DataFlow10ApplicatorIf13VolumeControlE6attachERNS_7iSourceIfEE
FNDA:0,_ZN8DataFlow10ApplicatorIf13VolumeControlED0Ev
FNDA:0,_ZN8DataFlow10ApplicatorIf13VolumeControlED2Ev
FNDA:0,_ZN8DataFlow10ApplicatorIf13VolumeControlEC2Ev
FNDA:0,_ZN8DataFlow10ApplicatorIf13VolumeControlE3getERKj
FNDA:0,_ZN8DataFlow10ApplicatorIf13VolumeControlE9getMethodEv
FNDA:0,_ZN8DataFlow10ApplicatorIf13VolumeControlE6attachERNS_7iSourceIfEE
FNF:6
FNH:0
BRDA:31,0,1,-
BRDA:31,0,2,-
BRDA:32,4294967295,1,-
BRDA:32,4294967295,2,-
BRF:4
BRH:0
DA:23,0
DA:29,0
DA:31,0
DA:32,0
DA:33,0
DA:41,0
DA:42,0
DA:51,0
DA:53,0
DA:54,0
LF:10
LH:0
end_of_record
SF:/SharedWithWindows/Projects/diginstrument/inc/AudioSource.h
FN:33,_ZN5Mixer11AudioSourceC2ERKjS2_
FNDA:0,_ZN5Mixer11AudioSourceC2ERKjS2_
FNF:1
FNH:0
DA:33,0
LF:1
LH:0
end_of_record
SF:/SharedWithWindows/Projects/diginstrument/inc/ConsolidationMethods.h
FN:19,_ZN13Consolidation12AccumulationIfEC2Ev
FN:19,_ZN13Consolidation12AccumulationIfED2Ev
FN:19,_ZN13Consolidation12AccumulationIfED0Ev
FNDA:0,_ZN13Consolidation12AccumulationIfED0Ev
FNDA:0,_ZN13Consolidation12AccumulationIfED2Ev
FNDA:0,_ZN13Consolidation12AccumulationIfEC2Ev
FNF:3
FNH:0
DA:19,0
LF:1
LH:0
end_of_record
SF:/SharedWithWindows/Projects/diginstrument/inc/Consolidator.h
FN:20,_ZN8DataFlow12ConsolidatorIfN13Consolidation12AccumulationEEC2Ev
FN:20,_ZN8DataFlow12ConsolidatorIfN13Consolidation12AccumulationEED2Ev
FN:20,_ZN8DataFlow12ConsolidatorIfN13Consolidation12AccumulationEED0Ev
FN:31,_ZN8DataFlow12ConsolidatorIfN13Consolidation12AccumulationEE6attachERNS_7iSourceIfEE
FN:60,_ZN8DataFlow12ConsolidatorIfN13Consolidation12AccumulationEE3getERKj
FNDA:0,_ZN8DataFlow12ConsolidatorIfN13Consolidation12AccumulationEED0Ev
FNDA:0,_ZN8DataFlow12ConsolidatorIfN13Consolidation12AccumulationEED2Ev
FNDA:0,_ZN8DataFlow12ConsolidatorIfN13Consolidation12AccumulationEEC2Ev
FNDA:0,_ZN8DataFlow12ConsolidatorIfN13Consolidation12AccumulationEE6attachERNS_7iSourceIfEE
FNDA:0,_ZN8DataFlow12ConsolidatorIfN13Consolidation12AccumulationEE3getERKj
FNF:5
FNH:0
BRDA:32,0,2,-
BRDA:32,0,3,-
BRDA:61,0,4,-
BRDA:61,0,5,-
BRDA:62,0,1,-
BRDA:62,0,2,-
BRDA:63,0,4,-
BRDA:63,0,5,-
BRF:8
BRH:0
DA:20,0
DA:31,0
DA:32,0
DA:33,0
DA:60,0
DA:61,0
DA:62,0
DA:63,0
DA:65,0
LF:9
LH:0
end_of_record
SF:/SharedWithWindows/Projects/diginstrument/inc/TriangleGenerator.h
FN:29,_ZN5Mixer17TriangleGeneratorIfED0Ev
FN:29,_ZN5Mixer17TriangleGeneratorIfED2Ev
FNDA:0,_ZN5Mixer17TriangleGeneratorIfED0Ev
FNDA:0,_ZN5Mixer17TriangleGeneratorIfED2Ev
FNF:2
FNH:0
DA:29,0
LF:1
LH:0
end_of_record
SF:/SharedWithWindows/Projects/diginstrument/inc/VolumeControl.h
FN:15,_ZN13VolumeControlIfED2Ev
FN:22,_ZN13VolumeControlIfE14stepTransitionERKi
FN:44,_ZN13VolumeControlIfE9setVolumeERKf
FN:55,_ZN13VolumeControlIfEclERSt6vectorIfSaIfEE
FN:183,_ZN13VolumeControlIfEC2Ev
FNDA:0,_ZN13VolumeControlIfED2Ev
FNDA:0,_ZN13VolumeControlIfE14stepTransitionERKi
FNDA:0,_ZN13VolumeControlIfE9setVolumeERKf
FNDA:0,_ZN13VolumeControlIfEclERSt6vectorIfSaIfEE
FNDA:0,_ZN13VolumeControlIfEC2Ev
FNF:5
FNH:0
BRDA:23,0,1,-
BRDA:23,0,2,-
BRDA:24,0,2,-
BRDA:24,0,3,-
BRDA:57,1,5,-
BRDA:57,1,6,-
BRDA:60,4294967295,1,-
BRDA:60,4294967295,2,-
BRF:8
BRH:0
DA:15,0
DA:22,0
DA:23,0
DA:24,0
DA:26,0
DA:44,0
DA:46,0
DA:47,0
DA:55,0
DA:57,0
DA:59,0
DA:60,0
DA:62,0
DA:183,0
LF:14
LH:0
end_of_record
SF:/SharedWithWindows/Projects/diginstrument/inc/iConsolidationMethod.h
FN:13,_ZN8DataFlow20iConsolidationMethodIfEC2Ev
FN:41,_ZN8DataFlow20iConsolidationMethodIfED2Ev
FN:41,_ZN8DataFlow20iConsolidationMethodIfED0Ev
FNDA:0,_ZN8DataFlow20iConsolidationMethodIfEC2Ev
FNDA:0,_ZN8DataFlow20iConsolidationMethodIfED0Ev
FNDA:0,_ZN8DataFlow20iConsolidationMethodIfED2Ev
FNF:3
FNH:0
DA:13,0
DA:41,0
LF:2
LH:0
end_of_record
SF:/SharedWithWindows/Projects/diginstrument/inc/iSource.h
FN:15,_ZN8DataFlow7iSourceIfEC2Ev
FN:28,_ZN8DataFlow7iSourceIfED2Ev
FN:28,_ZN8DataFlow7iSourceIfED0Ev
FNDA:0,_ZN8DataFlow7iSourceIfEC2Ev
FNDA:0,_ZN8DataFlow7iSourceIfED0Ev
FNDA:0,_ZN8DataFlow7iSourceIfED2Ev
FNF:3
FNH:0
DA:15,0
DA:28,0
LF:2
LH:0
end_of_record
SF:/SharedWithWindows/Projects/diginstrument/inc/iWaveformGenerator.h
FN:10,_ZN5Mixer18iWaveformGeneratorIfEC2Ev
FN:67,_ZN5Mixer18iWaveformGeneratorIfED2Ev
FN:67,_ZN5Mixer18iWaveformGeneratorIfED0Ev
FNDA:0,_ZN5Mixer18iWaveformGeneratorIfEC2Ev
FNDA:0,_ZN5Mixer18iWaveformGeneratorIfED0Ev
FNDA:0,_ZN5Mixer18iWaveformGeneratorIfED2Ev
FNF:3
FNH:0
DA:10,0
DA:67,0
LF:2
LH:0
end_of_record
SF:/SharedWithWindows/Projects/diginstrument/src/triangle_generator.cpp
FN:4,_ZN5Mixer17TriangleGeneratorIfEC2ERKfRKjS5_S5_
FN:18,_ZN5Mixer17TriangleGeneratorIfE3getERKj
FN:24,_ZNK5Mixer17TriangleGeneratorIfE12getFrequencyEv
FN:30,_ZN5Mixer17TriangleGeneratorIfE12setFrequencyERKf
FN:41,_ZN5Mixer17TriangleGeneratorIfE12setFrequencyERKfS3_NSt7__cxx1112basic_stringIcSt11char_traitsIcESaIcEEERKj
FNDA:0,_ZN5Mixer17TriangleGeneratorIfEC2ERKfRKjS5_S5_
FNDA:0,_ZN5Mixer17TriangleGeneratorIfE3getERKj
FNDA:0,_ZNK5Mixer17TriangleGeneratorIfE12getFrequencyEv
FNDA:0,_ZN5Mixer17TriangleGeneratorIfE12setFrequencyERKf
FNDA:0,_ZN5Mixer17TriangleGeneratorIfE12setFrequencyERKfS3_NSt7__cxx1112basic_stringIcSt11char_traitsIcESaIcEEERKj
FNF:5
FNH:0
BRDA:6,4294967295,1,-
BRDA:6,4294967295,2,-
BRDA:7,0,1,-
BRDA:7,0,2,-
BRDA:8,1,0,-
BRDA:8,1,1,-
BRDA:9,0,1,-
BRDA:9,0,2,-
BRDA:9,1,4,-
BRDA:9,1,5,-
BRDA:10,4294967295,1,-
BRDA:10,4294967295,2,-
BRDA:10,0,4,-
BRDA:10,0,5,-
BRDA:13,4294967295,3,-
BRDA:13,4294967295,4,-
BRDA:33,1,5,-
BRDA:33,1,6,-
BRDA:34,4294967295,2,-
BRDA:34,4294967295,3,-
BRDA:44,1,5,-
BRDA:44,1,6,-
BRDA:45,4294967295,2,-
BRDA:45,4294967295,3,-
BRDA:45,0,5,-
BRDA:45,0,6,-
BRF:26
BRH:0
DA:4,0
DA:6,0
DA:7,0
DA:8,0
DA:9,0
DA:10,0
DA:11,0
DA:12,0
DA:13,0
DA:15,0
DA:18,0
DA:20,0
DA:24,0
DA:26,0
DA:30,0
DA:32,0
DA:33,0
DA:34,0
DA:35,0
DA:37,0
DA:38,0
DA:41,0
DA:43,0
DA:44,0
DA:45,0
DA:46,0
DA:48,0
DA:49,0
LF:28
LH:0
end_of_record
TN:
SF:/SharedWithWindows/Projects/diginstrument/src/vorbis_decoder.cpp
FN:3,_ZN13VorbisDecoderC2Ev
FN:9,_ZN13VorbisDecoder11addToHeaderER10ogg_packet
FN:14,_ZNK13VorbisDecoder11getCommentsB5cxx11Ev
FN:27,_ZNK13VorbisDecoder11getChannelsEv
FN:31,_ZNK13VorbisDecoder13getSampleRateEv
FN:35,_ZNK13VorbisDecoder9getVendorB5cxx11Ev
FN:39,_ZN13VorbisDecoder5clearEv
FN:48,_ZN13VorbisDecoder12initDecodingEv
FN:55,_ZN13VorbisDecoder6decodeER10ogg_packet
FN:76,_ZN13VorbisDecoderD2Ev
FNDA:0,_ZN13VorbisDecoderC2Ev
FNDA:0,_ZN13VorbisDecoder11addToHeaderER10ogg_packet
FNDA:0,_ZNK13VorbisDecoder11getCommentsB5cxx11Ev
FNDA:0,_ZNK13VorbisDecoder11getChannelsEv
FNDA:0,_ZNK13VorbisDecoder13getSampleRateEv
FNDA:0,_ZNK13VorbisDecoder9getVendorB5cxx11Ev
FNDA:0,_ZN13VorbisDecoder5clearEv
FNDA:0,_ZN13VorbisDecoder12initDecodingEv
FNDA:0,_ZN13VorbisDecoder6decodeER10ogg_packet
FNDA:0,_ZN13VorbisDecoderD2Ev
FNF:10
FNH:0
BRDA:18,4294967295,0,-
BRDA:18,4294967295,1,-
BRDA:19,0,0,-
BRDA:19,0,1,-
BRDA:21,0,2,-
BRDA:21,0,3,-
BRDA:21,1,5,-
BRDA:21,1,6,-
BRDA:36,0,2,-
BRDA:36,0,3,-
BRDA:40,0,0,-
BRDA:40,0,1,-
BRDA:57,4294967295,1,-
BRDA:57,4294967295,2,-
BRDA:57,0,3,-
BRDA:57,0,4,-
BRDA:58,0,1,-
BRDA:58,0,2,-
BRDA:59,0,1,-
BRDA:59,0,2,-
BRDA:59,1,4,-
BRDA:59,1,5,-
BRDA:64,0,1,-
BRDA:64,0,2,-
BRDA:64,1,3,-
BRDA:64,1,4,-
BRDA:65,1,0,-
BRDA:65,1,1,-
BRDA:66,1,0,-
BRDA:66,1,1,-
BRDA:67,0,1,-
BRDA:67,0,2,-
BRDA:70,0,1,-
BRDA:70,0,2,-
BRF:34
BRH:0
DA:3,0
DA:5,0
DA:6,0
DA:7,0
DA:9,0
DA:11,0
DA:14,0
DA:16,0
DA:17,0
DA:18,0
DA:19,0
DA:21,0
DA:22,0
DA:24,0
DA:27,0
DA:28,0
DA:31,0
DA:32,0
DA:35,0
DA:36,0
DA:39,0
DA:40,0
DA:41,0
DA:42,0
DA:44,0
DA:45,0
DA:46,0
DA:48,0
DA:49,0
DA:50,0
DA:51,0
DA:52,0
DA:55,0
DA:56,0
DA:57,0
DA:58,0
DA:59,0
DA:64,0
DA:65,0
DA:66,0
DA:67,0
DA:70,0
DA:72,0
DA:76,0
DA:77,0
DA:78,0
LF:46
LH:0
end_of_record
TN:
SF:/SharedWithWindows/Projects/diginstrument/src/vorbis_encoder.cpp
FN:3,_ZN13VorbisEncoderC2ERKjS1_RKf
FN:22,_ZN13VorbisEncoder4openERKNSt7__cxx1112basic_stringIcSt11char_traitsIcESaIcEEE
FN:27,_ZN13VorbisEncoder10addCommentENSt7__cxx1112basic_stringIcSt11char_traitsIcESaIcEEES5_
FN:31,_ZN13VorbisEncoder12initEncodingEv
FN:56,_ZN13VorbisEncoder3addESt6vectorIfSaIfEE
FN:84,_ZN13VorbisEncoder5closeEv
FN:114,_ZN13VorbisEncoderD2Ev
FNDA:0,_ZN13VorbisEncoderC2ERKjS1_RKf
FNDA:0,_ZN13VorbisEncoder4openERKNSt7__cxx1112basic_stringIcSt11char_traitsIcESaIcEEE
FNDA:0,_ZN13VorbisEncoder10addCommentENSt7__cxx1112basic_stringIcSt11char_traitsIcESaIcEEES5_
FNDA:0,_ZN13VorbisEncoder12initEncodingEv
FNDA:0,_ZN13VorbisEncoder3addESt6vectorIfSaIfEE
FNDA:0,_ZN13VorbisEncoder5closeEv
FNDA:0,_ZN13VorbisEncoderD2Ev
FNF:7
FNH:0
BRDA:4,4294967295,1,-
BRDA:4,4294967295,2,-
BRDA:6,0,0,-
BRDA:6,0,1,-
BRDA:9,0,0,-
BRDA:9,0,1,-
BRDA:12,0,1,-
BRDA:12,0,2,-
BRDA:13,0,1,-
BRDA:13,0,2,-
BRDA:14,0,1,-
BRDA:14,0,2,-
BRDA:15,0,1,-
BRDA:15,0,2,-
BRDA:19,4294967295,2,-
BRDA:19,4294967295,3,-
BRDA:38,0,1,-
BRDA:38,0,2,-
BRDA:39,0,0,-
BRDA:39,0,1,-
BRDA:40,0,1,-
BRDA:40,0,2,-
BRDA:41,0,0,-
BRDA:41,0,1,-
BRDA:42,0,1,-
BRDA:42,0,2,-
BRDA:43,0,0,-
BRDA:43,0,1,-
BRDA:44,0,1,-
BRDA:44,0,2,-
BRDA:45,0,0,-
BRDA:45,0,1,-
BRDA:47,0,0,-
BRDA:47,0,1,-
BRDA:48,0,1,-
BRDA:48,0,2,-
BRDA:49,0,0,-
BRDA:49,0,1,-
BRDA:50,0,1,-
BRDA:50,0,2,-
BRDA:51,0,1,-
BRDA:51,0,2,-
BRDA:60,0,1,-
BRDA:60,0,2,-
BRDA:61,1,0,-
BRDA:61,1,1,-
BRDA:68,0,1,-
BRDA:68,0,2,-
BRDA:73,0,1,-
BRDA:73,0,2,-
BRDA:76,0,1,-
BRDA:76,0,2,-
BRDA:86,0,1,-
BRDA:86,0,2,-
BRDA:90,0,1,-
BRDA:90,0,2,-
BRDA:93,0,1,-
BRDA:93,0,2,-
BRDA:101,4294967295,0,-
BRDA:101,4294967295,1,-
BRF:60
BRH:0
DA:3,0
DA:4,0
DA:6,0
DA:7,0
DA:9,0
DA:10,0
DA:12,0
DA:13,0
DA:14,0
DA:15,0
DA:18,0
DA:19,0
DA:20,0
DA:22,0
DA:23,0
DA:24,0
DA:27,0
DA:28,0
DA:29,0
DA:31,0
DA:38,0
DA:39,0
DA:40,0
DA:41,0
DA:42,0
DA:43,0
DA:44,0
DA:45,0
DA:47,0
DA:48,0
DA:49,0
DA:50,0
DA:51,0
DA:53,0
DA:56,0
DA:57,0
DA:59,0
DA:60,0
DA:61,0
DA:62,0
DA:63,0
DA:66,0
DA:68,0
DA:70,0
DA:71,0
DA:73,0
DA:74,0
DA:76,0
DA:77,0
DA:78,0
DA:82,0
DA:84,0
DA:85,0
DA:86,0
DA:87,0
DA:88,0
DA:90,0
DA:91,0
DA:93,0
DA:94,0
DA:95,0
DA:100,0
DA:101,0
DA:102,0
DA:103,0
DA:105,0
DA:106,0
DA:107,0
DA:108,0
DA:109,0
DA:110,0
DA:111,0
DA:114,0
DA:115,0
DA:116,0
DA:117,0
DA:118,0
DA:119,0
DA:120,0
DA:121,0
LF:80
LH:0
end_of_record
