TN:
SF:/SharedWithWindows/Projects/diginstrument/inc/Applicator.h
FN:23,_ZN8DataFlow10ApplicatorIf21ApplicatorTestFunctorED2Ev
FN:23,_ZN8DataFlow10ApplicatorIf21ApplicatorTestFunctorEC2Ev
FN:23,_ZN8DataFlow10ApplicatorIf21ApplicatorTestFunctorED0Ev
FN:29,_ZN8DataFlow10ApplicatorIf21ApplicatorTestFunctorE3getERKj
FN:51,_ZN8DataFlow10ApplicatorIf21ApplicatorTestFunctorE6attachERNS_7iSourceIfEE
FNDA:0,_ZN8DataFlow10ApplicatorIf21ApplicatorTestFunctorED0Ev
FNDA:3,_ZN8DataFlow10ApplicatorIf21ApplicatorTestFunctorED2Ev
FNDA:3,_ZN8DataFlow10ApplicatorIf21ApplicatorTestFunctorEC2Ev
FNDA:4,_ZN8DataFlow10ApplicatorIf21ApplicatorTestFunctorE3getERKj
FNDA:3,_ZN8DataFlow10ApplicatorIf21ApplicatorTestFunctorE6attachERNS_7iSourceIfEE
FNF:5
FNH:4
BRDA:31,0,1,4
BRDA:31,0,2,0
BRF:2
BRH:1
DA:23,12
DA:29,4
DA:31,8
DA:32,4
DA:33,8
DA:51,3
DA:53,3
DA:54,3
LF:8
LH:8
end_of_record
SF:/SharedWithWindows/Projects/diginstrument/inc/RepeatingBuffer.h
FN:15,_ZN8DataFlow15RepeatingBufferIfED0Ev
FN:15,_ZN8DataFlow15RepeatingBufferIfED2Ev
FNDA:0,_ZN8DataFlow15RepeatingBufferIfED0Ev
FNDA:52,_ZN8DataFlow15RepeatingBufferIfED2Ev
FNF:2
FNH:1
DA:15,104
LF:1
LH:1
end_of_record
SF:/SharedWithWindows/Projects/diginstrument/inc/iBuffer.h
FN:23,_ZN8DataFlow7iBufferIfED0Ev
FN:23,_ZN8DataFlow7iBufferIfED2Ev
FNDA:0,_ZN8DataFlow7iBufferIfED0Ev
FNDA:65,_ZN8DataFlow7iBufferIfED2Ev
FNF:2
FNH:1
DA:23,130
LF:1
LH:1
end_of_record
SF:/SharedWithWindows/Projects/diginstrument/inc/iSource.h
FN:15,_ZN8DataFlow7iSourceIfEC2Ev
FN:28,_ZN8DataFlow7iSourceIfED2Ev
FN:28,_ZN8DataFlow7iSourceIfED0Ev
FNDA:1370,_ZN8DataFlow7iSourceIfEC2Ev
FNDA:0,_ZN8DataFlow7iSourceIfED0Ev
FNDA:1370,_ZN8DataFlow7iSourceIfED2Ev
FNF:3
FNH:2
DA:15,1370
DA:28,1370
LF:2
LH:2
end_of_record
SF:/SharedWithWindows/Projects/diginstrument/mixer_test/applicator_test.cpp
FN:14,_ZN21ApplicatorTestFunctorIfEclERSt6vectorIfSaIfEE
FN:23,_ZN12_GLOBAL__N_114ApplicatorTestD2Ev
FN:26,_ZN12_GLOBAL__N_114ApplicatorTest5SetUpEv
FN:27,_ZN12_GLOBAL__N_114ApplicatorTest8TearDownEv
FN:32,_ZN12_GLOBAL__N_114ApplicatorTestC2Ev
FN:35,_ZN12_GLOBAL__N_126ApplicatorTest_attach_TestD0Ev
FN:35,_ZN12_GLOBAL__N_126ApplicatorTest_attach_Test8TestBodyEv
FN:35,_ZN12_GLOBAL__N_126ApplicatorTest_attach_TestD2Ev
FN:35,_ZN12_GLOBAL__N_126ApplicatorTest_attach_TestC2Ev
FN:42,_ZN12_GLOBAL__N_127ApplicatorTest_getSize_TestD0Ev
FN:42,_ZN12_GLOBAL__N_127ApplicatorTest_getSize_Test8TestBodyEv
FN:42,_ZN12_GLOBAL__N_127ApplicatorTest_getSize_TestD2Ev
FN:42,_ZN12_GLOBAL__N_127ApplicatorTest_getSize_TestC2Ev
FN:57,_ZN12_GLOBAL__N_131ApplicatorTest_usesFunctor_TestC2Ev
FN:57,_ZN12_GLOBAL__N_131ApplicatorTest_usesFunctor_Test8TestBodyEv
FN:57,_ZN12_GLOBAL__N_131ApplicatorTest_usesFunctor_TestD0Ev
FN:57,_ZN12_GLOBAL__N_131ApplicatorTest_usesFunctor_TestD2Ev
FN:67,_Z41__static_initialization_and_destruction_0ii
FN:67,_GLOBAL__sub_I_applicator_test.cpp
FNDA:4,_ZN21ApplicatorTestFunctorIfEclERSt6vectorIfSaIfEE
FNDA:3,_ZN12_GLOBAL__N_114ApplicatorTestD2Ev
FNDA:3,_ZN12_GLOBAL__N_114ApplicatorTest5SetUpEv
FNDA:3,_ZN12_GLOBAL__N_114ApplicatorTest8TearDownEv
FNDA:3,_ZN12_GLOBAL__N_114ApplicatorTestC2Ev
FNDA:1,_ZN12_GLOBAL__N_126ApplicatorTest_attach_TestD0Ev
FNDA:1,_ZN12_GLOBAL__N_126ApplicatorTest_attach_TestD2Ev
FNDA:1,_ZN12_GLOBAL__N_126ApplicatorTest_attach_Test8TestBodyEv
FNDA:1,_ZN12_GLOBAL__N_126ApplicatorTest_attach_TestC2Ev
FNDA:1,_ZN12_GLOBAL__N_127ApplicatorTest_getSize_TestD0Ev
FNDA:1,_ZN12_GLOBAL__N_127ApplicatorTest_getSize_TestD2Ev
FNDA:1,_ZN12_GLOBAL__N_127ApplicatorTest_getSize_Test8TestBodyEv
FNDA:1,_ZN12_GLOBAL__N_127ApplicatorTest_getSize_TestC2Ev
FNDA:1,_ZN12_GLOBAL__N_131ApplicatorTest_usesFunctor_TestD0Ev
FNDA:1,_ZN12_GLOBAL__N_131ApplicatorTest_usesFunctor_TestD2Ev
FNDA:1,_ZN12_GLOBAL__N_131ApplicatorTest_usesFunctor_Test8TestBodyEv
FNDA:1,_ZN12_GLOBAL__N_131ApplicatorTest_usesFunctor_TestC2Ev
FNDA:1,_GLOBAL__sub_I_applicator_test.cpp
FNDA:1,_Z41__static_initialization_and_destruction_0ii
FNF:19
FNH:19
BRDA:15,1,5,1643
BRDA:15,1,6,4
BRDA:32,1,3,3
BRDA:32,1,4,0
BRDA:32,2,7,3
BRDA:32,2,8,0
BRDA:32,3,14,3
BRDA:32,3,15,0
BRDA:32,4,18,3
BRDA:32,4,19,0
BRDA:35,4294967295,5,1
BRDA:35,4294967295,6,0
BRDA:35,0,8,1
BRDA:35,0,9,0
BRDA:35,1,12,1
BRDA:35,1,13,0
BRDA:39,4294967295,1,1
BRDA:39,4294967295,2,0
BRDA:39,0,3,1
BRDA:39,0,4,0
BRDA:39,1,6,1
BRDA:39,1,7,0
BRDA:39,2,8,1
BRDA:39,2,9,0
BRDA:39,3,11,1
BRDA:39,3,12,0
BRDA:39,5,15,-
BRDA:39,5,16,-
BRDA:39,6,18,-
BRDA:39,6,19,-
BRDA:39,7,21,-
BRDA:39,7,22,-
BRDA:39,8,27,-
BRDA:39,8,28,-
BRDA:42,4294967295,5,1
BRDA:42,4294967295,6,0
BRDA:42,0,8,1
BRDA:42,0,9,0
BRDA:42,1,12,1
BRDA:42,1,13,0
BRDA:49,4294967295,1,1
BRDA:49,4294967295,2,0
BRDA:49,0,3,1
BRDA:49,0,4,0
BRDA:49,1,6,1
BRDA:49,1,7,0
BRDA:49,2,8,1
BRDA:49,2,9,0
BRDA:49,3,11,1
BRDA:49,3,12,0
BRDA:49,5,16,-
BRDA:49,5,17,-
BRDA:49,6,19,-
BRDA:49,6,20,-
BRDA:49,7,22,-
BRDA:49,7,23,-
BRDA:49,8,28,-
BRDA:49,8,29,-
BRDA:50,0,2,1
BRDA:50,0,3,0
BRDA:50,1,5,1
BRDA:50,1,6,0
BRDA:50,2,9,0
BRDA:50,2,10,1
BRDA:50,3,12,-
BRDA:50,3,13,-
BRDA:50,4,15,-
BRDA:50,4,16,-
BRDA:50,5,18,-
BRDA:50,5,19,-
BRDA:50,6,21,-
BRDA:50,6,22,-
BRDA:53,4294967295,1,1
BRDA:53,4294967295,2,0
BRDA:53,0,3,1
BRDA:53,0,4,0
BRDA:53,1,6,1
BRDA:53,1,7,0
BRDA:53,2,8,1
BRDA:53,2,9,0
BRDA:53,3,11,1
BRDA:53,3,12,0
BRDA:53,5,16,-
BRDA:53,5,17,-
BRDA:53,6,19,-
BRDA:53,6,20,-
BRDA:53,7,22,-
BRDA:53,7,23,-
BRDA:53,8,28,-
BRDA:53,8,29,-
BRDA:54,0,2,1
BRDA:54,0,3,0
BRDA:54,1,5,1
BRDA:54,1,6,0
BRDA:54,2,9,0
BRDA:54,2,10,1
BRDA:54,3,12,-
BRDA:54,3,13,-
BRDA:54,4,15,-
BRDA:54,4,16,-
BRDA:54,5,18,-
BRDA:54,5,19,-
BRDA:54,6,21,-
BRDA:54,6,22,-
BRDA:57,4294967295,5,1
BRDA:57,4294967295,6,0
BRDA:57,0,8,1
BRDA:57,0,9,0
BRDA:57,1,12,1
BRDA:57,1,13,0
BRDA:62,4294967295,1,1
BRDA:62,4294967295,2,0
BRDA:62,0,3,1
BRDA:62,0,4,0
BRDA:62,1,6,1
BRDA:62,1,7,0
BRDA:62,2,8,1
BRDA:62,2,9,0
BRDA:62,3,11,1
BRDA:62,3,12,0
BRDA:62,5,16,-
BRDA:62,5,17,-
BRDA:62,6,19,-
BRDA:62,6,20,-
BRDA:62,7,22,-
BRDA:62,7,23,-
BRDA:62,8,28,-
BRDA:62,8,29,-
BRDA:63,1,5,512
BRDA:63,1,6,1
BRDA:64,4294967295,1,512
BRDA:64,4294967295,2,0
BRDA:64,0,4,512
BRDA:64,0,5,0
BRDA:64,1,8,0
BRDA:64,1,9,512
BRDA:64,2,11,-
BRDA:64,2,12,-
BRDA:64,3,14,-
BRDA:64,3,15,-
BRDA:64,4,17,-
BRDA:64,4,18,-
BRDA:64,5,20,-
BRDA:64,5,21,-
BRDA:67,3,1,1
BRDA:67,3,2,0
BRDA:67,4,3,1
BRDA:67,4,4,0
BRF:148
BRH:48
DA:14,4
DA:15,1647
DA:16,1643
DA:18,4
DA:23,6
DA:26,3
DA:27,3
DA:32,3
DA:35,8
DA:37,2
DA:38,1
DA:39,1
DA:40,1
DA:42,8
DA:44,2
DA:45,1
DA:46,2
DA:48,1
DA:49,1
DA:50,1
DA:52,1
DA:53,1
DA:54,1
DA:55,1
DA:57,8
DA:59,2
DA:60,1
DA:61,2
DA:62,1
DA:63,513
DA:64,512
DA:66,1
DA:67,4
LF:33
LH:33
end_of_record
TN:
SF:/SharedWithWindows/Projects/diginstrument/inc/CheapSawtoothGenerator.h
FN:26,_ZN5Mixer22CheapSawtoothGeneratorIfED2Ev
FN:26,_ZN5Mixer22CheapSawtoothGeneratorIfED0Ev
FNDA:0,_ZN5Mixer22CheapSawtoothGeneratorIfED0Ev
FNDA:5,_ZN5Mixer22CheapSawtoothGeneratorIfED2Ev
FNF:2
FNH:1
DA:26,10
LF:1
LH:1
end_of_record
SF:/SharedWithWindows/Projects/diginstrument/inc/iSource.h
FN:28,_ZN8DataFlow7iSourceIfED2Ev
FN:28,_ZN8DataFlow7iSourceIfED0Ev
FNDA:0,_ZN8DataFlow7iSourceIfED0Ev
FNDA:0,_ZN8DataFlow7iSourceIfED2Ev
FNF:2
FNH:0
DA:28,0
LF:1
LH:0
end_of_record
SF:/SharedWithWindows/Projects/diginstrument/inc/iWaveformGenerator.h
FN:67,_ZN5Mixer18iWaveformGeneratorIfED0Ev
FN:67,_ZN5Mixer18iWaveformGeneratorIfED2Ev
FNDA:0,_ZN5Mixer18iWaveformGeneratorIfED0Ev
FNDA:644,_ZN5Mixer18iWaveformGeneratorIfED2Ev
FNF:2
FNH:1
DA:67,1288
LF:1
LH:1
end_of_record
SF:/SharedWithWindows/Projects/diginstrument/mixer_test/cheap_sawtooth_generator_test.cpp
FN:12,_ZN12_GLOBAL__N_126CheapSawtoothGeneratorTestD2Ev
FN:15,_ZN12_GLOBAL__N_126CheapSawtoothGeneratorTest5SetUpEv
FN:16,_ZN12_GLOBAL__N_126CheapSawtoothGeneratorTest8TearDownEv
FN:20,_ZN12_GLOBAL__N_126CheapSawtoothGeneratorTestC2Ev
FN:22,_ZN12_GLOBAL__N_144CheapSawtoothGeneratorTest_getFrequency_TestD0Ev
FN:22,_ZN12_GLOBAL__N_144CheapSawtoothGeneratorTest_getFrequency_Test8TestBodyEv
FN:22,_ZN12_GLOBAL__N_144CheapSawtoothGeneratorTest_getFrequency_TestD2Ev
FN:22,_ZN12_GLOBAL__N_144CheapSawtoothGeneratorTest_getFrequency_TestC2Ev
FN:27,_ZN12_GLOBAL__N_144CheapSawtoothGeneratorTest_setFrequency_TestC2Ev
FN:27,_ZN12_GLOBAL__N_144CheapSawtoothGeneratorTest_setFrequency_Test8TestBodyEv
FN:27,_ZN12_GLOBAL__N_144CheapSawtoothGeneratorTest_setFrequency_TestD0Ev
FN:27,_ZN12_GLOBAL__N_144CheapSawtoothGeneratorTest_setFrequency_TestD2Ev
FN:34,_ZN12_GLOBAL__N_158CheapSawtoothGeneratorTest_setFrequencyWithTransition_TestD2Ev
FN:34,_ZN12_GLOBAL__N_158CheapSawtoothGeneratorTest_setFrequencyWithTransition_TestC2Ev
FN:34,_ZN12_GLOBAL__N_158CheapSawtoothGeneratorTest_setFrequencyWithTransition_TestD0Ev
FN:34,_ZN12_GLOBAL__N_158CheapSawtoothGeneratorTest_setFrequencyWithTransition_Test8TestBodyEv
FN:43,_ZN12_GLOBAL__N_158CheapSawtoothGeneratorTest_differentTransitionMethods_TestD0Ev
FN:43,_ZN12_GLOBAL__N_158CheapSawtoothGeneratorTest_differentTransitionMethods_TestC2Ev
FN:43,_ZN12_GLOBAL__N_158CheapSawtoothGeneratorTest_differentTransitionMethods_TestD2Ev
FN:43,_ZN12_GLOBAL__N_158CheapSawtoothGeneratorTest_differentTransitionMethods_Test8TestBodyEv
FN:100,_ZN12_GLOBAL__N_139CheapSawtoothGeneratorTest_getSize_TestD2Ev
FN:100,_ZN12_GLOBAL__N_139CheapSawtoothGeneratorTest_getSize_TestD0Ev
FN:100,_ZN12_GLOBAL__N_139CheapSawtoothGeneratorTest_getSize_Test8TestBodyEv
FN:100,_ZN12_GLOBAL__N_139CheapSawtoothGeneratorTest_getSize_TestC2Ev
FN:112,_GLOBAL__sub_I_cheap_sawtooth_generator_test.cpp
FN:112,_Z41__static_initialization_and_destruction_0ii
FNDA:5,_ZN12_GLOBAL__N_126CheapSawtoothGeneratorTestD2Ev
FNDA:5,_ZN12_GLOBAL__N_126CheapSawtoothGeneratorTest5SetUpEv
FNDA:5,_ZN12_GLOBAL__N_126CheapSawtoothGeneratorTest8TearDownEv
FNDA:5,_ZN12_GLOBAL__N_126CheapSawtoothGeneratorTestC2Ev
FNDA:1,_ZN12_GLOBAL__N_144CheapSawtoothGeneratorTest_getFrequency_TestD0Ev
FNDA:1,_ZN12_GLOBAL__N_144CheapSawtoothGeneratorTest_getFrequency_TestD2Ev
FNDA:1,_ZN12_GLOBAL__N_144CheapSawtoothGeneratorTest_getFrequency_Test8TestBodyEv
FNDA:1,_ZN12_GLOBAL__N_144CheapSawtoothGeneratorTest_getFrequency_TestC2Ev
FNDA:1,_ZN12_GLOBAL__N_144CheapSawtoothGeneratorTest_setFrequency_TestD0Ev
FNDA:1,_ZN12_GLOBAL__N_144CheapSawtoothGeneratorTest_setFrequency_TestD2Ev
FNDA:1,_ZN12_GLOBAL__N_144CheapSawtoothGeneratorTest_setFrequency_Test8TestBodyEv
FNDA:1,_ZN12_GLOBAL__N_144CheapSawtoothGeneratorTest_setFrequency_TestC2Ev
FNDA:1,_ZN12_GLOBAL__N_158CheapSawtoothGeneratorTest_setFrequencyWithTransition_TestD0Ev
FNDA:1,_ZN12_GLOBAL__N_158CheapSawtoothGeneratorTest_setFrequencyWithTransition_TestD2Ev
FNDA:1,_ZN12_GLOBAL__N_158CheapSawtoothGeneratorTest_setFrequencyWithTransition_Test8TestBodyEv
FNDA:1,_ZN12_GLOBAL__N_158CheapSawtoothGeneratorTest_setFrequencyWithTransition_TestC2Ev
FNDA:1,_ZN12_GLOBAL__N_158CheapSawtoothGeneratorTest_differentTransitionMethods_TestD0Ev
FNDA:1,_ZN12_GLOBAL__N_158CheapSawtoothGeneratorTest_differentTransitionMethods_TestD2Ev
FNDA:1,_ZN12_GLOBAL__N_158CheapSawtoothGeneratorTest_differentTransitionMethods_Test8TestBodyEv
FNDA:1,_ZN12_GLOBAL__N_158CheapSawtoothGeneratorTest_differentTransitionMethods_TestC2Ev
FNDA:1,_ZN12_GLOBAL__N_139CheapSawtoothGeneratorTest_getSize_TestD0Ev
FNDA:1,_ZN12_GLOBAL__N_139CheapSawtoothGeneratorTest_getSize_TestD2Ev
FNDA:1,_ZN12_GLOBAL__N_139CheapSawtoothGeneratorTest_getSize_Test8TestBodyEv
FNDA:1,_ZN12_GLOBAL__N_139CheapSawtoothGeneratorTest_getSize_TestC2Ev
FNDA:1,_GLOBAL__sub_I_cheap_sawtooth_generator_test.cpp
FNDA:1,_Z41__static_initialization_and_destruction_0ii
FNF:26
FNH:26
BRDA:20,1,2,5
BRDA:20,1,3,0
BRDA:22,4294967295,5,1
BRDA:22,4294967295,6,0
BRDA:22,0,8,1
BRDA:22,0,9,0
BRDA:22,1,12,1
BRDA:22,1,13,0
BRDA:24,0,1,1
BRDA:24,0,2,0
BRDA:24,1,4,1
BRDA:24,1,5,0
BRDA:24,2,7,1
BRDA:24,2,8,0
BRDA:24,3,11,0
BRDA:24,3,12,1
BRDA:24,4,14,-
BRDA:24,4,15,-
BRDA:24,5,17,-
BRDA:24,5,18,-
BRDA:24,6,20,-
BRDA:24,6,21,-
BRDA:24,7,23,-
BRDA:24,7,24,-
BRDA:27,4294967295,5,1
BRDA:27,4294967295,6,0
BRDA:27,0,8,1
BRDA:27,0,9,0
BRDA:27,1,12,1
BRDA:27,1,13,0
BRDA:30,0,1,1
BRDA:30,0,2,0
BRDA:31,0,1,1
BRDA:31,0,2,0
BRDA:31,1,4,1
BRDA:31,1,5,0
BRDA:31,2,7,1
BRDA:31,2,8,0
BRDA:31,3,11,0
BRDA:31,3,12,1
BRDA:31,4,14,-
BRDA:31,4,15,-
BRDA:31,5,17,-
BRDA:31,5,18,-
BRDA:31,6,20,-
BRDA:31,6,21,-
BRDA:31,7,23,-
BRDA:31,7,24,-
BRDA:34,4294967295,5,1
BRDA:34,4294967295,6,0
BRDA:34,0,8,1
BRDA:34,0,9,0
BRDA:34,1,12,1
BRDA:34,1,13,0
BRDA:38,0,2,1
BRDA:38,0,3,0
BRDA:38,1,6,1
BRDA:38,1,7,0
BRDA:39,4294967295,1,1
BRDA:39,4294967295,2,0
BRDA:40,4294967295,1,1
BRDA:40,4294967295,2,0
BRDA:40,0,4,1
BRDA:40,0,5,0
BRDA:40,1,7,1
BRDA:40,1,8,0
BRDA:40,2,11,0
BRDA:40,2,12,1
BRDA:40,3,14,-
BRDA:40,3,15,-
BRDA:40,4,17,-
BRDA:40,4,18,-
BRDA:40,5,20,-
BRDA:40,5,21,-
BRDA:40,6,23,-
BRDA:40,6,24,-
BRDA:43,4294967295,5,1
BRDA:43,4294967295,6,0
BRDA:43,0,8,1
BRDA:43,0,9,0
BRDA:43,1,12,1
BRDA:43,1,13,0
BRDA:49,0,2,1
BRDA:49,0,3,0
BRDA:49,1,6,1
BRDA:49,1,7,0
BRDA:50,4294967295,1,1
BRDA:50,4294967295,2,0
BRDA:51,4294967295,1,1
BRDA:51,4294967295,2,0
BRDA:51,0,4,1
BRDA:51,0,5,0
BRDA:51,1,7,1
BRDA:51,1,8,0
BRDA:51,2,11,0
BRDA:51,2,12,1
BRDA:51,3,14,-
BRDA:51,3,15,-
BRDA:51,4,17,-
BRDA:51,4,18,-
BRDA:51,5,20,-
BRDA:51,5,21,-
BRDA:51,6,23,-
BRDA:51,6,24,-
BRDA:53,4294967295,2,1
BRDA:53,4294967295,3,0
BRDA:53,0,6,1
BRDA:53,0,7,0
BRDA:54,4294967295,1,1
BRDA:54,4294967295,2,0
BRDA:55,4294967295,1,1
BRDA:55,4294967295,2,0
BRDA:55,0,4,1
BRDA:55,0,5,0
BRDA:55,1,7,1
BRDA:55,1,8,0
BRDA:55,2,11,0
BRDA:55,2,12,1
BRDA:55,3,14,-
BRDA:55,3,15,-
BRDA:55,4,17,-
BRDA:55,4,18,-
BRDA:55,5,20,-
BRDA:55,5,21,-
BRDA:55,6,23,-
BRDA:55,6,24,-
BRDA:57,4294967295,2,1
BRDA:57,4294967295,3,0
BRDA:57,0,6,1
BRDA:57,0,7,0
BRDA:58,4294967295,1,1
BRDA:58,4294967295,2,0
BRDA:59,4294967295,1,1
BRDA:59,4294967295,2,0
BRDA:59,0,4,1
BRDA:59,0,5,0
BRDA:59,1,7,1
BRDA:59,1,8,0
BRDA:59,2,11,0
BRDA:59,2,12,1
BRDA:59,3,14,-
BRDA:59,3,15,-
BRDA:59,4,17,-
BRDA:59,4,18,-
BRDA:59,5,20,-
BRDA:59,5,21,-
BRDA:59,6,23,-
BRDA:59,6,24,-
BRDA:61,4294967295,2,1
BRDA:61,4294967295,3,0
BRDA:61,0,6,1
BRDA:61,0,7,0
BRDA:62,4294967295,1,1
BRDA:62,4294967295,2,0
BRDA:63,4294967295,1,1
BRDA:63,4294967295,2,0
BRDA:63,0,4,1
BRDA:63,0,5,0
BRDA:63,1,7,1
BRDA:63,1,8,0
BRDA:63,2,11,0
BRDA:63,2,12,1
BRDA:63,3,14,-
BRDA:63,3,15,-
BRDA:63,4,17,-
BRDA:63,4,18,-
BRDA:63,5,20,-
BRDA:63,5,21,-
BRDA:63,6,23,-
BRDA:63,6,24,-
BRDA:66,4294967295,2,1
BRDA:66,4294967295,3,0
BRDA:66,0,6,1
BRDA:66,0,7,0
BRDA:67,4294967295,1,1
BRDA:67,4294967295,2,0
BRDA:68,4294967295,1,1
BRDA:68,4294967295,2,0
BRDA:68,0,4,1
BRDA:68,0,5,0
BRDA:68,1,7,1
BRDA:68,1,8,0
BRDA:68,2,11,0
BRDA:68,2,12,1
BRDA:68,3,14,-
BRDA:68,3,15,-
BRDA:68,4,17,-
BRDA:68,4,18,-
BRDA:68,5,20,-
BRDA:68,5,21,-
BRDA:68,6,23,-
BRDA:68,6,24,-
BRDA:70,4294967295,2,1
BRDA:70,4294967295,3,0
BRDA:70,0,6,1
BRDA:70,0,7,0
BRDA:71,4294967295,1,1
BRDA:71,4294967295,2,0
BRDA:72,4294967295,1,1
BRDA:72,4294967295,2,0
BRDA:72,0,4,1
BRDA:72,0,5,0
BRDA:72,1,7,1
BRDA:72,1,8,0
BRDA:72,2,11,0
BRDA:72,2,12,1
BRDA:72,3,14,-
BRDA:72,3,15,-
BRDA:72,4,17,-
BRDA:72,4,18,-
BRDA:72,5,20,-
BRDA:72,5,21,-
BRDA:72,6,23,-
BRDA:72,6,24,-
BRDA:74,4294967295,2,1
BRDA:74,4294967295,3,0
BRDA:74,0,6,1
BRDA:74,0,7,0
BRDA:75,4294967295,1,1
BRDA:75,4294967295,2,0
BRDA:76,4294967295,1,1
BRDA:76,4294967295,2,0
BRDA:76,0,4,1
BRDA:76,0,5,0
BRDA:76,1,7,1
BRDA:76,1,8,0
BRDA:76,2,11,0
BRDA:76,2,12,1
BRDA:76,3,14,-
BRDA:76,3,15,-
BRDA:76,4,17,-
BRDA:76,4,18,-
BRDA:76,5,20,-
BRDA:76,5,21,-
BRDA:76,6,23,-
BRDA:76,6,24,-
BRDA:78,4294967295,2,1
BRDA:78,4294967295,3,0
BRDA:78,0,6,1
BRDA:78,0,7,0
BRDA:79,4294967295,1,1
BRDA:79,4294967295,2,0
BRDA:80,4294967295,1,1
BRDA:80,4294967295,2,0
BRDA:80,0,4,1
BRDA:80,0,5,0
BRDA:80,1,7,1
BRDA:80,1,8,0
BRDA:80,2,11,0
BRDA:80,2,12,1
BRDA:80,3,14,-
BRDA:80,3,15,-
BRDA:80,4,17,-
BRDA:80,4,18,-
BRDA:80,5,20,-
BRDA:80,5,21,-
BRDA:80,6,23,-
BRDA:80,6,24,-
BRDA:83,4294967295,2,1
BRDA:83,4294967295,3,0
BRDA:83,0,6,1
BRDA:83,0,7,0
BRDA:84,4294967295,1,1
BRDA:84,4294967295,2,0
BRDA:85,4294967295,1,1
BRDA:85,4294967295,2,0
BRDA:85,0,4,1
BRDA:85,0,5,0
BRDA:85,1,7,1
BRDA:85,1,8,0
BRDA:85,2,11,0
BRDA:85,2,12,1
BRDA:85,3,14,-
BRDA:85,3,15,-
BRDA:85,4,17,-
BRDA:85,4,18,-
BRDA:85,5,20,-
BRDA:85,5,21,-
BRDA:85,6,23,-
BRDA:85,6,24,-
BRDA:87,4294967295,2,1
BRDA:87,4294967295,3,0
BRDA:87,0,6,1
BRDA:87,0,7,0
BRDA:88,4294967295,1,1
BRDA:88,4294967295,2,0
BRDA:89,4294967295,1,1
BRDA:89,4294967295,2,0
BRDA:89,0,4,1
BRDA:89,0,5,0
BRDA:89,1,7,1
BRDA:89,1,8,0
BRDA:89,2,11,0
BRDA:89,2,12,1
BRDA:89,3,14,-
BRDA:89,3,15,-
BRDA:89,4,17,-
BRDA:89,4,18,-
BRDA:89,5,20,-
BRDA:89,5,21,-
BRDA:89,6,23,-
BRDA:89,6,24,-
BRDA:91,4294967295,2,1
BRDA:91,4294967295,3,0
BRDA:91,0,6,1
BRDA:91,0,7,0
BRDA:92,4294967295,1,1
BRDA:92,4294967295,2,0
BRDA:93,4294967295,1,1
BRDA:93,4294967295,2,0
BRDA:93,0,4,1
BRDA:93,0,5,0
BRDA:93,1,7,1
BRDA:93,1,8,0
BRDA:93,2,11,0
BRDA:93,2,12,1
BRDA:93,3,14,-
BRDA:93,3,15,-
BRDA:93,4,17,-
BRDA:93,4,18,-
BRDA:93,5,20,-
BRDA:93,5,21,-
BRDA:93,6,23,-
BRDA:93,6,24,-
BRDA:95,4294967295,2,1
BRDA:95,4294967295,3,0
BRDA:95,0,6,1
BRDA:95,0,7,0
BRDA:96,4294967295,1,1
BRDA:96,4294967295,2,0
BRDA:97,4294967295,1,1
BRDA:97,4294967295,2,0
BRDA:97,0,4,1
BRDA:97,0,5,0
BRDA:97,1,7,1
BRDA:97,1,8,0
BRDA:97,2,11,0
BRDA:97,2,12,1
BRDA:97,3,14,-
BRDA:97,3,15,-
BRDA:97,4,17,-
BRDA:97,4,18,-
BRDA:97,5,20,-
BRDA:97,5,21,-
BRDA:97,6,23,-
BRDA:97,6,24,-
BRDA:100,4294967295,5,1
BRDA:100,4294967295,6,0
BRDA:100,0,8,1
BRDA:100,0,9,0
BRDA:100,1,12,1
BRDA:100,1,13,0
BRDA:103,0,1,1
BRDA:103,0,2,0
BRDA:104,4294967295,2,1
BRDA:104,4294967295,3,0
BRDA:104,0,5,1
BRDA:104,0,6,0
BRDA:104,1,9,0
BRDA:104,1,10,1
BRDA:104,2,12,-
BRDA:104,2,13,-
BRDA:104,3,15,-
BRDA:104,3,16,-
BRDA:104,4,18,-
BRDA:104,4,19,-
BRDA:104,5,21,-
BRDA:104,5,22,-
BRDA:106,4294967295,1,1
BRDA:106,4294967295,2,0
BRDA:107,4294967295,2,1
BRDA:107,4294967295,3,0
BRDA:107,0,5,1
BRDA:107,0,6,0
BRDA:107,1,9,0
BRDA:107,1,10,1
BRDA:107,2,12,-
BRDA:107,2,13,-
BRDA:107,3,15,-
BRDA:107,3,16,-
BRDA:107,4,18,-
BRDA:107,4,19,-
BRDA:107,5,21,-
BRDA:107,5,22,-
BRDA:109,4294967295,1,1
BRDA:109,4294967295,2,0
BRDA:110,4294967295,2,1
BRDA:110,4294967295,3,0
BRDA:110,0,5,1
BRDA:110,0,6,0
BRDA:110,1,9,0
BRDA:110,1,10,1
BRDA:110,2,12,-
BRDA:110,2,13,-
BRDA:110,3,15,-
BRDA:110,3,16,-
BRDA:110,4,18,-
BRDA:110,4,19,-
BRDA:110,5,21,-
BRDA:110,5,22,-
BRDA:112,3,1,1
BRDA:112,3,2,0
BRDA:112,4,3,1
BRDA:112,4,4,0
BRF:404
BRH:130
DA:12,10
DA:15,5
DA:16,5
DA:20,5
DA:22,8
DA:24,1
DA:25,1
DA:27,8
DA:29,1
DA:30,1
DA:31,1
DA:32,1
DA:34,8
DA:36,1
DA:37,1
DA:38,1
DA:39,1
DA:40,1
DA:41,1
DA:43,8
DA:45,1
DA:47,1
DA:49,1
DA:50,1
DA:51,1
DA:52,1
DA:53,1
DA:54,1
DA:55,1
DA:56,1
DA:57,1
DA:58,1
DA:59,1
DA:60,1
DA:61,1
DA:62,1
DA:63,1
DA:64,1
DA:66,1
DA:67,1
DA:68,1
DA:69,1
DA:70,1
DA:71,1
DA:72,1
DA:73,1
DA:74,1
DA:75,1
DA:76,1
DA:77,1
DA:78,1
DA:79,1
DA:80,1
DA:81,1
DA:83,1
DA:84,1
DA:85,1
DA:86,1
DA:87,1
DA:88,1
DA:89,1
DA:90,1
DA:91,1
DA:92,1
DA:93,1
DA:94,1
DA:95,1
DA:96,1
DA:97,1
DA:98,1
DA:100,8
DA:102,1
DA:103,2
DA:104,1
DA:105,1
DA:106,1
DA:107,1
DA:108,1
DA:109,1
DA:110,1
DA:111,1
DA:112,4
LF:82
LH:82
end_of_record
TN:
SF:/SharedWithWindows/Projects/diginstrument/inc/CheapSquareGenerator.h
FN:25,_ZN5Mixer20CheapSquareGeneratorIfED0Ev
FN:25,_ZN5Mixer20CheapSquareGeneratorIfED2Ev
FNDA:0,_ZN5Mixer20CheapSquareGeneratorIfED0Ev
FNDA:5,_ZN5Mixer20CheapSquareGeneratorIfED2Ev
FNF:2
FNH:1
DA:25,10
LF:1
LH:1
end_of_record
SF:/SharedWithWindows/Projects/diginstrument/inc/iSource.h
FN:28,_ZN8DataFlow7iSourceIfED0Ev
FN:28,_ZN8DataFlow7iSourceIfED2Ev
FNDA:0,_ZN8DataFlow7iSourceIfED0Ev
FNDA:0,_ZN8DataFlow7iSourceIfED2Ev
FNF:2
FNH:0
DA:28,0
LF:1
LH:0
end_of_record
SF:/SharedWithWindows/Projects/diginstrument/inc/iWaveformGenerator.h
FN:67,_ZN5Mixer18iWaveformGeneratorIfED0Ev
FN:67,_ZN5Mixer18iWaveformGeneratorIfED2Ev
FNDA:0,_ZN5Mixer18iWaveformGeneratorIfED0Ev
FNDA:0,_ZN5Mixer18iWaveformGeneratorIfED2Ev
FNF:2
FNH:0
DA:67,0
LF:1
LH:0
end_of_record
SF:/SharedWithWindows/Projects/diginstrument/mixer_test/cheap_square_generator_test.cpp
FN:12,_ZN12_GLOBAL__N_124CheapSquareGeneratorTestD2Ev
FN:15,_ZN12_GLOBAL__N_124CheapSquareGeneratorTest5SetUpEv
FN:16,_ZN12_GLOBAL__N_124CheapSquareGeneratorTest8TearDownEv
FN:20,_ZN12_GLOBAL__N_124CheapSquareGeneratorTestC2Ev
FN:22,_ZN12_GLOBAL__N_142CheapSquareGeneratorTest_getFrequency_Test8TestBodyEv
FN:22,_ZN12_GLOBAL__N_142CheapSquareGeneratorTest_getFrequency_TestD2Ev
FN:22,_ZN12_GLOBAL__N_142CheapSquareGeneratorTest_getFrequency_TestD0Ev
FN:22,_ZN12_GLOBAL__N_142CheapSquareGeneratorTest_getFrequency_TestC2Ev
FN:27,_ZN12_GLOBAL__N_142CheapSquareGeneratorTest_setFrequency_TestD0Ev
FN:27,_ZN12_GLOBAL__N_142CheapSquareGeneratorTest_setFrequency_TestC2Ev
FN:27,_ZN12_GLOBAL__N_142CheapSquareGeneratorTest_setFrequency_TestD2Ev
FN:27,_ZN12_GLOBAL__N_142CheapSquareGeneratorTest_setFrequency_Test8TestBodyEv
FN:34,_ZN12_GLOBAL__N_156CheapSquareGeneratorTest_setFrequencyWithTransition_Test8TestBodyEv
FN:34,_ZN12_GLOBAL__N_156CheapSquareGeneratorTest_setFrequencyWithTransition_TestC2Ev
FN:34,_ZN12_GLOBAL__N_156CheapSquareGeneratorTest_setFrequencyWithTransition_TestD2Ev
FN:34,_ZN12_GLOBAL__N_156CheapSquareGeneratorTest_setFrequencyWithTransition_TestD0Ev
FN:44,_ZN12_GLOBAL__N_137CheapSquareGeneratorTest_getSize_TestC2Ev
FN:44,_ZN12_GLOBAL__N_137CheapSquareGeneratorTest_getSize_Test8TestBodyEv
FN:44,_ZN12_GLOBAL__N_137CheapSquareGeneratorTest_getSize_TestD0Ev
FN:44,_ZN12_GLOBAL__N_137CheapSquareGeneratorTest_getSize_TestD2Ev
FN:57,_ZN12_GLOBAL__N_156CheapSquareGeneratorTest_differentTransitionMethods_Test8TestBodyEv
FN:57,_ZN12_GLOBAL__N_156CheapSquareGeneratorTest_differentTransitionMethods_TestD0Ev
FN:57,_ZN12_GLOBAL__N_156CheapSquareGeneratorTest_differentTransitionMethods_TestD2Ev
FN:57,_ZN12_GLOBAL__N_156CheapSquareGeneratorTest_differentTransitionMethods_TestC2Ev
FN:113,_Z41__static_initialization_and_destruction_0ii
FN:113,_GLOBAL__sub_I_cheap_square_generator_test.cpp
FNDA:5,_ZN12_GLOBAL__N_124CheapSquareGeneratorTestD2Ev
FNDA:5,_ZN12_GLOBAL__N_124CheapSquareGeneratorTest5SetUpEv
FNDA:5,_ZN12_GLOBAL__N_124CheapSquareGeneratorTest8TearDownEv
FNDA:5,_ZN12_GLOBAL__N_124CheapSquareGeneratorTestC2Ev
FNDA:1,_ZN12_GLOBAL__N_142CheapSquareGeneratorTest_getFrequency_TestD0Ev
FNDA:1,_ZN12_GLOBAL__N_142CheapSquareGeneratorTest_getFrequency_TestD2Ev
FNDA:1,_ZN12_GLOBAL__N_142CheapSquareGeneratorTest_getFrequency_Test8TestBodyEv
FNDA:1,_ZN12_GLOBAL__N_142CheapSquareGeneratorTest_getFrequency_TestC2Ev
FNDA:1,_ZN12_GLOBAL__N_142CheapSquareGeneratorTest_setFrequency_TestD0Ev
FNDA:1,_ZN12_GLOBAL__N_142CheapSquareGeneratorTest_setFrequency_TestD2Ev
FNDA:1,_ZN12_GLOBAL__N_142CheapSquareGeneratorTest_setFrequency_Test8TestBodyEv
FNDA:1,_ZN12_GLOBAL__N_142CheapSquareGeneratorTest_setFrequency_TestC2Ev
FNDA:1,_ZN12_GLOBAL__N_156CheapSquareGeneratorTest_setFrequencyWithTransition_TestD0Ev
FNDA:1,_ZN12_GLOBAL__N_156CheapSquareGeneratorTest_setFrequencyWithTransition_TestD2Ev
FNDA:1,_ZN12_GLOBAL__N_156CheapSquareGeneratorTest_setFrequencyWithTransition_Test8TestBodyEv
FNDA:1,_ZN12_GLOBAL__N_156CheapSquareGeneratorTest_setFrequencyWithTransition_TestC2Ev
FNDA:1,_ZN12_GLOBAL__N_137CheapSquareGeneratorTest_getSize_TestD0Ev
FNDA:1,_ZN12_GLOBAL__N_137CheapSquareGeneratorTest_getSize_TestD2Ev
FNDA:1,_ZN12_GLOBAL__N_137CheapSquareGeneratorTest_getSize_Test8TestBodyEv
FNDA:1,_ZN12_GLOBAL__N_137CheapSquareGeneratorTest_getSize_TestC2Ev
FNDA:1,_ZN12_GLOBAL__N_156CheapSquareGeneratorTest_differentTransitionMethods_TestD0Ev
FNDA:1,_ZN12_GLOBAL__N_156CheapSquareGeneratorTest_differentTransitionMethods_TestD2Ev
FNDA:1,_ZN12_GLOBAL__N_156CheapSquareGeneratorTest_differentTransitionMethods_Test8TestBodyEv
FNDA:1,_ZN12_GLOBAL__N_156CheapSquareGeneratorTest_differentTransitionMethods_TestC2Ev
FNDA:1,_GLOBAL__sub_I_cheap_square_generator_test.cpp
FNDA:1,_Z41__static_initialization_and_destruction_0ii
FNF:26
FNH:26
BRDA:20,1,2,5
BRDA:20,1,3,0
BRDA:22,4294967295,5,1
BRDA:22,4294967295,6,0
BRDA:22,0,8,1
BRDA:22,0,9,0
BRDA:22,1,12,1
BRDA:22,1,13,0
BRDA:24,0,1,1
BRDA:24,0,2,0
BRDA:24,1,4,1
BRDA:24,1,5,0
BRDA:24,2,7,1
BRDA:24,2,8,0
BRDA:24,3,11,0
BRDA:24,3,12,1
BRDA:24,4,14,-
BRDA:24,4,15,-
BRDA:24,5,17,-
BRDA:24,5,18,-
BRDA:24,6,20,-
BRDA:24,6,21,-
BRDA:24,7,23,-
BRDA:24,7,24,-
BRDA:27,4294967295,5,1
BRDA:27,4294967295,6,0
BRDA:27,0,8,1
BRDA:27,0,9,0
BRDA:27,1,12,1
BRDA:27,1,13,0
BRDA:30,0,1,1
BRDA:30,0,2,0
BRDA:31,0,1,1
BRDA:31,0,2,0
BRDA:31,1,4,1
BRDA:31,1,5,0
BRDA:31,2,7,1
BRDA:31,2,8,0
BRDA:31,3,11,0
BRDA:31,3,12,1
BRDA:31,4,14,-
BRDA:31,4,15,-
BRDA:31,5,17,-
BRDA:31,5,18,-
BRDA:31,6,20,-
BRDA:31,6,21,-
BRDA:31,7,23,-
BRDA:31,7,24,-
BRDA:34,4294967295,5,1
BRDA:34,4294967295,6,0
BRDA:34,0,8,1
BRDA:34,0,9,0
BRDA:34,1,12,1
BRDA:34,1,13,0
BRDA:38,0,2,1
BRDA:38,0,3,0
BRDA:38,1,6,1
BRDA:38,1,7,0
BRDA:39,4294967295,1,1
BRDA:39,4294967295,2,0
BRDA:40,4294967295,1,1
BRDA:40,4294967295,2,0
BRDA:40,0,4,1
BRDA:40,0,5,0
BRDA:40,1,7,1
BRDA:40,1,8,0
BRDA:40,2,11,0
BRDA:40,2,12,1
BRDA:40,3,14,-
BRDA:40,3,15,-
BRDA:40,4,17,-
BRDA:40,4,18,-
BRDA:40,5,20,-
BRDA:40,5,21,-
BRDA:40,6,23,-
BRDA:40,6,24,-
BRDA:44,4294967295,5,1
BRDA:44,4294967295,6,0
BRDA:44,0,8,1
BRDA:44,0,9,0
BRDA:44,1,12,1
BRDA:44,1,13,0
BRDA:47,0,1,1
BRDA:47,0,2,0
BRDA:48,4294967295,2,1
BRDA:48,4294967295,3,0
BRDA:48,0,5,1
BRDA:48,0,6,0
BRDA:48,1,9,0
BRDA:48,1,10,1
BRDA:48,2,12,-
BRDA:48,2,13,-
BRDA:48,3,15,-
BRDA:48,3,16,-
BRDA:48,4,18,-
BRDA:48,4,19,-
BRDA:48,5,21,-
BRDA:48,5,22,-
BRDA:50,4294967295,1,1
BRDA:50,4294967295,2,0
BRDA:51,4294967295,2,1
BRDA:51,4294967295,3,0
BRDA:51,0,5,1
BRDA:51,0,6,0
BRDA:51,1,9,0
BRDA:51,1,10,1
BRDA:51,2,12,-
BRDA:51,2,13,-
BRDA:51,3,15,-
BRDA:51,3,16,-
BRDA:51,4,18,-
BRDA:51,4,19,-
BRDA:51,5,21,-
BRDA:51,5,22,-
BRDA:53,4294967295,1,1
BRDA:53,4294967295,2,0
BRDA:54,4294967295,2,1
BRDA:54,4294967295,3,0
BRDA:54,0,5,1
BRDA:54,0,6,0
BRDA:54,1,9,0
BRDA:54,1,10,1
BRDA:54,2,12,-
BRDA:54,2,13,-
BRDA:54,3,15,-
BRDA:54,3,16,-
BRDA:54,4,18,-
BRDA:54,4,19,-
BRDA:54,5,21,-
BRDA:54,5,22,-
BRDA:57,4294967295,5,1
BRDA:57,4294967295,6,0
BRDA:57,0,8,1
BRDA:57,0,9,0
BRDA:57,1,12,1
BRDA:57,1,13,0
BRDA:63,0,2,1
BRDA:63,0,3,0
BRDA:63,1,6,1
BRDA:63,1,7,0
BRDA:64,4294967295,1,1
BRDA:64,4294967295,2,0
BRDA:65,4294967295,1,1
BRDA:65,4294967295,2,0
BRDA:65,0,4,1
BRDA:65,0,5,0
BRDA:65,1,7,1
BRDA:65,1,8,0
BRDA:65,2,11,0
BRDA:65,2,12,1
BRDA:65,3,14,-
BRDA:65,3,15,-
BRDA:65,4,17,-
BRDA:65,4,18,-
BRDA:65,5,20,-
BRDA:65,5,21,-
BRDA:65,6,23,-
BRDA:65,6,24,-
BRDA:67,4294967295,2,1
BRDA:67,4294967295,3,0
BRDA:67,0,6,1
BRDA:67,0,7,0
BRDA:68,4294967295,1,1
BRDA:68,4294967295,2,0
BRDA:69,4294967295,1,1
BRDA:69,4294967295,2,0
BRDA:69,0,4,1
BRDA:69,0,5,0
BRDA:69,1,7,1
BRDA:69,1,8,0
BRDA:69,2,11,0
BRDA:69,2,12,1
BRDA:69,3,14,-
BRDA:69,3,15,-
BRDA:69,4,17,-
BRDA:69,4,18,-
BRDA:69,5,20,-
BRDA:69,5,21,-
BRDA:69,6,23,-
BRDA:69,6,24,-
BRDA:71,4294967295,2,1
BRDA:71,4294967295,3,0
BRDA:71,0,6,1
BRDA:71,0,7,0
BRDA:72,4294967295,1,1
BRDA:72,4294967295,2,0
BRDA:73,4294967295,1,1
BRDA:73,4294967295,2,0
BRDA:73,0,4,1
BRDA:73,0,5,0
BRDA:73,1,7,1
BRDA:73,1,8,0
BRDA:73,2,11,0
BRDA:73,2,12,1
BRDA:73,3,14,-
BRDA:73,3,15,-
BRDA:73,4,17,-
BRDA:73,4,18,-
BRDA:73,5,20,-
BRDA:73,5,21,-
BRDA:73,6,23,-
BRDA:73,6,24,-
BRDA:75,4294967295,2,1
BRDA:75,4294967295,3,0
BRDA:75,0,6,1
BRDA:75,0,7,0
BRDA:76,4294967295,1,1
BRDA:76,4294967295,2,0
BRDA:77,4294967295,1,1
BRDA:77,4294967295,2,0
BRDA:77,0,4,1
BRDA:77,0,5,0
BRDA:77,1,7,1
BRDA:77,1,8,0
BRDA:77,2,11,0
BRDA:77,2,12,1
BRDA:77,3,14,-
BRDA:77,3,15,-
BRDA:77,4,17,-
BRDA:77,4,18,-
BRDA:77,5,20,-
BRDA:77,5,21,-
BRDA:77,6,23,-
BRDA:77,6,24,-
BRDA:80,4294967295,2,1
BRDA:80,4294967295,3,0
BRDA:80,0,6,1
BRDA:80,0,7,0
BRDA:81,4294967295,1,1
BRDA:81,4294967295,2,0
BRDA:82,4294967295,1,1
BRDA:82,4294967295,2,0
BRDA:82,0,4,1
BRDA:82,0,5,0
BRDA:82,1,7,1
BRDA:82,1,8,0
BRDA:82,2,11,0
BRDA:82,2,12,1
BRDA:82,3,14,-
BRDA:82,3,15,-
BRDA:82,4,17,-
BRDA:82,4,18,-
BRDA:82,5,20,-
BRDA:82,5,21,-
BRDA:82,6,23,-
BRDA:82,6,24,-
BRDA:84,4294967295,2,1
BRDA:84,4294967295,3,0
BRDA:84,0,6,1
BRDA:84,0,7,0
BRDA:85,4294967295,1,1
BRDA:85,4294967295,2,0
BRDA:86,4294967295,1,1
BRDA:86,4294967295,2,0
BRDA:86,0,4,1
BRDA:86,0,5,0
BRDA:86,1,7,1
BRDA:86,1,8,0
BRDA:86,2,11,0
BRDA:86,2,12,1
BRDA:86,3,14,-
BRDA:86,3,15,-
BRDA:86,4,17,-
BRDA:86,4,18,-
BRDA:86,5,20,-
BRDA:86,5,21,-
BRDA:86,6,23,-
BRDA:86,6,24,-
BRDA:88,4294967295,2,1
BRDA:88,4294967295,3,0
BRDA:88,0,6,1
BRDA:88,0,7,0
BRDA:89,4294967295,1,1
BRDA:89,4294967295,2,0
BRDA:90,4294967295,1,1
BRDA:90,4294967295,2,0
BRDA:90,0,4,1
BRDA:90,0,5,0
BRDA:90,1,7,1
BRDA:90,1,8,0
BRDA:90,2,11,0
BRDA:90,2,12,1
BRDA:90,3,14,-
BRDA:90,3,15,-
BRDA:90,4,17,-
BRDA:90,4,18,-
BRDA:90,5,20,-
BRDA:90,5,21,-
BRDA:90,6,23,-
BRDA:90,6,24,-
BRDA:92,4294967295,2,1
BRDA:92,4294967295,3,0
BRDA:92,0,6,1
BRDA:92,0,7,0
BRDA:93,4294967295,1,1
BRDA:93,4294967295,2,0
BRDA:94,4294967295,1,1
BRDA:94,4294967295,2,0
BRDA:94,0,4,1
BRDA:94,0,5,0
BRDA:94,1,7,1
BRDA:94,1,8,0
BRDA:94,2,11,0
BRDA:94,2,12,1
BRDA:94,3,14,-
BRDA:94,3,15,-
BRDA:94,4,17,-
BRDA:94,4,18,-
BRDA:94,5,20,-
BRDA:94,5,21,-
BRDA:94,6,23,-
BRDA:94,6,24,-
BRDA:97,4294967295,2,1
BRDA:97,4294967295,3,0
BRDA:97,0,6,1
BRDA:97,0,7,0
BRDA:98,4294967295,1,1
BRDA:98,4294967295,2,0
BRDA:99,4294967295,1,1
BRDA:99,4294967295,2,0
BRDA:99,0,4,1
BRDA:99,0,5,0
BRDA:99,1,7,1
BRDA:99,1,8,0
BRDA:99,2,11,0
BRDA:99,2,12,1
BRDA:99,3,14,-
BRDA:99,3,15,-
BRDA:99,4,17,-
BRDA:99,4,18,-
BRDA:99,5,20,-
BRDA:99,5,21,-
BRDA:99,6,23,-
BRDA:99,6,24,-
BRDA:101,4294967295,2,1
BRDA:101,4294967295,3,0
BRDA:101,0,6,1
BRDA:101,0,7,0
BRDA:102,4294967295,1,1
BRDA:102,4294967295,2,0
BRDA:103,4294967295,1,1
BRDA:103,4294967295,2,0
BRDA:103,0,4,1
BRDA:103,0,5,0
BRDA:103,1,7,1
BRDA:103,1,8,0
BRDA:103,2,11,0
BRDA:103,2,12,1
BRDA:103,3,14,-
BRDA:103,3,15,-
BRDA:103,4,17,-
BRDA:103,4,18,-
BRDA:103,5,20,-
BRDA:103,5,21,-
BRDA:103,6,23,-
BRDA:103,6,24,-
BRDA:105,4294967295,2,1
BRDA:105,4294967295,3,0
BRDA:105,0,6,1
BRDA:105,0,7,0
BRDA:106,4294967295,1,1
BRDA:106,4294967295,2,0
BRDA:107,4294967295,1,1
BRDA:107,4294967295,2,0
BRDA:107,0,4,1
BRDA:107,0,5,0
BRDA:107,1,7,1
BRDA:107,1,8,0
BRDA:107,2,11,0
BRDA:107,2,12,1
BRDA:107,3,14,-
BRDA:107,3,15,-
BRDA:107,4,17,-
BRDA:107,4,18,-
BRDA:107,5,20,-
BRDA:107,5,21,-
BRDA:107,6,23,-
BRDA:107,6,24,-
BRDA:109,4294967295,2,1
BRDA:109,4294967295,3,0
BRDA:109,0,6,1
BRDA:109,0,7,0
BRDA:110,4294967295,1,1
BRDA:110,4294967295,2,0
BRDA:111,4294967295,1,1
BRDA:111,4294967295,2,0
BRDA:111,0,4,1
BRDA:111,0,5,0
BRDA:111,1,7,1
BRDA:111,1,8,0
BRDA:111,2,11,0
BRDA:111,2,12,1
BRDA:111,3,14,-
BRDA:111,3,15,-
BRDA:111,4,17,-
BRDA:111,4,18,-
BRDA:111,5,20,-
BRDA:111,5,21,-
BRDA:111,6,23,-
BRDA:111,6,24,-
BRDA:113,3,1,1
BRDA:113,3,2,0
BRDA:113,4,3,1
BRDA:113,4,4,0
BRF:404
BRH:130
DA:12,10
DA:15,5
DA:16,5
DA:20,5
DA:22,8
DA:24,1
DA:25,1
DA:27,8
DA:29,1
DA:30,1
DA:31,1
DA:32,1
DA:34,8
DA:36,1
DA:37,1
DA:38,1
DA:39,1
DA:40,1
DA:41,1
DA:44,8
DA:46,1
DA:47,2
DA:48,1
DA:49,1
DA:50,1
DA:51,1
DA:52,1
DA:53,1
DA:54,1
DA:55,1
DA:57,8
DA:59,1
DA:61,1
DA:63,1
DA:64,1
DA:65,1
DA:66,1
DA:67,1
DA:68,1
DA:69,1
DA:70,1
DA:71,1
DA:72,1
DA:73,1
DA:74,1
DA:75,1
DA:76,1
DA:77,1
DA:78,1
DA:80,1
DA:81,1
DA:82,1
DA:83,1
DA:84,1
DA:85,1
DA:86,1
DA:87,1
DA:88,1
DA:89,1
DA:90,1
DA:91,1
DA:92,1
DA:93,1
DA:94,1
DA:95,1
DA:97,1
DA:98,1
DA:99,1
DA:100,1
DA:101,1
DA:102,1
DA:103,1
DA:104,1
DA:105,1
DA:106,1
DA:107,1
DA:108,1
DA:109,1
DA:110,1
DA:111,1
DA:112,1
DA:113,4
LF:82
LH:82
end_of_record
TN:
SF:/SharedWithWindows/Projects/diginstrument/inc/Clipping.h
FN:20,_ZN8Clipping4SoftIfEclERKf
FN:48,_ZN8Clipping4HardIfEclERKf
FNDA:6,_ZN8Clipping4SoftIfEclERKf
FNDA:8,_ZN8Clipping4HardIfEclERKf
FNF:2
FNH:2
BRDA:22,0,0,4
BRDA:22,0,1,2
BRDA:22,1,2,2
BRDA:22,1,3,2
BRDA:50,0,0,2
BRDA:50,0,1,6
BRDA:56,0,0,2
BRDA:56,0,1,4
BRF:8
BRH:8
DA:20,6
DA:22,6
DA:24,4
DA:27,2
DA:48,8
DA:50,8
DA:52,2
DA:56,6
DA:58,2
DA:61,4
LF:10
LH:10
end_of_record
SF:/SharedWithWindows/Projects/diginstrument/mixer_test/clipping_test.cpp
FN:8,_ZN12_GLOBAL__N_112ClippingTestD2Ev
FN:11,_ZN12_GLOBAL__N_112ClippingTest5SetUpEv
FN:12,_ZN12_GLOBAL__N_112ClippingTest8TearDownEv
FN:14,_ZN12_GLOBAL__N_112ClippingTestC2Ev
FN:17,_ZN12_GLOBAL__N_122ClippingTest_Hard_TestD2Ev
FN:17,_ZN12_GLOBAL__N_122ClippingTest_Hard_Test8TestBodyEv
FN:17,_ZN12_GLOBAL__N_122ClippingTest_Hard_TestC2Ev
FN:17,_ZN12_GLOBAL__N_122ClippingTest_Hard_TestD0Ev
FN:30,_ZN12_GLOBAL__N_122ClippingTest_Soft_TestD0Ev
FN:30,_ZN12_GLOBAL__N_122ClippingTest_Soft_TestC2Ev
FN:30,_ZN12_GLOBAL__N_122ClippingTest_Soft_Test8TestBodyEv
FN:30,_ZN12_GLOBAL__N_122ClippingTest_Soft_TestD2Ev
FN:40,_Z41__static_initialization_and_destruction_0ii
FN:40,_GLOBAL__sub_I_clipping_test.cpp
FNDA:2,_ZN12_GLOBAL__N_112ClippingTestD2Ev
FNDA:2,_ZN12_GLOBAL__N_112ClippingTest5SetUpEv
FNDA:2,_ZN12_GLOBAL__N_112ClippingTest8TearDownEv
FNDA:2,_ZN12_GLOBAL__N_112ClippingTestC2Ev
FNDA:1,_ZN12_GLOBAL__N_122ClippingTest_Hard_TestD0Ev
FNDA:1,_ZN12_GLOBAL__N_122ClippingTest_Hard_TestD2Ev
FNDA:1,_ZN12_GLOBAL__N_122ClippingTest_Hard_Test8TestBodyEv
FNDA:1,_ZN12_GLOBAL__N_122ClippingTest_Hard_TestC2Ev
FNDA:1,_ZN12_GLOBAL__N_122ClippingTest_Soft_TestD0Ev
FNDA:1,_ZN12_GLOBAL__N_122ClippingTest_Soft_TestD2Ev
FNDA:1,_ZN12_GLOBAL__N_122ClippingTest_Soft_Test8TestBodyEv
FNDA:1,_ZN12_GLOBAL__N_122ClippingTest_Soft_TestC2Ev
FNDA:1,_GLOBAL__sub_I_clipping_test.cpp
FNDA:1,_Z41__static_initialization_and_destruction_0ii
FNF:14
FNH:14
BRDA:17,4294967295,5,1
BRDA:17,4294967295,6,0
BRDA:17,0,8,1
BRDA:17,0,9,0
BRDA:17,1,12,1
BRDA:17,1,13,0
BRDA:20,0,2,1
BRDA:20,0,3,0
BRDA:20,1,5,1
BRDA:20,1,6,0
BRDA:20,2,9,0
BRDA:20,2,10,1
BRDA:20,3,12,-
BRDA:20,3,13,-
BRDA:20,4,15,-
BRDA:20,4,16,-
BRDA:20,5,18,-
BRDA:20,5,19,-
BRDA:20,6,21,-
BRDA:20,6,22,-
BRDA:21,4294967295,2,1
BRDA:21,4294967295,3,0
BRDA:21,0,5,1
BRDA:21,0,6,0
BRDA:21,1,9,0
BRDA:21,1,10,1
BRDA:21,2,12,-
BRDA:21,2,13,-
BRDA:21,3,15,-
BRDA:21,3,16,-
BRDA:21,4,18,-
BRDA:21,4,19,-
BRDA:21,5,21,-
BRDA:21,5,22,-
BRDA:22,4294967295,2,1
BRDA:22,4294967295,3,0
BRDA:22,0,5,1
BRDA:22,0,6,0
BRDA:22,1,9,0
BRDA:22,1,10,1
BRDA:22,2,12,-
BRDA:22,2,13,-
BRDA:22,3,15,-
BRDA:22,3,16,-
BRDA:22,4,18,-
BRDA:22,4,19,-
BRDA:22,5,21,-
BRDA:22,5,22,-
BRDA:23,4294967295,2,1
BRDA:23,4294967295,3,0
BRDA:23,0,5,1
BRDA:23,0,6,0
BRDA:23,1,9,0
BRDA:23,1,10,1
BRDA:23,2,12,-
BRDA:23,2,13,-
BRDA:23,3,15,-
BRDA:23,3,16,-
BRDA:23,4,18,-
BRDA:23,4,19,-
BRDA:23,5,21,-
BRDA:23,5,22,-
BRDA:24,4294967295,2,1
BRDA:24,4294967295,3,0
BRDA:24,0,5,1
BRDA:24,0,6,0
BRDA:24,1,9,0
BRDA:24,1,10,1
BRDA:24,2,12,-
BRDA:24,2,13,-
BRDA:24,3,15,-
BRDA:24,3,16,-
BRDA:24,4,18,-
BRDA:24,4,19,-
BRDA:24,5,21,-
BRDA:24,5,22,-
BRDA:25,4294967295,2,1
BRDA:25,4294967295,3,0
BRDA:25,0,5,1
BRDA:25,0,6,0
BRDA:25,1,9,0
BRDA:25,1,10,1
BRDA:25,2,12,-
BRDA:25,2,13,-
BRDA:25,3,15,-
BRDA:25,3,16,-
BRDA:25,4,18,-
BRDA:25,4,19,-
BRDA:25,5,21,-
BRDA:25,5,22,-
BRDA:26,4294967295,2,1
BRDA:26,4294967295,3,0
BRDA:26,0,5,1
BRDA:26,0,6,0
BRDA:26,1,9,0
BRDA:26,1,10,1
BRDA:26,2,12,-
BRDA:26,2,13,-
BRDA:26,3,15,-
BRDA:26,3,16,-
BRDA:26,4,18,-
BRDA:26,4,19,-
BRDA:26,5,21,-
BRDA:26,5,22,-
BRDA:27,4294967295,2,1
BRDA:27,4294967295,3,0
BRDA:27,0,5,1
BRDA:27,0,6,0
BRDA:27,1,9,0
BRDA:27,1,10,1
BRDA:27,2,12,-
BRDA:27,2,13,-
BRDA:27,3,15,-
BRDA:27,3,16,-
BRDA:27,4,18,-
BRDA:27,4,19,-
BRDA:27,5,21,-
BRDA:27,5,22,-
BRDA:30,4294967295,5,1
BRDA:30,4294967295,6,0
BRDA:30,0,8,1
BRDA:30,0,9,0
BRDA:30,1,12,1
BRDA:30,1,13,0
BRDA:33,0,2,1
BRDA:33,0,3,0
BRDA:33,1,5,1
BRDA:33,1,6,0
BRDA:33,2,9,0
BRDA:33,2,10,1
BRDA:33,3,12,-
BRDA:33,3,13,-
BRDA:33,4,15,-
BRDA:33,4,16,-
BRDA:33,5,18,-
BRDA:33,5,19,-
BRDA:33,6,21,-
BRDA:33,6,22,-
BRDA:34,4294967295,2,1
BRDA:34,4294967295,3,0
BRDA:34,0,5,1
BRDA:34,0,6,0
BRDA:34,1,9,0
BRDA:34,1,10,1
BRDA:34,2,12,-
BRDA:34,2,13,-
BRDA:34,3,15,-
BRDA:34,3,16,-
BRDA:34,4,18,-
BRDA:34,4,19,-
BRDA:34,5,21,-
BRDA:34,5,22,-
BRDA:35,4294967295,2,1
BRDA:35,4294967295,3,0
BRDA:35,0,5,1
BRDA:35,0,6,0
BRDA:35,1,9,0
BRDA:35,1,10,1
BRDA:35,2,12,-
BRDA:35,2,13,-
BRDA:35,3,15,-
BRDA:35,3,16,-
BRDA:35,4,18,-
BRDA:35,4,19,-
BRDA:35,5,21,-
BRDA:35,5,22,-
BRDA:36,4294967295,2,1
BRDA:36,4294967295,3,0
BRDA:36,0,5,1
BRDA:36,0,6,0
BRDA:36,1,9,0
BRDA:36,1,10,1
BRDA:36,2,12,-
BRDA:36,2,13,-
BRDA:36,3,15,-
BRDA:36,3,16,-
BRDA:36,4,18,-
BRDA:36,4,19,-
BRDA:36,5,21,-
BRDA:36,5,22,-
BRDA:37,4294967295,2,1
BRDA:37,4294967295,3,0
BRDA:37,0,5,1
BRDA:37,0,6,0
BRDA:37,1,9,0
BRDA:37,1,10,1
BRDA:37,2,12,-
BRDA:37,2,13,-
BRDA:37,3,15,-
BRDA:37,3,16,-
BRDA:37,4,18,-
BRDA:37,4,19,-
BRDA:37,5,21,-
BRDA:37,5,22,-
BRDA:38,4294967295,2,1
BRDA:38,4294967295,3,0
BRDA:38,0,5,1
BRDA:38,0,6,0
BRDA:38,1,9,0
BRDA:38,1,10,1
BRDA:38,2,12,-
BRDA:38,2,13,-
BRDA:38,3,15,-
BRDA:38,3,16,-
BRDA:38,4,18,-
BRDA:38,4,19,-
BRDA:38,5,21,-
BRDA:38,5,22,-
BRDA:40,3,1,1
BRDA:40,3,2,0
BRDA:40,4,3,1
BRDA:40,4,4,0
BRF:212
BRH:50
DA:8,4
DA:11,2
DA:12,2
DA:14,4
DA:17,8
DA:20,1
DA:21,1
DA:22,1
DA:23,1
DA:24,1
DA:25,1
DA:26,1
DA:27,1
DA:28,1
DA:30,8
DA:33,1
DA:34,1
DA:35,1
DA:36,1
DA:37,1
DA:38,1
DA:39,1
DA:40,4
LF:23
LH:23
end_of_record
TN:
SF:/SharedWithWindows/Projects/diginstrument/inc/Multiplexer.h
FN:17,_ZN5Mixer11MultiplexerIfED0Ev
FN:17,_ZN5Mixer11MultiplexerIfED2Ev
FN:76,_ZN5Mixer11MultiplexerIfEC2Ej
FNDA:0,_ZN5Mixer11MultiplexerIfED0Ev
FNDA:8,_ZN5Mixer11MultiplexerIfED2Ev
FNDA:7,_ZN5Mixer11MultiplexerIfEC2Ej
FNF:3
FNH:2
DA:17,16
DA:76,14
LF:2
LH:2
end_of_record
SF:/SharedWithWindows/Projects/diginstrument/inc/QueueBuffer.h
FN:13,_ZN8DataFlow11QueueBufferIfEC2Ev
FN:13,_ZN8DataFlow11QueueBufferIfED2Ev
FN:13,_ZN8DataFlow11QueueBufferIfED0Ev
FNDA:0,_ZN8DataFlow11QueueBufferIfED0Ev
FNDA:13,_ZN8DataFlow11QueueBufferIfED2Ev
FNDA:13,_ZN8DataFlow11QueueBufferIfEC2Ev
FNF:3
FNH:2
BRDA:13,5,6,13
BRDA:13,5,7,0
BRDA:13,6,9,13
BRDA:13,6,10,0
BRF:4
BRH:2
DA:13,39
LF:1
LH:1
end_of_record
SF:/SharedWithWindows/Projects/diginstrument/inc/RepeatingBuffer.h
FN:15,_ZN8DataFlow15RepeatingBufferIfED2Ev
FN:15,_ZN8DataFlow15RepeatingBufferIfED0Ev
FNDA:0,_ZN8DataFlow15RepeatingBufferIfED0Ev
FNDA:0,_ZN8DataFlow15RepeatingBufferIfED2Ev
FNF:2
FNH:0
DA:15,0
LF:1
LH:0
end_of_record
SF:/SharedWithWindows/Projects/diginstrument/inc/iBuffer.h
FN:11,_ZN8DataFlow7iBufferIfEC2Ev
FN:23,_ZN8DataFlow7iBufferIfED0Ev
FN:23,_ZN8DataFlow7iBufferIfED2Ev
FNDA:65,_ZN8DataFlow7iBufferIfEC2Ev
FNDA:0,_ZN8DataFlow7iBufferIfED0Ev
FNDA:0,_ZN8DataFlow7iBufferIfED2Ev
FNF:3
FNH:1
DA:11,130
DA:23,0
LF:2
LH:1
end_of_record
SF:/SharedWithWindows/Projects/diginstrument/inc/iSource.h
FN:15,_ZN8DataFlow7iSourceIfEC2Ev
FN:28,_ZN8DataFlow7iSourceIfED0Ev
FN:28,_ZN8DataFlow7iSourceIfED2Ev
FNDA:0,_ZN8DataFlow7iSourceIfEC2Ev
FNDA:0,_ZN8DataFlow7iSourceIfED0Ev
FNDA:0,_ZN8DataFlow7iSourceIfED2Ev
FNF:3
FNH:0
DA:15,0
DA:28,0
LF:2
LH:0
end_of_record
SF:/SharedWithWindows/Projects/diginstrument/mixer_test/combined_vorbis_test.cpp
FN:17,_ZN12_GLOBAL__N_118CombinedVorbisTestD2Ev
FN:20,_ZN12_GLOBAL__N_118CombinedVorbisTest5SetUpEv
FN:21,_ZN12_GLOBAL__N_118CombinedVorbisTest8TearDownEv
FN:25,_ZN12_GLOBAL__N_118CombinedVorbisTestC2Ev
FN:28,_ZN12_GLOBAL__N_140CombinedVorbisTest_EncodeThenDecode_TestC2Ev
FN:28,_ZN12_GLOBAL__N_140CombinedVorbisTest_EncodeThenDecode_Test8TestBodyEv
FN:28,_ZN12_GLOBAL__N_140CombinedVorbisTest_EncodeThenDecode_TestD0Ev
FN:28,_ZN12_GLOBAL__N_140CombinedVorbisTest_EncodeThenDecode_TestD2Ev
FN:89,_GLOBAL__sub_I_combined_vorbis_test.cpp
FN:89,_Z41__static_initialization_and_destruction_0ii
FNDA:1,_ZN12_GLOBAL__N_118CombinedVorbisTestD2Ev
FNDA:1,_ZN12_GLOBAL__N_118CombinedVorbisTest5SetUpEv
FNDA:1,_ZN12_GLOBAL__N_118CombinedVorbisTest8TearDownEv
FNDA:1,_ZN12_GLOBAL__N_118CombinedVorbisTestC2Ev
FNDA:1,_ZN12_GLOBAL__N_140CombinedVorbisTest_EncodeThenDecode_TestD0Ev
FNDA:1,_ZN12_GLOBAL__N_140CombinedVorbisTest_EncodeThenDecode_TestD2Ev
FNDA:1,_ZN12_GLOBAL__N_140CombinedVorbisTest_EncodeThenDecode_Test8TestBodyEv
FNDA:1,_ZN12_GLOBAL__N_140CombinedVorbisTest_EncodeThenDecode_TestC2Ev
FNDA:1,_GLOBAL__sub_I_combined_vorbis_test.cpp
FNDA:1,_Z41__static_initialization_and_destruction_0ii
FNF:10
FNH:10
BRDA:25,1,3,1
BRDA:25,1,4,0
BRDA:25,2,7,1
BRDA:25,2,8,0
BRDA:25,3,14,1
BRDA:25,3,15,0
BRDA:25,4,18,1
BRDA:25,4,19,0
BRDA:28,4294967295,5,1
BRDA:28,4294967295,6,0
BRDA:28,0,8,1
BRDA:28,0,9,0
BRDA:28,1,12,1
BRDA:28,1,13,0
BRDA:30,0,2,1
BRDA:30,0,3,0
BRDA:35,4294967295,1,1
BRDA:35,4294967295,2,0
BRDA:36,0,1,1
BRDA:36,0,2,0
BRDA:38,0,1,1
BRDA:38,0,2,0
BRDA:39,0,1,1
BRDA:39,0,2,0
BRDA:39,1,4,1
BRDA:39,1,5,0
BRDA:39,2,7,1
BRDA:39,2,8,0
BRDA:39,3,11,0
BRDA:39,3,12,1
BRDA:39,4,14,-
BRDA:39,4,15,-
BRDA:39,5,17,-
BRDA:39,5,18,-
BRDA:39,6,21,-
BRDA:39,6,22,-
BRDA:39,7,24,-
BRDA:39,7,25,-
BRDA:40,4294967295,2,1
BRDA:40,4294967295,3,0
BRDA:40,0,7,1
BRDA:40,0,8,0
BRDA:40,1,11,1
BRDA:40,1,12,0
BRDA:41,4294967295,2,1
BRDA:41,4294967295,3,0
BRDA:41,0,7,1
BRDA:41,0,8,0
BRDA:41,1,11,1
BRDA:41,1,12,0
BRDA:42,4294967295,1,1
BRDA:42,4294967295,2,0
BRDA:42,0,4,1
BRDA:42,0,5,0
BRDA:42,1,7,1
BRDA:42,1,8,0
BRDA:42,2,11,0
BRDA:42,2,12,1
BRDA:42,3,14,-
BRDA:42,3,15,-
BRDA:42,4,17,-
BRDA:42,4,18,-
BRDA:42,5,20,-
BRDA:42,5,21,-
BRDA:42,6,23,-
BRDA:42,6,24,-
BRDA:43,4294967295,1,1
BRDA:43,4294967295,2,0
BRDA:43,0,5,1
BRDA:43,0,6,0
BRDA:44,4294967295,1,1
BRDA:44,4294967295,2,0
BRDA:44,0,4,1
BRDA:44,0,5,0
BRDA:44,1,7,1
BRDA:44,1,8,0
BRDA:44,2,11,0
BRDA:44,2,12,1
BRDA:44,3,14,-
BRDA:44,3,15,-
BRDA:44,4,17,-
BRDA:44,4,18,-
BRDA:44,5,21,-
BRDA:44,5,22,-
BRDA:44,6,24,-
BRDA:44,6,25,-
BRDA:46,4294967295,1,1
BRDA:46,4294967295,2,0
BRDA:47,0,1,1
BRDA:47,0,2,0
BRDA:47,1,4,1
BRDA:47,1,5,0
BRDA:47,2,7,1
BRDA:47,2,8,0
BRDA:47,3,11,0
BRDA:47,3,12,1
BRDA:47,4,14,-
BRDA:47,4,15,-
BRDA:47,5,17,-
BRDA:47,5,18,-
BRDA:47,6,21,-
BRDA:47,6,22,-
BRDA:47,7,24,-
BRDA:47,7,25,-
BRDA:48,4294967295,1,1
BRDA:48,4294967295,2,0
BRDA:51,0,1,1
BRDA:51,0,2,0
BRDA:51,1,4,1
BRDA:51,1,5,0
BRDA:51,2,7,1
BRDA:51,2,8,0
BRDA:51,3,10,1
BRDA:51,3,11,0
BRDA:51,4,14,0
BRDA:51,4,15,1
BRDA:51,5,17,-
BRDA:51,5,18,-
BRDA:51,6,20,-
BRDA:51,6,21,-
BRDA:51,7,23,-
BRDA:51,7,24,-
BRDA:51,8,26,-
BRDA:51,8,27,-
BRDA:52,4294967295,1,1
BRDA:52,4294967295,2,0
BRDA:52,0,4,1
BRDA:52,0,5,0
BRDA:52,1,7,1
BRDA:52,1,8,0
BRDA:52,2,10,1
BRDA:52,2,11,0
BRDA:52,3,14,0
BRDA:52,3,15,1
BRDA:52,4,17,-
BRDA:52,4,18,-
BRDA:52,5,20,-
BRDA:52,5,21,-
BRDA:52,6,23,-
BRDA:52,6,24,-
BRDA:52,7,26,-
BRDA:52,7,27,-
BRDA:55,4294967295,1,1
BRDA:55,4294967295,2,0
BRDA:55,0,4,1
BRDA:55,0,5,0
BRDA:56,4294967295,2,1
BRDA:56,4294967295,3,0
BRDA:56,0,5,1
BRDA:56,0,6,0
BRDA:56,1,9,0
BRDA:56,1,10,1
BRDA:56,2,12,-
BRDA:56,2,13,-
BRDA:56,3,15,-
BRDA:56,3,16,-
BRDA:56,4,18,-
BRDA:56,4,19,-
BRDA:56,5,21,-
BRDA:56,5,22,-
BRDA:57,4294967295,2,1
BRDA:57,4294967295,3,0
BRDA:57,0,5,1
BRDA:57,0,6,0
BRDA:57,1,9,0
BRDA:57,1,10,1
BRDA:57,2,12,-
BRDA:57,2,13,-
BRDA:57,3,15,-
BRDA:57,3,16,-
BRDA:57,4,18,-
BRDA:57,4,19,-
BRDA:57,5,21,-
BRDA:57,5,22,-
BRDA:59,4294967295,1,1
BRDA:59,4294967295,2,0
BRDA:60,0,1,1
BRDA:60,0,2,0
BRDA:61,0,1,1875
BRDA:61,0,2,1
BRDA:62,0,1,1875
BRDA:62,0,2,0
BRDA:62,1,4,1875
BRDA:62,1,5,0
BRDA:63,4294967295,1,1875
BRDA:63,4294967295,2,0
BRDA:67,0,1,1
BRDA:67,0,2,0
BRDA:67,1,4,1
BRDA:67,1,5,0
BRDA:67,2,8,1
BRDA:67,2,9,0
BRDA:67,3,11,1
BRDA:67,3,12,0
BRDA:67,4,16,0
BRDA:67,4,17,1
BRDA:67,5,19,-
BRDA:67,5,20,-
BRDA:67,6,22,-
BRDA:67,6,23,-
BRDA:67,7,25,-
BRDA:67,7,26,-
BRDA:67,8,28,-
BRDA:67,8,29,-
BRDA:71,4294967295,1,1
BRDA:71,4294967295,2,0
BRDA:71,0,4,1
BRDA:71,0,5,0
BRDA:71,1,7,1
BRDA:71,1,8,0
BRDA:71,2,11,0
BRDA:71,2,12,1
BRDA:71,3,14,-
BRDA:71,3,15,-
BRDA:71,4,17,-
BRDA:71,4,18,-
BRDA:71,5,20,-
BRDA:71,5,21,-
BRDA:71,6,23,-
BRDA:71,6,24,-
BRDA:76,4294967295,1,1
BRDA:76,4294967295,2,0
BRDA:76,0,4,1
BRDA:76,0,5,0
BRDA:76,2,11,960000
BRDA:76,2,12,1
BRDA:77,4294967295,1,960000
BRDA:77,4294967295,2,0
BRDA:77,0,4,960000
BRDA:77,0,5,0
BRDA:77,1,8,0
BRDA:77,1,9,960000
BRDA:77,2,11,-
BRDA:77,2,12,-
BRDA:77,3,14,-
BRDA:77,3,15,-
BRDA:77,4,17,-
BRDA:77,4,18,-
BRDA:77,5,20,-
BRDA:77,5,21,-
BRDA:78,4294967295,0,480000
BRDA:78,4294967295,1,480000
BRDA:86,4294967295,1,1
BRDA:86,4294967295,2,0
BRDA:89,3,1,1
BRDA:89,3,2,0
BRDA:89,4,3,1
BRDA:89,4,4,0
BRF:248
BRH:83
DA:17,2
DA:20,1
DA:21,1
DA:25,1
DA:28,8
DA:30,2
DA:32,1
DA:34,2
DA:35,1
DA:36,1
DA:38,2
DA:39,1
DA:40,1
DA:41,1
DA:42,1
DA:43,1
DA:44,1
DA:46,2
DA:47,1
DA:48,1
DA:51,1
DA:52,1
DA:55,2
DA:56,1
DA:57,1
DA:59,2
DA:60,2
DA:61,1876
DA:62,1875
DA:63,1875
DA:67,1
DA:71,1
DA:74,1
DA:75,1
DA:76,960001
DA:77,960000
DA:78,960000
DA:79,480000
DA:82,480000
DA:86,1
DA:87,1
DA:88,1
DA:89,4
LF:43
LH:43
end_of_record
TN:
SF:/SharedWithWindows/Projects/diginstrument/inc/ComplexWaveformGenerator.h
FN:35,_ZN5Mixer24ComplexWaveformGeneratorIfED2Ev
FN:35,_ZN5Mixer24ComplexWaveformGeneratorIfED0Ev
FNDA:0,_ZN5Mixer24ComplexWaveformGeneratorIfED0Ev
FNDA:8,_ZN5Mixer24ComplexWaveformGeneratorIfED2Ev
FNF:2
FNH:1
DA:35,16
LF:1
LH:1
end_of_record
SF:/SharedWithWindows/Projects/diginstrument/inc/ConsolidationMethods.h
FN:19,_ZN13Consolidation12AccumulationIfED2Ev
FN:19,_ZN13Consolidation12AccumulationIfED0Ev
FNDA:0,_ZN13Consolidation12AccumulationIfED0Ev
FNDA:21,_ZN13Consolidation12AccumulationIfED2Ev
FNF:2
FNH:1
DA:19,42
LF:1
LH:1
end_of_record
SF:/SharedWithWindows/Projects/diginstrument/inc/Consolidator.h
FN:20,_ZN8DataFlow12ConsolidatorIfN13Consolidation12AccumulationEED2Ev
FN:20,_ZN8DataFlow12ConsolidatorIfN13Consolidation12AccumulationEED0Ev
FN:60,_ZN8DataFlow12ConsolidatorIfN13Consolidation12AccumulationEE3getERKj
FNDA:0,_ZN8DataFlow12ConsolidatorIfN13Consolidation12AccumulationEED0Ev
FNDA:21,_ZN8DataFlow12ConsolidatorIfN13Consolidation12AccumulationEED2Ev
FNDA:14,_ZN8DataFlow12ConsolidatorIfN13Consolidation12AccumulationEE3getERKj
FNF:3
FNH:2
BRDA:61,0,4,14
BRDA:61,0,5,0
BRDA:62,0,1,602
BRDA:62,0,2,14
BRDA:63,0,4,602
BRDA:63,0,5,0
BRF:6
BRH:4
DA:20,42
DA:60,14
DA:61,14
DA:62,616
DA:63,602
DA:65,14
LF:6
LH:6
end_of_record
SF:/SharedWithWindows/Projects/diginstrument/inc/iConsolidationMethod.h
FN:41,_ZN8DataFlow20iConsolidationMethodIfED0Ev
FN:41,_ZN8DataFlow20iConsolidationMethodIfED2Ev
FNDA:0,_ZN8DataFlow20iConsolidationMethodIfED0Ev
FNDA:24,_ZN8DataFlow20iConsolidationMethodIfED2Ev
FNF:2
FNH:1
DA:41,24
LF:1
LH:1
end_of_record
SF:/SharedWithWindows/Projects/diginstrument/inc/iSource.h
FN:28,_ZN8DataFlow7iSourceIfED0Ev
FN:28,_ZN8DataFlow7iSourceIfED2Ev
FNDA:0,_ZN8DataFlow7iSourceIfED0Ev
FNDA:0,_ZN8DataFlow7iSourceIfED2Ev
FNF:2
FNH:0
DA:28,0
LF:1
LH:0
end_of_record
SF:/SharedWithWindows/Projects/diginstrument/mixer_test/complex_waveform_generator_test.cpp
FN:10,_ZN12_GLOBAL__N_128ComplexWaveformGeneratorTestD2Ev
FN:13,_ZN12_GLOBAL__N_128ComplexWaveformGeneratorTest5SetUpEv
FN:14,_ZN12_GLOBAL__N_128ComplexWaveformGeneratorTest8TearDownEv
FN:18,_ZN12_GLOBAL__N_128ComplexWaveformGeneratorTestC2Ev
FN:20,_ZN12_GLOBAL__N_156ComplexWaveformGeneratorTest_SilentWithNoComponents_Test8TestBodyEv
FN:20,_ZN12_GLOBAL__N_156ComplexWaveformGeneratorTest_SilentWithNoComponents_TestD0Ev
FN:20,_ZN12_GLOBAL__N_156ComplexWaveformGeneratorTest_SilentWithNoComponents_TestC2Ev
FN:20,_ZN12_GLOBAL__N_156ComplexWaveformGeneratorTest_SilentWithNoComponents_TestD2Ev
FN:28,_ZN12_GLOBAL__N_152ComplexWaveformGeneratorTest_SetAndGetComponent_Test8TestBodyEv
FN:28,_ZN12_GLOBAL__N_152ComplexWaveformGeneratorTest_SetAndGetComponent_TestD2Ev
FN:28,_ZN12_GLOBAL__N_152ComplexWaveformGeneratorTest_SetAndGetComponent_TestD0Ev
FN:28,_ZN12_GLOBAL__N_152ComplexWaveformGeneratorTest_SetAndGetComponent_TestC2Ev
FN:36,_ZN12_GLOBAL__N_154ComplexWaveformGeneratorTest_SetExistingComponent_TestD0Ev
FN:36,_ZN12_GLOBAL__N_154ComplexWaveformGeneratorTest_SetExistingComponent_Test8TestBodyEv
FN:36,_ZN12_GLOBAL__N_154ComplexWaveformGeneratorTest_SetExistingComponent_TestD2Ev
FN:36,_ZN12_GLOBAL__N_154ComplexWaveformGeneratorTest_SetExistingComponent_TestC2Ev
FN:46,_ZN12_GLOBAL__N_166ComplexWaveformGeneratorTest_SetAndGetComponentWithTransition_Test8TestBodyEv
FN:46,_ZN12_GLOBAL__N_166ComplexWaveformGeneratorTest_SetAndGetComponentWithTransition_TestD0Ev
FN:46,_ZN12_GLOBAL__N_166ComplexWaveformGeneratorTest_SetAndGetComponentWithTransition_TestD2Ev
FN:46,_ZN12_GLOBAL__N_166ComplexWaveformGeneratorTest_SetAndGetComponentWithTransition_TestC2Ev
FN:58,_ZN12_GLOBAL__N_161ComplexWaveformGeneratorTest_NotPresentComponentIsSilent_TestC2Ev
FN:58,_ZN12_GLOBAL__N_161ComplexWaveformGeneratorTest_NotPresentComponentIsSilent_TestD0Ev
FN:58,_ZN12_GLOBAL__N_161ComplexWaveformGeneratorTest_NotPresentComponentIsSilent_TestD2Ev
FN:58,_ZN12_GLOBAL__N_161ComplexWaveformGeneratorTest_NotPresentComponentIsSilent_Test8TestBodyEv
FN:63,_ZN12_GLOBAL__N_141ComplexWaveformGeneratorTest_getSize_Test8TestBodyEv
FN:63,_ZN12_GLOBAL__N_141ComplexWaveformGeneratorTest_getSize_TestD0Ev
FN:63,_ZN12_GLOBAL__N_141ComplexWaveformGeneratorTest_getSize_TestD2Ev
FN:63,_ZN12_GLOBAL__N_141ComplexWaveformGeneratorTest_getSize_TestC2Ev
FN:76,_ZN12_GLOBAL__N_162ComplexWaveformGeneratorTest_SetComponentsWithConstructor_Test8TestBodyEv
FN:76,_ZN12_GLOBAL__N_162ComplexWaveformGeneratorTest_SetComponentsWithConstructor_TestC2Ev
FN:76,_ZN12_GLOBAL__N_162ComplexWaveformGeneratorTest_SetComponentsWithConstructor_TestD0Ev
FN:76,_ZN12_GLOBAL__N_162ComplexWaveformGeneratorTest_SetComponentsWithConstructor_TestD2Ev
FN:89,_Z41__static_initialization_and_destruction_0ii
FN:89,_GLOBAL__sub_I_complex_waveform_generator_test.cpp
FNDA:7,_ZN12_GLOBAL__N_128ComplexWaveformGeneratorTestD2Ev
FNDA:7,_ZN12_GLOBAL__N_128ComplexWaveformGeneratorTest5SetUpEv
FNDA:7,_ZN12_GLOBAL__N_128ComplexWaveformGeneratorTest8TearDownEv
FNDA:7,_ZN12_GLOBAL__N_128ComplexWaveformGeneratorTestC2Ev
FNDA:1,_ZN12_GLOBAL__N_156ComplexWaveformGeneratorTest_SilentWithNoComponents_TestD0Ev
FNDA:1,_ZN12_GLOBAL__N_156ComplexWaveformGeneratorTest_SilentWithNoComponents_TestD2Ev
FNDA:1,_ZN12_GLOBAL__N_156ComplexWaveformGeneratorTest_SilentWithNoComponents_Test8TestBodyEv
FNDA:1,_ZN12_GLOBAL__N_156ComplexWaveformGeneratorTest_SilentWithNoComponents_TestC2Ev
FNDA:1,_ZN12_GLOBAL__N_152ComplexWaveformGeneratorTest_SetAndGetComponent_TestD0Ev
FNDA:1,_ZN12_GLOBAL__N_152ComplexWaveformGeneratorTest_SetAndGetComponent_TestD2Ev
FNDA:1,_ZN12_GLOBAL__N_152ComplexWaveformGeneratorTest_SetAndGetComponent_Test8TestBodyEv
FNDA:1,_ZN12_GLOBAL__N_152ComplexWaveformGeneratorTest_SetAndGetComponent_TestC2Ev
FNDA:1,_ZN12_GLOBAL__N_154ComplexWaveformGeneratorTest_SetExistingComponent_TestD0Ev
FNDA:1,_ZN12_GLOBAL__N_154ComplexWaveformGeneratorTest_SetExistingComponent_TestD2Ev
FNDA:1,_ZN12_GLOBAL__N_154ComplexWaveformGeneratorTest_SetExistingComponent_Test8TestBodyEv
FNDA:1,_ZN12_GLOBAL__N_154ComplexWaveformGeneratorTest_SetExistingComponent_TestC2Ev
FNDA:1,_ZN12_GLOBAL__N_166ComplexWaveformGeneratorTest_SetAndGetComponentWithTransition_TestD0Ev
FNDA:1,_ZN12_GLOBAL__N_166ComplexWaveformGeneratorTest_SetAndGetComponentWithTransition_TestD2Ev
FNDA:1,_ZN12_GLOBAL__N_166ComplexWaveformGeneratorTest_SetAndGetComponentWithTransition_Test8TestBodyEv
FNDA:1,_ZN12_GLOBAL__N_166ComplexWaveformGeneratorTest_SetAndGetComponentWithTransition_TestC2Ev
FNDA:1,_ZN12_GLOBAL__N_161ComplexWaveformGeneratorTest_NotPresentComponentIsSilent_TestD0Ev
FNDA:1,_ZN12_GLOBAL__N_161ComplexWaveformGeneratorTest_NotPresentComponentIsSilent_TestD2Ev
FNDA:1,_ZN12_GLOBAL__N_161ComplexWaveformGeneratorTest_NotPresentComponentIsSilent_Test8TestBodyEv
FNDA:1,_ZN12_GLOBAL__N_161ComplexWaveformGeneratorTest_NotPresentComponentIsSilent_TestC2Ev
FNDA:1,_ZN12_GLOBAL__N_141ComplexWaveformGeneratorTest_getSize_TestD0Ev
FNDA:1,_ZN12_GLOBAL__N_141ComplexWaveformGeneratorTest_getSize_TestD2Ev
FNDA:1,_ZN12_GLOBAL__N_141ComplexWaveformGeneratorTest_getSize_Test8TestBodyEv
FNDA:1,_ZN12_GLOBAL__N_141ComplexWaveformGeneratorTest_getSize_TestC2Ev
FNDA:1,_ZN12_GLOBAL__N_162ComplexWaveformGeneratorTest_SetComponentsWithConstructor_TestD0Ev
FNDA:1,_ZN12_GLOBAL__N_162ComplexWaveformGeneratorTest_SetComponentsWithConstructor_TestD2Ev
FNDA:1,_ZN12_GLOBAL__N_162ComplexWaveformGeneratorTest_SetComponentsWithConstructor_Test8TestBodyEv
FNDA:1,_ZN12_GLOBAL__N_162ComplexWaveformGeneratorTest_SetComponentsWithConstructor_TestC2Ev
FNDA:1,_GLOBAL__sub_I_complex_waveform_generator_test.cpp
FNDA:1,_Z41__static_initialization_and_destruction_0ii
FNF:34
FNH:34
BRDA:18,1,3,7
BRDA:18,1,4,0
BRDA:20,4294967295,5,1
BRDA:20,4294967295,6,0
BRDA:20,0,8,1
BRDA:20,0,9,0
BRDA:20,1,12,1
BRDA:20,1,13,0
BRDA:22,0,1,1
BRDA:22,0,2,0
BRDA:23,0,5,512
BRDA:23,0,6,1
BRDA:24,4294967295,1,512
BRDA:24,4294967295,2,0
BRDA:24,0,4,512
BRDA:24,0,5,0
BRDA:24,1,8,0
BRDA:24,1,9,512
BRDA:24,2,11,-
BRDA:24,2,12,-
BRDA:24,3,14,-
BRDA:24,3,15,-
BRDA:24,4,17,-
BRDA:24,4,18,-
BRDA:24,5,20,-
BRDA:24,5,21,-
BRDA:28,4294967295,5,1
BRDA:28,4294967295,6,0
BRDA:28,0,8,1
BRDA:28,0,9,0
BRDA:28,1,12,1
BRDA:28,1,13,0
BRDA:32,0,1,1
BRDA:32,0,2,0
BRDA:33,0,1,1
BRDA:33,0,2,0
BRDA:33,1,4,1
BRDA:33,1,5,0
BRDA:33,2,7,1
BRDA:33,2,8,0
BRDA:33,3,11,0
BRDA:33,3,12,1
BRDA:33,4,14,-
BRDA:33,4,15,-
BRDA:33,5,17,-
BRDA:33,5,18,-
BRDA:33,6,20,-
BRDA:33,6,21,-
BRDA:33,7,23,-
BRDA:33,7,24,-
BRDA:36,4294967295,5,1
BRDA:36,4294967295,6,0
BRDA:36,0,8,1
BRDA:36,0,9,0
BRDA:36,1,12,1
BRDA:36,1,13,0
BRDA:40,0,1,1
BRDA:40,0,2,0
BRDA:41,0,1,1
BRDA:41,0,2,0
BRDA:41,1,4,1
BRDA:41,1,5,0
BRDA:41,2,7,1
BRDA:41,2,8,0
BRDA:41,3,11,0
BRDA:41,3,12,1
BRDA:41,4,14,-
BRDA:41,4,15,-
BRDA:41,5,17,-
BRDA:41,5,18,-
BRDA:41,6,20,-
BRDA:41,6,21,-
BRDA:41,7,23,-
BRDA:41,7,24,-
BRDA:42,4294967295,1,1
BRDA:42,4294967295,2,0
BRDA:43,0,1,1
BRDA:43,0,2,0
BRDA:43,1,4,1
BRDA:43,1,5,0
BRDA:43,2,7,1
BRDA:43,2,8,0
BRDA:43,3,11,0
BRDA:43,3,12,1
BRDA:43,4,14,-
BRDA:43,4,15,-
BRDA:43,5,17,-
BRDA:43,5,18,-
BRDA:43,6,20,-
BRDA:43,6,21,-
BRDA:43,7,23,-
BRDA:43,7,24,-
BRDA:46,4294967295,5,1
BRDA:46,4294967295,6,0
BRDA:46,0,8,1
BRDA:46,0,9,0
BRDA:46,1,12,1
BRDA:46,1,13,0
BRDA:51,0,1,1
BRDA:51,0,2,0
BRDA:52,0,2,1
BRDA:52,0,3,0
BRDA:52,1,6,1
BRDA:52,1,7,0
BRDA:54,4294967295,1,1
BRDA:54,4294967295,2,0
BRDA:55,4294967295,1,1
BRDA:55,4294967295,2,0
BRDA:55,0,4,1
BRDA:55,0,5,0
BRDA:55,1,7,1
BRDA:55,1,8,0
BRDA:55,2,11,0
BRDA:55,2,12,1
BRDA:55,3,14,-
BRDA:55,3,15,-
BRDA:55,4,17,-
BRDA:55,4,18,-
BRDA:55,5,20,-
BRDA:55,5,21,-
BRDA:55,6,23,-
BRDA:55,6,24,-
BRDA:58,4294967295,5,1
BRDA:58,4294967295,6,0
BRDA:58,0,8,1
BRDA:58,0,9,0
BRDA:58,1,12,1
BRDA:58,1,13,0
BRDA:60,0,1,1
BRDA:60,0,2,0
BRDA:60,1,4,1
BRDA:60,1,5,0
BRDA:60,2,7,1
BRDA:60,2,8,0
BRDA:60,3,11,0
BRDA:60,3,12,1
BRDA:60,4,14,-
BRDA:60,4,15,-
BRDA:60,5,17,-
BRDA:60,5,18,-
BRDA:60,6,20,-
BRDA:60,6,21,-
BRDA:60,7,23,-
BRDA:60,7,24,-
BRDA:63,4294967295,5,1
BRDA:63,4294967295,6,0
BRDA:63,0,8,1
BRDA:63,0,9,0
BRDA:63,1,12,1
BRDA:63,1,13,0
BRDA:66,0,1,1
BRDA:66,0,2,0
BRDA:67,4294967295,2,1
BRDA:67,4294967295,3,0
BRDA:67,0,5,1
BRDA:67,0,6,0
BRDA:67,1,9,0
BRDA:67,1,10,1
BRDA:67,2,12,-
BRDA:67,2,13,-
BRDA:67,3,15,-
BRDA:67,3,16,-
BRDA:67,4,18,-
BRDA:67,4,19,-
BRDA:67,5,21,-
BRDA:67,5,22,-
BRDA:69,4294967295,1,1
BRDA:69,4294967295,2,0
BRDA:70,4294967295,2,1
BRDA:70,4294967295,3,0
BRDA:70,0,5,1
BRDA:70,0,6,0
BRDA:70,1,9,0
BRDA:70,1,10,1
BRDA:70,2,12,-
BRDA:70,2,13,-
BRDA:70,3,15,-
BRDA:70,3,16,-
BRDA:70,4,18,-
BRDA:70,4,19,-
BRDA:70,5,21,-
BRDA:70,5,22,-
BRDA:72,4294967295,1,1
BRDA:72,4294967295,2,0
BRDA:73,4294967295,2,1
BRDA:73,4294967295,3,0
BRDA:73,0,5,1
BRDA:73,0,6,0
BRDA:73,1,9,0
BRDA:73,1,10,1
BRDA:73,2,12,-
BRDA:73,2,13,-
BRDA:73,3,15,-
BRDA:73,3,16,-
BRDA:73,4,18,-
BRDA:73,4,19,-
BRDA:73,5,21,-
BRDA:73,5,22,-
BRDA:76,4294967295,5,1
BRDA:76,4294967295,6,0
BRDA:76,0,8,1
BRDA:76,0,9,0
BRDA:76,1,12,1
BRDA:76,1,13,0
BRDA:80,4294967295,3,1
BRDA:80,4294967295,4,0
BRDA:81,0,2,1
BRDA:81,0,3,0
BRDA:83,0,1,1
BRDA:83,0,2,0
BRDA:85,0,1,1
BRDA:85,0,2,0
BRDA:85,1,4,1
BRDA:85,1,5,0
BRDA:85,2,7,1
BRDA:85,2,8,0
BRDA:85,3,11,0
BRDA:85,3,12,1
BRDA:85,4,14,-
BRDA:85,4,15,-
BRDA:85,5,17,-
BRDA:85,5,18,-
BRDA:85,6,20,-
BRDA:85,6,21,-
BRDA:85,7,23,-
BRDA:85,7,24,-
BRDA:86,4294967295,1,1
BRDA:86,4294967295,2,0
BRDA:86,0,4,1
BRDA:86,0,5,0
BRDA:86,1,7,1
BRDA:86,1,8,0
BRDA:86,2,11,0
BRDA:86,2,12,1
BRDA:86,3,14,-
BRDA:86,3,15,-
BRDA:86,4,17,-
BRDA:86,4,18,-
BRDA:86,5,20,-
BRDA:86,5,21,-
BRDA:86,6,23,-
BRDA:86,6,24,-
BRDA:87,4294967295,1,1
BRDA:87,4294967295,2,0
BRDA:87,0,4,1
BRDA:87,0,5,0
BRDA:87,1,7,1
BRDA:87,1,8,0
BRDA:87,2,11,0
BRDA:87,2,12,1
BRDA:87,3,14,-
BRDA:87,3,15,-
BRDA:87,4,17,-
BRDA:87,4,18,-
BRDA:87,5,20,-
BRDA:87,5,21,-
BRDA:87,6,23,-
BRDA:87,6,24,-
BRDA:89,3,1,1
BRDA:89,3,2,0
BRDA:89,4,3,1
BRDA:89,4,4,0
BRF:262
BRH:84
DA:10,14
DA:13,7
DA:14,7
DA:18,7
DA:20,8
DA:22,2
DA:23,513
DA:24,512
DA:26,1
DA:28,8
DA:30,1
DA:31,1
DA:32,1
DA:33,1
DA:34,1
DA:36,8
DA:38,1
DA:39,1
DA:40,1
DA:41,1
DA:42,1
DA:43,1
DA:44,1
DA:46,8
DA:48,1
DA:49,1
DA:50,1
DA:51,1
DA:52,1
DA:54,1
DA:55,1
DA:56,1
DA:58,8
DA:60,1
DA:61,1
DA:63,8
DA:65,1
DA:66,2
DA:67,1
DA:68,1
DA:69,1
DA:70,1
DA:71,1
DA:72,1
DA:73,1
DA:74,1
DA:76,8
DA:78,2
DA:79,1
DA:80,1
DA:81,1
DA:83,2
DA:85,1
DA:86,1
DA:87,1
DA:88,1
DA:89,4
LF:57
LH:57
end_of_record
TN:
SF:/SharedWithWindows/Projects/diginstrument/inc/ConsolidationMethods.h
FN:19,_ZN13Consolidation12AccumulationIiED0Ev
FN:19,_ZN13Consolidation12AccumulationIfEC2Ev
FN:19,_ZN13Consolidation12AccumulationIfED0Ev
FN:19,_ZN13Consolidation12AccumulationIiED2Ev
FN:19,_ZN13Consolidation12AccumulationIiEC2Ev
FN:19,_ZN13Consolidation12AccumulationIfED2Ev
FN:35,_ZN13Consolidation14MultiplicationIfEC2Ev
FN:35,_ZN13Consolidation14MultiplicationIiED2Ev
FN:35,_ZN13Consolidation14MultiplicationIfED2Ev
FN:35,_ZN13Consolidation14MultiplicationIiED0Ev
FN:35,_ZN13Consolidation14MultiplicationIfED0Ev
FN:35,_ZN13Consolidation14MultiplicationIiEC2Ev
FNDA:0,_ZN13Consolidation12AccumulationIfED0Ev
FNDA:0,_ZN13Consolidation12AccumulationIfED2Ev
FNDA:0,_ZN13Consolidation12AccumulationIiED0Ev
FNDA:1,_ZN13Consolidation12AccumulationIiED2Ev
FNDA:1,_ZN13Consolidation12AccumulationIiEC2Ev
FNDA:21,_ZN13Consolidation12AccumulationIfEC2Ev
FNDA:0,_ZN13Consolidation14MultiplicationIfED0Ev
FNDA:3,_ZN13Consolidation14MultiplicationIfED2Ev
FNDA:0,_ZN13Consolidation14MultiplicationIiED0Ev
FNDA:1,_ZN13Consolidation14MultiplicationIiED2Ev
FNDA:1,_ZN13Consolidation14MultiplicationIiEC2Ev
FNDA:3,_ZN13Consolidation14MultiplicationIfEC2Ev
FNF:12
FNH:7
DA:19,46
DA:35,16
LF:2
LH:2
end_of_record
SF:/SharedWithWindows/Projects/diginstrument/inc/Consolidator.h
FN:20,_ZN8DataFlow12ConsolidatorIfN13Consolidation12AccumulationEED0Ev
FN:20,_ZN8DataFlow12ConsolidatorIiN13Consolidation12AccumulationEED2Ev
FN:20,_ZN8DataFlow12ConsolidatorIfN13Consolidation14MultiplicationEEC2Ev
FN:20,_ZN8DataFlow12ConsolidatorIfN13Consolidation12AccumulationEED2Ev
FN:20,_ZN8DataFlow12ConsolidatorIiN13Consolidation14MultiplicationEEC2Ev
FN:20,_ZN8DataFlow12ConsolidatorIiN13Consolidation12AccumulationEED0Ev
FN:20,_ZN8DataFlow12ConsolidatorIiN13Consolidation14MultiplicationEED2Ev
FN:20,_ZN8DataFlow12ConsolidatorIiN13Consolidation12AccumulationEEC2Ev
FN:20,_ZN8DataFlow12ConsolidatorIiN13Consolidation14MultiplicationEED0Ev
FN:20,_ZN8DataFlow12ConsolidatorIfN13Consolidation12AccumulationEEC2Ev
FN:20,_ZN8DataFlow12ConsolidatorIfN13Consolidation14MultiplicationEED0Ev
FN:20,_ZN8DataFlow12ConsolidatorIfN13Consolidation14MultiplicationEED2Ev
FN:31,_ZN8DataFlow12ConsolidatorIiN13Consolidation12AccumulationEE6attachERNS_7iSourceIiEE
FN:31,_ZN8DataFlow12ConsolidatorIfN13Consolidation12AccumulationEE6attachERNS_7iSourceIfEE
FN:31,_ZN8DataFlow12ConsolidatorIiN13Consolidation14MultiplicationEE6attachERNS_7iSourceIiEE
FN:31,_ZN8DataFlow12ConsolidatorIfN13Consolidation14MultiplicationEE6attachERNS_7iSourceIfEE
FN:60,_ZN8DataFlow12ConsolidatorIfN13Consolidation14MultiplicationEE3getERKj
FN:60,_ZN8DataFlow12ConsolidatorIiN13Consolidation14MultiplicationEE3getERKj
FN:60,_ZN8DataFlow12ConsolidatorIfN13Consolidation12AccumulationEE3getERKj
FN:60,_ZN8DataFlow12ConsolidatorIiN13Consolidation12AccumulationEE3getERKj
FNDA:0,_ZN8DataFlow12ConsolidatorIfN13Consolidation12AccumulationEED0Ev
FNDA:0,_ZN8DataFlow12ConsolidatorIfN13Consolidation12AccumulationEED2Ev
FNDA:0,_ZN8DataFlow12ConsolidatorIiN13Consolidation12AccumulationEED0Ev
FNDA:1,_ZN8DataFlow12ConsolidatorIiN13Consolidation12AccumulationEED2Ev
FNDA:0,_ZN8DataFlow12ConsolidatorIfN13Consolidation14MultiplicationEED0Ev
FNDA:3,_ZN8DataFlow12ConsolidatorIfN13Consolidation14MultiplicationEED2Ev
FNDA:0,_ZN8DataFlow12ConsolidatorIiN13Consolidation14MultiplicationEED0Ev
FNDA:1,_ZN8DataFlow12ConsolidatorIiN13Consolidation14MultiplicationEED2Ev
FNDA:1,_ZN8DataFlow12ConsolidatorIiN13Consolidation14MultiplicationEEC2Ev
FNDA:3,_ZN8DataFlow12ConsolidatorIfN13Consolidation14MultiplicationEEC2Ev
FNDA:1,_ZN8DataFlow12ConsolidatorIiN13Consolidation12AccumulationEEC2Ev
FNDA:21,_ZN8DataFlow12ConsolidatorIfN13Consolidation12AccumulationEEC2Ev
FNDA:3,_ZN8DataFlow12ConsolidatorIiN13Consolidation14MultiplicationEE6attachERNS_7iSourceIiEE
FNDA:6,_ZN8DataFlow12ConsolidatorIfN13Consolidation14MultiplicationEE6attachERNS_7iSourceIfEE
FNDA:3,_ZN8DataFlow12ConsolidatorIiN13Consolidation12AccumulationEE6attachERNS_7iSourceIiEE
FNDA:620,_ZN8DataFlow12ConsolidatorIfN13Consolidation12AccumulationEE6attachERNS_7iSourceIfEE
FNDA:1,_ZN8DataFlow12ConsolidatorIiN13Consolidation14MultiplicationEE3getERKj
FNDA:6,_ZN8DataFlow12ConsolidatorIfN13Consolidation14MultiplicationEE3getERKj
FNDA:1,_ZN8DataFlow12ConsolidatorIiN13Consolidation12AccumulationEE3getERKj
FNDA:0,_ZN8DataFlow12ConsolidatorIfN13Consolidation12AccumulationEE3getERKj
FNF:20
FNH:14
BRDA:32,0,2,3
BRDA:32,0,3,0
BRDA:32,1,6,6
BRDA:32,1,7,0
BRDA:32,2,10,3
BRDA:32,2,11,0
BRDA:32,3,14,620
BRDA:32,3,15,0
BRDA:61,0,4,1
BRDA:61,0,5,0
BRDA:61,3,13,6
BRDA:61,3,14,0
BRDA:61,6,22,1
BRDA:61,6,23,0
BRDA:61,9,31,-
BRDA:61,9,32,-
BRDA:62,0,1,2
BRDA:62,0,2,1
BRDA:62,1,4,3
BRDA:62,1,5,6
BRDA:62,2,7,2
BRDA:62,2,8,1
BRDA:62,3,10,-
BRDA:62,3,11,-
BRDA:63,0,4,2
BRDA:63,0,5,0
BRDA:63,3,12,3
BRDA:63,3,13,0
BRDA:63,6,20,2
BRDA:63,6,21,0
BRDA:63,9,28,-
BRDA:63,9,29,-
BRF:32
BRH:16
DA:20,62
DA:31,632
DA:32,632
DA:33,632
DA:60,8
DA:61,8
DA:62,15
DA:63,7
DA:65,8
LF:9
LH:9
end_of_record
SF:/SharedWithWindows/Projects/diginstrument/inc/RepeatingBuffer.h
FN:15,_ZN8DataFlow15RepeatingBufferIiED2Ev
FN:15,_ZN8DataFlow15RepeatingBufferIfED0Ev
FN:15,_ZN8DataFlow15RepeatingBufferIfED2Ev
FN:15,_ZN8DataFlow15RepeatingBufferIiED0Ev
FNDA:0,_ZN8DataFlow15RepeatingBufferIiED0Ev
FNDA:11,_ZN8DataFlow15RepeatingBufferIiED2Ev
FNDA:0,_ZN8DataFlow15RepeatingBufferIfED0Ev
FNDA:0,_ZN8DataFlow15RepeatingBufferIfED2Ev
FNF:4
FNH:1
DA:15,22
LF:1
LH:1
end_of_record
SF:/SharedWithWindows/Projects/diginstrument/inc/iBuffer.h
FN:23,_ZN8DataFlow7iBufferIiED2Ev
FN:23,_ZN8DataFlow7iBufferIfED2Ev
FN:23,_ZN8DataFlow7iBufferIiED0Ev
FN:23,_ZN8DataFlow7iBufferIfED0Ev
FNDA:0,_ZN8DataFlow7iBufferIiED0Ev
FNDA:11,_ZN8DataFlow7iBufferIiED2Ev
FNDA:0,_ZN8DataFlow7iBufferIfED0Ev
FNDA:0,_ZN8DataFlow7iBufferIfED2Ev
FNF:4
FNH:1
DA:23,22
LF:1
LH:1
end_of_record
SF:/SharedWithWindows/Projects/diginstrument/inc/iConsolidationMethod.h
FN:13,_ZN8DataFlow20iConsolidationMethodIiEC2Ev
FN:13,_ZN8DataFlow20iConsolidationMethodIfEC2Ev
FN:41,_ZN8DataFlow20iConsolidationMethodIfED2Ev
FN:41,_ZN8DataFlow20iConsolidationMethodIiED2Ev
FN:41,_ZN8DataFlow20iConsolidationMethodIfED0Ev
FN:41,_ZN8DataFlow20iConsolidationMethodIiED0Ev
FNDA:2,_ZN8DataFlow20iConsolidationMethodIiEC2Ev
FNDA:24,_ZN8DataFlow20iConsolidationMethodIfEC2Ev
FNDA:0,_ZN8DataFlow20iConsolidationMethodIiED0Ev
FNDA:2,_ZN8DataFlow20iConsolidationMethodIiED2Ev
FNDA:0,_ZN8DataFlow20iConsolidationMethodIfED0Ev
FNDA:0,_ZN8DataFlow20iConsolidationMethodIfED2Ev
FNF:6
FNH:3
DA:13,26
DA:41,2
LF:2
LH:2
end_of_record
SF:/SharedWithWindows/Projects/diginstrument/inc/iSource.h
FN:15,_ZN8DataFlow7iSourceIfEC2Ev
FN:15,_ZN8DataFlow7iSourceIiEC2Ev
FN:28,_ZN8DataFlow7iSourceIfED2Ev
FN:28,_ZN8DataFlow7iSourceIiED2Ev
FN:28,_ZN8DataFlow7iSourceIfED0Ev
FN:28,_ZN8DataFlow7iSourceIiED0Ev
FNDA:13,_ZN8DataFlow7iSourceIiEC2Ev
FNDA:0,_ZN8DataFlow7iSourceIfEC2Ev
FNDA:0,_ZN8DataFlow7iSourceIiED0Ev
FNDA:13,_ZN8DataFlow7iSourceIiED2Ev
FNDA:0,_ZN8DataFlow7iSourceIfED0Ev
FNDA:0,_ZN8DataFlow7iSourceIfED2Ev
FNF:6
FNH:2
DA:15,13
DA:28,13
LF:2
LH:2
end_of_record
SF:/SharedWithWindows/Projects/diginstrument/mixer_test/consolidation_methods_test.cpp
FN:9,_ZN12_GLOBAL__N_124ConsolidationMethodsTestD2Ev
FN:12,_ZN12_GLOBAL__N_124ConsolidationMethodsTest5SetUpEv
FN:13,_ZN12_GLOBAL__N_124ConsolidationMethodsTest8TearDownEv
FN:15,_ZN12_GLOBAL__N_124ConsolidationMethodsTestC2Ev
FN:18,_ZN12_GLOBAL__N_151ConsolidationMethodsTest_AccumulationWithFloat_TestD2Ev
FN:18,_ZN12_GLOBAL__N_151ConsolidationMethodsTest_AccumulationWithFloat_TestD0Ev
FN:18,_ZN12_GLOBAL__N_151ConsolidationMethodsTest_AccumulationWithFloat_TestC2Ev
FN:18,_ZN12_GLOBAL__N_151ConsolidationMethodsTest_AccumulationWithFloat_Test8TestBodyEv
FN:39,_ZN12_GLOBAL__N_149ConsolidationMethodsTest_AccumulationWithint_TestD0Ev
FN:39,_ZN12_GLOBAL__N_149ConsolidationMethodsTest_AccumulationWithint_TestD2Ev
FN:39,_ZN12_GLOBAL__N_149ConsolidationMethodsTest_AccumulationWithint_TestC2Ev
FN:39,_ZN12_GLOBAL__N_149ConsolidationMethodsTest_AccumulationWithint_Test8TestBodyEv
FN:60,_ZN12_GLOBAL__N_153ConsolidationMethodsTest_MultiplicationWithFloat_Test8TestBodyEv
FN:60,_ZN12_GLOBAL__N_153ConsolidationMethodsTest_MultiplicationWithFloat_TestD0Ev
FN:60,_ZN12_GLOBAL__N_153ConsolidationMethodsTest_MultiplicationWithFloat_TestD2Ev
FN:60,_ZN12_GLOBAL__N_153ConsolidationMethodsTest_MultiplicationWithFloat_TestC2Ev
FN:81,_ZN12_GLOBAL__N_151ConsolidationMethodsTest_MultiplicationWithInt_Test8TestBodyEv
FN:81,_ZN12_GLOBAL__N_151ConsolidationMethodsTest_MultiplicationWithInt_TestC2Ev
FN:81,_ZN12_GLOBAL__N_151ConsolidationMethodsTest_MultiplicationWithInt_TestD2Ev
FN:81,_ZN12_GLOBAL__N_151ConsolidationMethodsTest_MultiplicationWithInt_TestD0Ev
FN:101,_GLOBAL__sub_I_consolidation_methods_test.cpp
FN:101,_Z41__static_initialization_and_destruction_0ii
FNDA:4,_ZN12_GLOBAL__N_124ConsolidationMethodsTestD2Ev
FNDA:4,_ZN12_GLOBAL__N_124ConsolidationMethodsTest5SetUpEv
FNDA:4,_ZN12_GLOBAL__N_124ConsolidationMethodsTest8TearDownEv
FNDA:4,_ZN12_GLOBAL__N_124ConsolidationMethodsTestC2Ev
FNDA:1,_ZN12_GLOBAL__N_151ConsolidationMethodsTest_AccumulationWithFloat_TestD0Ev
FNDA:1,_ZN12_GLOBAL__N_151ConsolidationMethodsTest_AccumulationWithFloat_TestD2Ev
FNDA:1,_ZN12_GLOBAL__N_151ConsolidationMethodsTest_AccumulationWithFloat_Test8TestBodyEv
FNDA:1,_ZN12_GLOBAL__N_151ConsolidationMethodsTest_AccumulationWithFloat_TestC2Ev
FNDA:1,_ZN12_GLOBAL__N_149ConsolidationMethodsTest_AccumulationWithint_TestD0Ev
FNDA:1,_ZN12_GLOBAL__N_149ConsolidationMethodsTest_AccumulationWithint_TestD2Ev
FNDA:1,_ZN12_GLOBAL__N_149ConsolidationMethodsTest_AccumulationWithint_Test8TestBodyEv
FNDA:1,_ZN12_GLOBAL__N_149ConsolidationMethodsTest_AccumulationWithint_TestC2Ev
FNDA:1,_ZN12_GLOBAL__N_153ConsolidationMethodsTest_MultiplicationWithFloat_TestD0Ev
FNDA:1,_ZN12_GLOBAL__N_153ConsolidationMethodsTest_MultiplicationWithFloat_TestD2Ev
FNDA:1,_ZN12_GLOBAL__N_153ConsolidationMethodsTest_MultiplicationWithFloat_Test8TestBodyEv
FNDA:1,_ZN12_GLOBAL__N_153ConsolidationMethodsTest_MultiplicationWithFloat_TestC2Ev
FNDA:1,_ZN12_GLOBAL__N_151ConsolidationMethodsTest_MultiplicationWithInt_TestD0Ev
FNDA:1,_ZN12_GLOBAL__N_151ConsolidationMethodsTest_MultiplicationWithInt_TestD2Ev
FNDA:1,_ZN12_GLOBAL__N_151ConsolidationMethodsTest_MultiplicationWithInt_Test8TestBodyEv
FNDA:1,_ZN12_GLOBAL__N_151ConsolidationMethodsTest_MultiplicationWithInt_TestC2Ev
FNDA:1,_GLOBAL__sub_I_consolidation_methods_test.cpp
FNDA:1,_Z41__static_initialization_and_destruction_0ii
FNF:22
FNH:22
BRDA:18,4294967295,5,1
BRDA:18,4294967295,6,0
BRDA:18,0,8,1
BRDA:18,0,9,0
BRDA:18,1,12,1
BRDA:18,1,13,0
BRDA:22,4294967295,2,1
BRDA:22,4294967295,3,0
BRDA:22,0,6,1
BRDA:22,0,7,0
BRDA:23,4294967295,2,1
BRDA:23,4294967295,3,0
BRDA:23,0,6,1
BRDA:23,0,7,0
BRDA:24,4294967295,2,1
BRDA:24,4294967295,3,0
BRDA:24,0,6,1
BRDA:24,0,7,0
BRDA:25,4294967295,2,1
BRDA:25,4294967295,3,0
BRDA:25,0,6,1
BRDA:25,0,7,0
BRDA:27,4294967295,1,1
BRDA:27,4294967295,2,0
BRDA:28,0,1,1
BRDA:28,0,2,0
BRDA:29,0,1,1
BRDA:29,0,2,0
BRDA:32,0,1,1
BRDA:32,0,2,0
BRDA:33,4294967295,1,1
BRDA:33,4294967295,2,0
BRDA:34,0,0,512
BRDA:34,0,1,1
BRDA:35,0,3,512
BRDA:35,0,4,0
BRDA:35,1,6,512
BRDA:35,1,7,0
BRDA:35,2,10,0
BRDA:35,2,11,512
BRDA:35,3,13,-
BRDA:35,3,14,-
BRDA:35,4,16,-
BRDA:35,4,17,-
BRDA:35,5,19,-
BRDA:35,5,20,-
BRDA:35,6,22,-
BRDA:35,6,23,-
BRDA:39,4294967295,5,1
BRDA:39,4294967295,6,0
BRDA:39,0,8,1
BRDA:39,0,9,0
BRDA:39,1,12,1
BRDA:39,1,13,0
BRDA:43,4294967295,2,1
BRDA:43,4294967295,3,0
BRDA:43,0,6,1
BRDA:43,0,7,0
BRDA:44,4294967295,2,1
BRDA:44,4294967295,3,0
BRDA:44,0,6,1
BRDA:44,0,7,0
BRDA:45,4294967295,2,1
BRDA:45,4294967295,3,0
BRDA:45,0,6,1
BRDA:45,0,7,0
BRDA:46,4294967295,2,1
BRDA:46,4294967295,3,0
BRDA:46,0,6,1
BRDA:46,0,7,0
BRDA:48,4294967295,1,1
BRDA:48,4294967295,2,0
BRDA:49,0,1,1
BRDA:49,0,2,0
BRDA:50,0,1,1
BRDA:50,0,2,0
BRDA:53,0,1,1
BRDA:53,0,2,0
BRDA:54,4294967295,1,1
BRDA:54,4294967295,2,0
BRDA:55,0,0,512
BRDA:55,0,1,1
BRDA:56,0,3,512
BRDA:56,0,4,0
BRDA:56,1,6,512
BRDA:56,1,7,0
BRDA:56,2,10,0
BRDA:56,2,11,512
BRDA:56,3,13,-
BRDA:56,3,14,-
BRDA:56,4,16,-
BRDA:56,4,17,-
BRDA:56,5,19,-
BRDA:56,5,20,-
BRDA:56,6,22,-
BRDA:56,6,23,-
BRDA:60,4294967295,5,1
BRDA:60,4294967295,6,0
BRDA:60,0,8,1
BRDA:60,0,9,0
BRDA:60,1,12,1
BRDA:60,1,13,0
BRDA:64,4294967295,2,1
BRDA:64,4294967295,3,0
BRDA:64,0,6,1
BRDA:64,0,7,0
BRDA:65,4294967295,2,1
BRDA:65,4294967295,3,0
BRDA:65,0,6,1
BRDA:65,0,7,0
BRDA:66,4294967295,2,1
BRDA:66,4294967295,3,0
BRDA:66,0,6,1
BRDA:66,0,7,0
BRDA:67,4294967295,2,1
BRDA:67,4294967295,3,0
BRDA:67,0,6,1
BRDA:67,0,7,0
BRDA:69,4294967295,1,1
BRDA:69,4294967295,2,0
BRDA:70,0,1,1
BRDA:70,0,2,0
BRDA:71,0,1,1
BRDA:71,0,2,0
BRDA:74,0,1,1
BRDA:74,0,2,0
BRDA:75,4294967295,1,1
BRDA:75,4294967295,2,0
BRDA:76,0,0,512
BRDA:76,0,1,1
BRDA:77,0,3,512
BRDA:77,0,4,0
BRDA:77,1,6,512
BRDA:77,1,7,0
BRDA:77,2,10,0
BRDA:77,2,11,512
BRDA:77,3,13,-
BRDA:77,3,14,-
BRDA:77,4,16,-
BRDA:77,4,17,-
BRDA:77,5,19,-
BRDA:77,5,20,-
BRDA:77,6,22,-
BRDA:77,6,23,-
BRDA:81,4294967295,5,1
BRDA:81,4294967295,6,0
BRDA:81,0,8,1
BRDA:81,0,9,0
BRDA:81,1,12,1
BRDA:81,1,13,0
BRDA:85,4294967295,2,1
BRDA:85,4294967295,3,0
BRDA:85,0,6,1
BRDA:85,0,7,0
BRDA:86,4294967295,2,1
BRDA:86,4294967295,3,0
BRDA:86,0,6,1
BRDA:86,0,7,0
BRDA:87,4294967295,2,1
BRDA:87,4294967295,3,0
BRDA:87,0,6,1
BRDA:87,0,7,0
BRDA:88,4294967295,2,1
BRDA:88,4294967295,3,0
BRDA:88,0,6,1
BRDA:88,0,7,0
BRDA:90,4294967295,1,1
BRDA:90,4294967295,2,0
BRDA:91,0,1,1
BRDA:91,0,2,0
BRDA:92,0,1,1
BRDA:92,0,2,0
BRDA:95,0,1,1
BRDA:95,0,2,0
BRDA:96,4294967295,1,1
BRDA:96,4294967295,2,0
BRDA:97,0,0,512
BRDA:97,0,1,1
BRDA:98,0,3,512
BRDA:98,0,4,0
BRDA:98,1,6,512
BRDA:98,1,7,0
BRDA:98,2,10,0
BRDA:98,2,11,512
BRDA:98,3,13,-
BRDA:98,3,14,-
BRDA:98,4,16,-
BRDA:98,4,17,-
BRDA:98,5,19,-
BRDA:98,5,20,-
BRDA:98,6,22,-
BRDA:98,6,23,-
BRDA:101,3,1,1
BRDA:101,3,2,0
BRDA:101,4,3,1
BRDA:101,4,4,0
BRF:196
BRH:86
DA:9,8
DA:12,4
DA:13,4
DA:15,8
DA:18,8
DA:20,2
DA:22,2
DA:23,2
DA:24,2
DA:25,2
DA:27,1
DA:28,1
DA:29,1
DA:31,1
DA:32,2
DA:33,2
DA:34,513
DA:35,512
DA:37,1
DA:39,8
DA:41,2
DA:43,2
DA:44,2
DA:45,2
DA:46,2
DA:48,1
DA:49,1
DA:50,1
DA:52,1
DA:53,2
DA:54,2
DA:55,513
DA:56,512
DA:58,1
DA:60,8
DA:62,2
DA:64,2
DA:65,2
DA:66,2
DA:67,2
DA:69,1
DA:70,1
DA:71,1
DA:73,1
DA:74,2
DA:75,2
DA:76,513
DA:77,512
DA:79,1
DA:81,8
DA:83,2
DA:85,2
DA:86,2
DA:87,2
DA:88,2
DA:90,1
DA:91,1
DA:92,1
DA:94,1
DA:95,2
DA:96,2
DA:97,513
DA:98,512
DA:100,1
DA:101,4
LF:65
LH:65
end_of_record
TN:
SF:/SharedWithWindows/Projects/diginstrument/inc/ConsolidationMethods.h
FN:35,_ZN13Consolidation14MultiplicationIfEC2Ev
FN:35,_ZN13Consolidation14MultiplicationIfED2Ev
FN:35,_ZN13Consolidation14MultiplicationIfED0Ev
FNDA:0,_ZN13Consolidation14MultiplicationIfED0Ev
FNDA:0,_ZN13Consolidation14MultiplicationIfED2Ev
FNDA:0,_ZN13Consolidation14MultiplicationIfEC2Ev
FNF:3
FNH:0
DA:35,0
LF:1
LH:0
end_of_record
SF:/SharedWithWindows/Projects/diginstrument/inc/Consolidator.h
FN:20,_ZN8DataFlow12ConsolidatorIfN13Consolidation14MultiplicationEEC2Ev
FN:20,_ZN8DataFlow12ConsolidatorIfN13Consolidation14MultiplicationEED2Ev
FN:20,_ZN8DataFlow12ConsolidatorIfN13Consolidation14MultiplicationEED0Ev
FN:31,_ZN8DataFlow12ConsolidatorIfN13Consolidation14MultiplicationEE6attachERNS_7iSourceIfEE
FN:41,_ZN8DataFlow12ConsolidatorIfN13Consolidation14MultiplicationEE6detachERNS_7iSourceIfEE
FN:60,_ZN8DataFlow12ConsolidatorIfN13Consolidation14MultiplicationEE3getERKj
FNDA:0,_ZN8DataFlow12ConsolidatorIfN13Consolidation14MultiplicationEED0Ev
FNDA:0,_ZN8DataFlow12ConsolidatorIfN13Consolidation14MultiplicationEED2Ev
FNDA:0,_ZN8DataFlow12ConsolidatorIfN13Consolidation14MultiplicationEEC2Ev
FNDA:0,_ZN8DataFlow12ConsolidatorIfN13Consolidation14MultiplicationEE6attachERNS_7iSourceIfEE
FNDA:1,_ZN8DataFlow12ConsolidatorIfN13Consolidation14MultiplicationEE6detachERNS_7iSourceIfEE
FNDA:0,_ZN8DataFlow12ConsolidatorIfN13Consolidation14MultiplicationEE3getERKj
FNF:6
FNH:1
BRDA:32,0,2,-
BRDA:32,0,3,-
BRDA:42,1,4,1
BRDA:42,1,5,0
BRDA:43,0,2,1
BRDA:43,0,3,0
BRDA:44,0,3,1
BRDA:44,0,4,0
BRDA:61,0,4,-
BRDA:61,0,5,-
BRDA:62,0,1,-
BRDA:62,0,2,-
BRDA:63,0,4,-
BRDA:63,0,5,-
BRF:14
BRH:3
DA:20,0
DA:31,0
DA:32,0
DA:33,0
DA:41,1
DA:42,1
DA:43,1
DA:44,1
DA:45,1
DA:48,1
DA:60,0
DA:61,0
DA:62,0
DA:63,0
DA:65,0
LF:15
LH:6
end_of_record
SF:/SharedWithWindows/Projects/diginstrument/inc/RepeatingBuffer.h
FN:15,_ZN8DataFlow15RepeatingBufferIfED0Ev
FN:15,_ZN8DataFlow15RepeatingBufferIfED2Ev
FNDA:0,_ZN8DataFlow15RepeatingBufferIfED0Ev
FNDA:0,_ZN8DataFlow15RepeatingBufferIfED2Ev
FNF:2
FNH:0
DA:15,0
LF:1
LH:0
end_of_record
SF:/SharedWithWindows/Projects/diginstrument/inc/iBuffer.h
FN:23,_ZN8DataFlow7iBufferIfED2Ev
FN:23,_ZN8DataFlow7iBufferIfED0Ev
FNDA:0,_ZN8DataFlow7iBufferIfED0Ev
FNDA:0,_ZN8DataFlow7iBufferIfED2Ev
FNF:2
FNH:0
DA:23,0
LF:1
LH:0
end_of_record
SF:/SharedWithWindows/Projects/diginstrument/inc/iConsolidationMethod.h
FN:13,_ZN8DataFlow20iConsolidationMethodIfEC2Ev
FN:41,_ZN8DataFlow20iConsolidationMethodIfED2Ev
FN:41,_ZN8DataFlow20iConsolidationMethodIfED0Ev
FNDA:0,_ZN8DataFlow20iConsolidationMethodIfEC2Ev
FNDA:0,_ZN8DataFlow20iConsolidationMethodIfED0Ev
FNDA:0,_ZN8DataFlow20iConsolidationMethodIfED2Ev
FNF:3
FNH:0
DA:13,0
DA:41,0
LF:2
LH:0
end_of_record
SF:/SharedWithWindows/Projects/diginstrument/inc/iSource.h
FN:15,_ZN8DataFlow7iSourceIfEC2Ev
FN:28,_ZN8DataFlow7iSourceIfED0Ev
FN:28,_ZN8DataFlow7iSourceIfED2Ev
FNDA:0,_ZN8DataFlow7iSourceIfEC2Ev
FNDA:0,_ZN8DataFlow7iSourceIfED0Ev
FNDA:0,_ZN8DataFlow7iSourceIfED2Ev
FNF:3
FNH:0
DA:15,0
DA:28,0
LF:2
LH:0
end_of_record
SF:/SharedWithWindows/Projects/diginstrument/mixer_test/consolidator_test.cpp
FN:9,_ZN12_GLOBAL__N_116ConsolidatorTestD2Ev
FN:12,_ZN12_GLOBAL__N_116ConsolidatorTest5SetUpEv
FN:13,_ZN12_GLOBAL__N_116ConsolidatorTest8TearDownEv
FN:17,_ZN12_GLOBAL__N_116ConsolidatorTestC2Ev
FN:20,_ZN12_GLOBAL__N_138ConsolidatorTest_attachThenDetach_TestD0Ev
FN:20,_ZN12_GLOBAL__N_138ConsolidatorTest_attachThenDetach_TestC2Ev
FN:20,_ZN12_GLOBAL__N_138ConsolidatorTest_attachThenDetach_Test8TestBodyEv
FN:20,_ZN12_GLOBAL__N_138ConsolidatorTest_attachThenDetach_TestD2Ev
FN:42,_ZN12_GLOBAL__N_129ConsolidatorTest_getSize_TestD0Ev
FN:42,_ZN12_GLOBAL__N_129ConsolidatorTest_getSize_Test8TestBodyEv
FN:42,_ZN12_GLOBAL__N_129ConsolidatorTest_getSize_TestC2Ev
FN:42,_ZN12_GLOBAL__N_129ConsolidatorTest_getSize_TestD2Ev
FN:56,_GLOBAL__sub_I_consolidator_test.cpp
FN:56,_Z41__static_initialization_and_destruction_0ii
FNDA:2,_ZN12_GLOBAL__N_116ConsolidatorTestD2Ev
FNDA:2,_ZN12_GLOBAL__N_116ConsolidatorTest5SetUpEv
FNDA:2,_ZN12_GLOBAL__N_116ConsolidatorTest8TearDownEv
FNDA:2,_ZN12_GLOBAL__N_116ConsolidatorTestC2Ev
FNDA:1,_ZN12_GLOBAL__N_138ConsolidatorTest_attachThenDetach_TestD0Ev
FNDA:1,_ZN12_GLOBAL__N_138ConsolidatorTest_attachThenDetach_TestD2Ev
FNDA:1,_ZN12_GLOBAL__N_138ConsolidatorTest_attachThenDetach_Test8TestBodyEv
FNDA:1,_ZN12_GLOBAL__N_138ConsolidatorTest_attachThenDetach_TestC2Ev
FNDA:1,_ZN12_GLOBAL__N_129ConsolidatorTest_getSize_TestD0Ev
FNDA:1,_ZN12_GLOBAL__N_129ConsolidatorTest_getSize_TestD2Ev
FNDA:1,_ZN12_GLOBAL__N_129ConsolidatorTest_getSize_Test8TestBodyEv
FNDA:1,_ZN12_GLOBAL__N_129ConsolidatorTest_getSize_TestC2Ev
FNDA:1,_GLOBAL__sub_I_consolidator_test.cpp
FNDA:1,_Z41__static_initialization_and_destruction_0ii
FNF:14
FNH:14
BRDA:17,1,3,2
BRDA:17,1,4,0
BRDA:17,2,7,2
BRDA:17,2,8,0
BRDA:17,3,14,2
BRDA:17,3,15,0
BRDA:17,4,18,2
BRDA:17,4,19,0
BRDA:20,4294967295,5,1
BRDA:20,4294967295,6,0
BRDA:20,0,8,1
BRDA:20,0,9,0
BRDA:20,1,12,1
BRDA:20,1,13,0
BRDA:23,4294967295,1,1
BRDA:23,4294967295,2,0
BRDA:26,4294967295,1,1
BRDA:26,4294967295,2,0
BRDA:26,0,3,1
BRDA:26,0,4,0
BRDA:26,1,6,1
BRDA:26,1,7,0
BRDA:26,2,8,1
BRDA:26,2,9,0
BRDA:26,3,11,1
BRDA:26,3,12,0
BRDA:26,5,16,-
BRDA:26,5,17,-
BRDA:26,6,19,-
BRDA:26,6,20,-
BRDA:26,7,22,-
BRDA:26,7,23,-
BRDA:26,8,28,-
BRDA:26,8,29,-
BRDA:27,1,5,512
BRDA:27,1,6,1
BRDA:28,4294967295,1,512
BRDA:28,4294967295,2,0
BRDA:28,0,4,512
BRDA:28,0,5,0
BRDA:28,1,8,0
BRDA:28,1,9,512
BRDA:28,2,11,-
BRDA:28,2,12,-
BRDA:28,3,14,-
BRDA:28,3,15,-
BRDA:28,4,17,-
BRDA:28,4,18,-
BRDA:28,5,20,-
BRDA:28,5,21,-
BRDA:31,0,1,1
BRDA:31,0,2,0
BRDA:32,0,1,1
BRDA:32,0,2,0
BRDA:32,1,3,1
BRDA:32,1,4,0
BRDA:32,2,6,1
BRDA:32,2,7,0
BRDA:32,3,8,1
BRDA:32,3,9,0
BRDA:32,4,11,1
BRDA:32,4,12,0
BRDA:32,6,16,-
BRDA:32,6,17,-
BRDA:32,7,19,-
BRDA:32,7,20,-
BRDA:32,8,22,-
BRDA:32,8,23,-
BRDA:32,9,28,-
BRDA:32,9,29,-
BRDA:34,0,1,1
BRDA:34,0,2,0
BRDA:36,0,1,1
BRDA:36,0,2,0
BRDA:36,1,3,1
BRDA:36,1,4,0
BRDA:36,2,6,1
BRDA:36,2,7,0
BRDA:36,3,8,1
BRDA:36,3,9,0
BRDA:36,4,11,1
BRDA:36,4,12,0
BRDA:36,6,16,-
BRDA:36,6,17,-
BRDA:36,7,19,-
BRDA:36,7,20,-
BRDA:36,8,22,-
BRDA:36,8,23,-
BRDA:36,9,28,-
BRDA:36,9,29,-
BRDA:37,1,5,512
BRDA:37,1,6,1
BRDA:38,4294967295,1,512
BRDA:38,4294967295,2,0
BRDA:38,0,4,512
BRDA:38,0,5,0
BRDA:38,1,8,0
BRDA:38,1,9,512
BRDA:38,2,11,-
BRDA:38,2,12,-
BRDA:38,3,14,-
BRDA:38,3,15,-
BRDA:38,4,17,-
BRDA:38,4,18,-
BRDA:38,5,20,-
BRDA:38,5,21,-
BRDA:42,4294967295,5,1
BRDA:42,4294967295,6,0
BRDA:42,0,8,1
BRDA:42,0,9,0
BRDA:42,1,12,1
BRDA:42,1,13,0
BRDA:45,4294967295,1,1
BRDA:45,4294967295,2,0
BRDA:49,4294967295,1,1
BRDA:49,4294967295,2,0
BRDA:49,0,3,1
BRDA:49,0,4,0
BRDA:49,1,6,1
BRDA:49,1,7,0
BRDA:49,2,8,1
BRDA:49,2,9,0
BRDA:49,3,11,1
BRDA:49,3,12,0
BRDA:49,5,16,-
BRDA:49,5,17,-
BRDA:49,6,19,-
BRDA:49,6,20,-
BRDA:49,7,22,-
BRDA:49,7,23,-
BRDA:49,8,28,-
BRDA:49,8,29,-
BRDA:50,0,2,1
BRDA:50,0,3,0
BRDA:50,1,5,1
BRDA:50,1,6,0
BRDA:50,2,9,0
BRDA:50,2,10,1
BRDA:50,3,12,-
BRDA:50,3,13,-
BRDA:50,4,15,-
BRDA:50,4,16,-
BRDA:50,5,18,-
BRDA:50,5,19,-
BRDA:50,6,21,-
BRDA:50,6,22,-
BRDA:53,4294967295,1,1
BRDA:53,4294967295,2,0
BRDA:53,0,3,1
BRDA:53,0,4,0
BRDA:53,1,6,1
BRDA:53,1,7,0
BRDA:53,2,8,1
BRDA:53,2,9,0
BRDA:53,3,11,1
BRDA:53,3,12,0
BRDA:53,5,16,-
BRDA:53,5,17,-
BRDA:53,6,19,-
BRDA:53,6,20,-
BRDA:53,7,22,-
BRDA:53,7,23,-
BRDA:53,8,28,-
BRDA:53,8,29,-
BRDA:54,0,2,1
BRDA:54,0,3,0
BRDA:54,1,5,1
BRDA:54,1,6,0
BRDA:54,2,9,0
BRDA:54,2,10,1
BRDA:54,3,12,-
BRDA:54,3,13,-
BRDA:54,4,15,-
BRDA:54,4,16,-
BRDA:54,5,18,-
BRDA:54,5,19,-
BRDA:54,6,21,-
BRDA:54,6,22,-
BRDA:56,3,1,1
BRDA:56,3,2,0
BRDA:56,4,3,1
BRDA:56,4,4,0
BRF:182
BRH:57
DA:9,4
DA:12,2
DA:13,2
DA:17,2
DA:20,8
DA:22,2
DA:23,1
DA:24,2
DA:26,1
DA:27,513
DA:28,512
DA:31,1
DA:32,1
DA:34,1
DA:36,1
DA:37,513
DA:38,512
DA:40,1
DA:42,8
DA:44,2
DA:45,1
DA:46,2
DA:47,1
DA:49,1
DA:50,1
DA:52,1
DA:53,1
DA:54,1
DA:55,1
DA:56,4
LF:30
LH:30
end_of_record
TN:
SF:/SharedWithWindows/Projects/diginstrument/inc/Filters.h
FN:128,_ZN5Mixer6Filter4EchoIfEC2Ev
FN:128,_ZN5Mixer6Filter4EchoIfED2Ev
FN:145,_ZN5Mixer6Filter4EchoIfEclERKf
FN:182,_ZN5Mixer6Filter4EchoIfE8setDelayERKj
FN:192,_ZN5Mixer6Filter4EchoIfE8getDelayEv
FN:202,_ZN5Mixer6Filter4EchoIfE21setReflectionQuotientERKf
FN:212,_ZN5Mixer6Filter4EchoIfE21getReflectionQuotientEv
FN:220,_ZN5Mixer6Filter4EchoIfE5clearEv
FNDA:6,_ZN5Mixer6Filter4EchoIfED2Ev
FNDA:6,_ZN5Mixer6Filter4EchoIfEC2Ev
FNDA:4,_ZN5Mixer6Filter4EchoIfEclERKf
FNDA:2,_ZN5Mixer6Filter4EchoIfE8setDelayERKj
FNDA:2,_ZN5Mixer6Filter4EchoIfE8getDelayEv
FNDA:3,_ZN5Mixer6Filter4EchoIfE21setReflectionQuotientERKf
FNDA:2,_ZN5Mixer6Filter4EchoIfE21getReflectionQuotientEv
FNDA:1,_ZN5Mixer6Filter4EchoIfE5clearEv
FNF:8
FNH:8
BRDA:146,0,0,1
BRDA:146,0,1,3
BRF:2
BRH:2
DA:128,24
DA:145,4
DA:146,4
DA:147,1
DA:148,1
DA:149,1
DA:151,3
DA:152,3
DA:153,3
DA:182,2
DA:183,2
DA:184,2
DA:192,2
DA:193,2
DA:202,3
DA:203,3
DA:204,3
DA:212,2
DA:213,2
DA:220,1
DA:221,1
DA:222,1
DA:223,1
LF:23
LH:23
end_of_record
SF:/SharedWithWindows/Projects/diginstrument/inc/QueueBuffer.h
FN:13,_ZN8DataFlow11QueueBufferIfEC2Ev
FN:13,_ZN8DataFlow11QueueBufferIfED0Ev
FN:13,_ZN8DataFlow11QueueBufferIfED2Ev
FNDA:0,_ZN8DataFlow11QueueBufferIfED0Ev
FNDA:0,_ZN8DataFlow11QueueBufferIfED2Ev
FNDA:0,_ZN8DataFlow11QueueBufferIfEC2Ev
FNF:3
FNH:0
BRDA:13,5,6,-
BRDA:13,5,7,-
BRDA:13,6,9,-
BRDA:13,6,10,-
BRF:4
BRH:0
DA:13,0
LF:1
LH:0
end_of_record
SF:/SharedWithWindows/Projects/diginstrument/inc/iBuffer.h
FN:11,_ZN8DataFlow7iBufferIfEC2Ev
FN:23,_ZN8DataFlow7iBufferIfED2Ev
FN:23,_ZN8DataFlow7iBufferIfED0Ev
FNDA:0,_ZN8DataFlow7iBufferIfEC2Ev
FNDA:0,_ZN8DataFlow7iBufferIfED0Ev
FNDA:0,_ZN8DataFlow7iBufferIfED2Ev
FNF:3
FNH:0
DA:11,0
DA:23,0
LF:2
LH:0
end_of_record
SF:/SharedWithWindows/Projects/diginstrument/inc/iSource.h
FN:15,_ZN8DataFlow7iSourceIfEC2Ev
FN:28,_ZN8DataFlow7iSourceIfED0Ev
FN:28,_ZN8DataFlow7iSourceIfED2Ev
FNDA:0,_ZN8DataFlow7iSourceIfEC2Ev
FNDA:0,_ZN8DataFlow7iSourceIfED0Ev
FNDA:0,_ZN8DataFlow7iSourceIfED2Ev
FNF:3
FNH:0
DA:15,0
DA:28,0
LF:2
LH:0
end_of_record
SF:/SharedWithWindows/Projects/diginstrument/mixer_test/echo_test.cpp
FN:7,_ZN12_GLOBAL__N_18EchoTestD2Ev
FN:10,_ZN12_GLOBAL__N_18EchoTest5SetUpEv
FN:11,_ZN12_GLOBAL__N_18EchoTest8TearDownEv
FN:13,_ZN12_GLOBAL__N_18EchoTestC2Ev
FN:16,_ZN12_GLOBAL__N_128EchoTest_worksWithDelay_TestC2Ev
FN:16,_ZN12_GLOBAL__N_128EchoTest_worksWithDelay_TestD2Ev
FN:16,_ZN12_GLOBAL__N_128EchoTest_worksWithDelay_Test8TestBodyEv
FN:16,_ZN12_GLOBAL__N_128EchoTest_worksWithDelay_TestD0Ev
FN:30,_ZN12_GLOBAL__N_119EchoTest_clear_TestD0Ev
FN:30,_ZN12_GLOBAL__N_119EchoTest_clear_Test8TestBodyEv
FN:30,_ZN12_GLOBAL__N_119EchoTest_clear_TestD2Ev
FN:30,_ZN12_GLOBAL__N_119EchoTest_clear_TestC2Ev
FN:42,_ZN12_GLOBAL__N_122EchoTest_getDelay_Test8TestBodyEv
FN:42,_ZN12_GLOBAL__N_122EchoTest_getDelay_TestD0Ev
FN:42,_ZN12_GLOBAL__N_122EchoTest_getDelay_TestC2Ev
FN:42,_ZN12_GLOBAL__N_122EchoTest_getDelay_TestD2Ev
FN:48,_ZN12_GLOBAL__N_122EchoTest_setDelay_TestD0Ev
FN:48,_ZN12_GLOBAL__N_122EchoTest_setDelay_TestC2Ev
FN:48,_ZN12_GLOBAL__N_122EchoTest_setDelay_TestD2Ev
FN:48,_ZN12_GLOBAL__N_122EchoTest_setDelay_Test8TestBodyEv
FN:55,_ZN12_GLOBAL__N_135EchoTest_getReflectionQuotient_TestC2Ev
FN:55,_ZN12_GLOBAL__N_135EchoTest_getReflectionQuotient_TestD2Ev
FN:55,_ZN12_GLOBAL__N_135EchoTest_getReflectionQuotient_Test8TestBodyEv
FN:55,_ZN12_GLOBAL__N_135EchoTest_getReflectionQuotient_TestD0Ev
FN:61,_ZN12_GLOBAL__N_135EchoTest_setReflectionQuotient_TestD0Ev
FN:61,_ZN12_GLOBAL__N_135EchoTest_setReflectionQuotient_TestC2Ev
FN:61,_ZN12_GLOBAL__N_135EchoTest_setReflectionQuotient_TestD2Ev
FN:61,_ZN12_GLOBAL__N_135EchoTest_setReflectionQuotient_Test8TestBodyEv
FN:67,_GLOBAL__sub_I_echo_test.cpp
FN:67,_Z41__static_initialization_and_destruction_0ii
FNDA:6,_ZN12_GLOBAL__N_18EchoTestD2Ev
FNDA:6,_ZN12_GLOBAL__N_18EchoTest5SetUpEv
FNDA:6,_ZN12_GLOBAL__N_18EchoTest8TearDownEv
FNDA:6,_ZN12_GLOBAL__N_18EchoTestC2Ev
FNDA:1,_ZN12_GLOBAL__N_128EchoTest_worksWithDelay_TestD0Ev
FNDA:1,_ZN12_GLOBAL__N_128EchoTest_worksWithDelay_TestD2Ev
FNDA:1,_ZN12_GLOBAL__N_128EchoTest_worksWithDelay_Test8TestBodyEv
FNDA:1,_ZN12_GLOBAL__N_128EchoTest_worksWithDelay_TestC2Ev
FNDA:1,_ZN12_GLOBAL__N_119EchoTest_clear_TestD0Ev
FNDA:1,_ZN12_GLOBAL__N_119EchoTest_clear_TestD2Ev
FNDA:1,_ZN12_GLOBAL__N_119EchoTest_clear_Test8TestBodyEv
FNDA:1,_ZN12_GLOBAL__N_119EchoTest_clear_TestC2Ev
FNDA:1,_ZN12_GLOBAL__N_122EchoTest_getDelay_TestD0Ev
FNDA:1,_ZN12_GLOBAL__N_122EchoTest_getDelay_TestD2Ev
FNDA:1,_ZN12_GLOBAL__N_122EchoTest_getDelay_Test8TestBodyEv
FNDA:1,_ZN12_GLOBAL__N_122EchoTest_getDelay_TestC2Ev
FNDA:1,_ZN12_GLOBAL__N_122EchoTest_setDelay_TestD0Ev
FNDA:1,_ZN12_GLOBAL__N_122EchoTest_setDelay_TestD2Ev
FNDA:1,_ZN12_GLOBAL__N_122EchoTest_setDelay_Test8TestBodyEv
FNDA:1,_ZN12_GLOBAL__N_122EchoTest_setDelay_TestC2Ev
FNDA:1,_ZN12_GLOBAL__N_135EchoTest_getReflectionQuotient_TestD0Ev
FNDA:1,_ZN12_GLOBAL__N_135EchoTest_getReflectionQuotient_TestD2Ev
FNDA:1,_ZN12_GLOBAL__N_135EchoTest_getReflectionQuotient_Test8TestBodyEv
FNDA:1,_ZN12_GLOBAL__N_135EchoTest_getReflectionQuotient_TestC2Ev
FNDA:1,_ZN12_GLOBAL__N_135EchoTest_setReflectionQuotient_TestD0Ev
FNDA:1,_ZN12_GLOBAL__N_135EchoTest_setReflectionQuotient_TestD2Ev
FNDA:1,_ZN12_GLOBAL__N_135EchoTest_setReflectionQuotient_Test8TestBodyEv
FNDA:1,_ZN12_GLOBAL__N_135EchoTest_setReflectionQuotient_TestC2Ev
FNDA:1,_GLOBAL__sub_I_echo_test.cpp
FNDA:1,_Z41__static_initialization_and_destruction_0ii
FNF:30
FNH:30
BRDA:16,4294967295,5,1
BRDA:16,4294967295,6,0
BRDA:16,0,8,1
BRDA:16,0,9,0
BRDA:16,1,12,1
BRDA:16,1,13,0
BRDA:18,0,1,1
BRDA:18,0,2,0
BRDA:23,4294967295,1,1
BRDA:23,4294967295,2,0
BRDA:24,0,1,1
BRDA:24,0,2,0
BRDA:24,1,4,1
BRDA:24,1,5,0
BRDA:24,2,8,0
BRDA:24,2,9,1
BRDA:24,3,11,-
BRDA:24,3,12,-
BRDA:24,4,14,-
BRDA:24,4,15,-
BRDA:24,5,17,-
BRDA:24,5,18,-
BRDA:24,6,20,-
BRDA:24,6,21,-
BRDA:25,4294967295,1,1
BRDA:25,4294967295,2,0
BRDA:26,0,1,1
BRDA:26,0,2,0
BRDA:26,1,4,1
BRDA:26,1,5,0
BRDA:26,2,8,0
BRDA:26,2,9,1
BRDA:26,3,11,-
BRDA:26,3,12,-
BRDA:26,4,14,-
BRDA:26,4,15,-
BRDA:26,5,17,-
BRDA:26,5,18,-
BRDA:26,6,20,-
BRDA:26,6,21,-
BRDA:30,4294967295,5,1
BRDA:30,4294967295,6,0
BRDA:30,0,8,1
BRDA:30,0,9,0
BRDA:30,1,12,1
BRDA:30,1,13,0
BRDA:32,0,1,1
BRDA:32,0,2,0
BRDA:35,4294967295,1,1
BRDA:35,4294967295,2,0
BRDA:36,0,1,1
BRDA:36,0,2,0
BRDA:38,0,1,1
BRDA:38,0,2,0
BRDA:39,0,1,1
BRDA:39,0,2,0
BRDA:39,1,4,1
BRDA:39,1,5,0
BRDA:39,2,8,0
BRDA:39,2,9,1
BRDA:39,3,11,-
BRDA:39,3,12,-
BRDA:39,4,14,-
BRDA:39,4,15,-
BRDA:39,5,17,-
BRDA:39,5,18,-
BRDA:39,6,20,-
BRDA:39,6,21,-
BRDA:42,4294967295,5,1
BRDA:42,4294967295,6,0
BRDA:42,0,8,1
BRDA:42,0,9,0
BRDA:42,1,12,1
BRDA:42,1,13,0
BRDA:44,0,1,1
BRDA:44,0,2,0
BRDA:45,0,2,1
BRDA:45,0,3,0
BRDA:45,1,5,1
BRDA:45,1,6,0
BRDA:45,2,9,0
BRDA:45,2,10,1
BRDA:45,3,12,-
BRDA:45,3,13,-
BRDA:45,4,15,-
BRDA:45,4,16,-
BRDA:45,5,18,-
BRDA:45,5,19,-
BRDA:45,6,21,-
BRDA:45,6,22,-
BRDA:48,4294967295,5,1
BRDA:48,4294967295,6,0
BRDA:48,0,8,1
BRDA:48,0,9,0
BRDA:48,1,12,1
BRDA:48,1,13,0
BRDA:50,0,1,1
BRDA:50,0,2,0
BRDA:52,4294967295,2,1
BRDA:52,4294967295,3,0
BRDA:52,0,5,1
BRDA:52,0,6,0
BRDA:52,1,9,0
BRDA:52,1,10,1
BRDA:52,2,12,-
BRDA:52,2,13,-
BRDA:52,3,15,-
BRDA:52,3,16,-
BRDA:52,4,18,-
BRDA:52,4,19,-
BRDA:52,5,21,-
BRDA:52,5,22,-
BRDA:55,4294967295,5,1
BRDA:55,4294967295,6,0
BRDA:55,0,8,1
BRDA:55,0,9,0
BRDA:55,1,12,1
BRDA:55,1,13,0
BRDA:57,0,1,1
BRDA:57,0,2,0
BRDA:58,0,2,1
BRDA:58,0,3,0
BRDA:58,1,5,1
BRDA:58,1,6,0
BRDA:58,2,9,0
BRDA:58,2,10,1
BRDA:58,3,12,-
BRDA:58,3,13,-
BRDA:58,4,15,-
BRDA:58,4,16,-
BRDA:58,5,18,-
BRDA:58,5,19,-
BRDA:58,6,21,-
BRDA:58,6,22,-
BRDA:61,4294967295,5,1
BRDA:61,4294967295,6,0
BRDA:61,0,8,1
BRDA:61,0,9,0
BRDA:61,1,12,1
BRDA:61,1,13,0
BRDA:63,0,1,1
BRDA:63,0,2,0
BRDA:65,4294967295,2,1
BRDA:65,4294967295,3,0
BRDA:65,0,5,1
BRDA:65,0,6,0
BRDA:65,1,9,0
BRDA:65,1,10,1
BRDA:65,2,12,-
BRDA:65,2,13,-
BRDA:65,3,15,-
BRDA:65,3,16,-
BRDA:65,4,18,-
BRDA:65,4,19,-
BRDA:65,5,21,-
BRDA:65,5,22,-
BRDA:67,3,1,1
BRDA:67,3,2,0
BRDA:67,4,3,1
BRDA:67,4,4,0
BRF:160
BRH:52
DA:7,12
DA:10,6
DA:11,6
DA:13,12
DA:16,8
DA:18,2
DA:19,1
DA:20,1
DA:22,1
DA:23,1
DA:24,1
DA:25,1
DA:26,1
DA:28,1
DA:30,8
DA:32,2
DA:33,1
DA:34,1
DA:35,1
DA:36,1
DA:37,1
DA:38,1
DA:39,1
DA:40,1
DA:42,8
DA:44,2
DA:45,1
DA:46,1
DA:48,8
DA:50,2
DA:51,1
DA:52,1
DA:53,1
DA:55,8
DA:57,2
DA:58,1
DA:59,1
DA:61,8
DA:63,2
DA:64,1
DA:65,1
DA:66,1
DA:67,4
LF:43
LH:43
end_of_record
TN:
SF:/SharedWithWindows/Projects/diginstrument/inc/Filters.h
FN:31,_ZN5Mixer6Filter7FuzzboxIfE3ampERKf
FN:54,_ZN5Mixer6Filter7FuzzboxIfEclERKf
FN:69,_ZN5Mixer6Filter7FuzzboxIfEclERSt6vectorIfSaIfEE
FN:81,_ZN5Mixer6Filter7FuzzboxIfE9setDegreeERKj
FN:91,_ZN5Mixer6Filter7FuzzboxIfE9getDegreeEv
FN:103,_ZN5Mixer6Filter7FuzzboxIfEC2Ev
FNDA:10000,_ZN5Mixer6Filter7FuzzboxIfE3ampERKf
FNDA:1500,_ZN5Mixer6Filter7FuzzboxIfEclERKf
FNDA:3,_ZN5Mixer6Filter7FuzzboxIfEclERSt6vectorIfSaIfEE
FNDA:3,_ZN5Mixer6Filter7FuzzboxIfE9setDegreeERKj
FNDA:2,_ZN5Mixer6Filter7FuzzboxIfE9getDegreeEv
FNDA:4,_ZN5Mixer6Filter7FuzzboxIfEC2Ev
FNF:6
FNH:6
BRDA:33,0,0,5000
BRDA:33,0,1,5000
BRDA:55,0,0,500
BRDA:55,0,1,1000
BRDA:57,1,0,10000
BRDA:57,1,1,1000
BRDA:70,1,5,1500
BRDA:70,1,6,3
BRDA:71,4294967295,1,1500
BRDA:71,4294967295,2,0
BRF:10
BRH:9
DA:31,10000
DA:33,10000
DA:35,5000
DA:36,5000
DA:40,5000
DA:41,5000
DA:43,10000
DA:54,1500
DA:55,1500
DA:56,1000
DA:57,11000
DA:58,10000
DA:60,1500
DA:69,3
DA:70,1503
DA:71,1500
DA:73,3
DA:81,3
DA:82,3
DA:83,3
DA:91,2
DA:92,2
DA:103,4
LF:23
LH:23
end_of_record
SF:/SharedWithWindows/Projects/diginstrument/mixer_test/fuzzbox_test.cpp
FN:7,_ZN12_GLOBAL__N_111FuzzboxTestD2Ev
FN:10,_ZN12_GLOBAL__N_111FuzzboxTest5SetUpEv
FN:11,_ZN12_GLOBAL__N_111FuzzboxTest8TearDownEv
FN:13,_ZN12_GLOBAL__N_111FuzzboxTestC2Ev
FN:16,_ZN12_GLOBAL__N_129FuzzboxTest_DegreeOfZero_TestC2Ev
FN:16,_ZN12_GLOBAL__N_129FuzzboxTest_DegreeOfZero_TestD2Ev
FN:16,_ZN12_GLOBAL__N_129FuzzboxTest_DegreeOfZero_TestD0Ev
FN:16,_ZN12_GLOBAL__N_129FuzzboxTest_DegreeOfZero_Test8TestBodyEv
FN:29,_ZN12_GLOBAL__N_126FuzzboxTest_BigDegree_TestD0Ev
FN:29,_ZN12_GLOBAL__N_126FuzzboxTest_BigDegree_TestC2Ev
FN:29,_ZN12_GLOBAL__N_126FuzzboxTest_BigDegree_TestD2Ev
FN:29,_ZN12_GLOBAL__N_126FuzzboxTest_BigDegree_Test8TestBodyEv
FN:49,_ZN12_GLOBAL__N_126FuzzboxTest_getDegree_TestC2Ev
FN:49,_ZN12_GLOBAL__N_126FuzzboxTest_getDegree_Test8TestBodyEv
FN:49,_ZN12_GLOBAL__N_126FuzzboxTest_getDegree_TestD2Ev
FN:49,_ZN12_GLOBAL__N_126FuzzboxTest_getDegree_TestD0Ev
FN:55,_ZN12_GLOBAL__N_126FuzzboxTest_setDegree_TestD2Ev
FN:55,_ZN12_GLOBAL__N_126FuzzboxTest_setDegree_Test8TestBodyEv
FN:55,_ZN12_GLOBAL__N_126FuzzboxTest_setDegree_TestD0Ev
FN:55,_ZN12_GLOBAL__N_126FuzzboxTest_setDegree_TestC2Ev
FN:61,_Z41__static_initialization_and_destruction_0ii
FN:61,_GLOBAL__sub_I_fuzzbox_test.cpp
FNDA:4,_ZN12_GLOBAL__N_111FuzzboxTestD2Ev
FNDA:4,_ZN12_GLOBAL__N_111FuzzboxTest5SetUpEv
FNDA:4,_ZN12_GLOBAL__N_111FuzzboxTest8TearDownEv
FNDA:4,_ZN12_GLOBAL__N_111FuzzboxTestC2Ev
FNDA:1,_ZN12_GLOBAL__N_129FuzzboxTest_DegreeOfZero_TestD0Ev
FNDA:1,_ZN12_GLOBAL__N_129FuzzboxTest_DegreeOfZero_TestD2Ev
FNDA:1,_ZN12_GLOBAL__N_129FuzzboxTest_DegreeOfZero_Test8TestBodyEv
FNDA:1,_ZN12_GLOBAL__N_129FuzzboxTest_DegreeOfZero_TestC2Ev
FNDA:1,_ZN12_GLOBAL__N_126FuzzboxTest_BigDegree_TestD0Ev
FNDA:1,_ZN12_GLOBAL__N_126FuzzboxTest_BigDegree_TestD2Ev
FNDA:1,_ZN12_GLOBAL__N_126FuzzboxTest_BigDegree_Test8TestBodyEv
FNDA:1,_ZN12_GLOBAL__N_126FuzzboxTest_BigDegree_TestC2Ev
FNDA:1,_ZN12_GLOBAL__N_126FuzzboxTest_getDegree_TestD0Ev
FNDA:1,_ZN12_GLOBAL__N_126FuzzboxTest_getDegree_TestD2Ev
FNDA:1,_ZN12_GLOBAL__N_126FuzzboxTest_getDegree_Test8TestBodyEv
FNDA:1,_ZN12_GLOBAL__N_126FuzzboxTest_getDegree_TestC2Ev
FNDA:1,_ZN12_GLOBAL__N_126FuzzboxTest_setDegree_TestD0Ev
FNDA:1,_ZN12_GLOBAL__N_126FuzzboxTest_setDegree_TestD2Ev
FNDA:1,_ZN12_GLOBAL__N_126FuzzboxTest_setDegree_Test8TestBodyEv
FNDA:1,_ZN12_GLOBAL__N_126FuzzboxTest_setDegree_TestC2Ev
FNDA:1,_GLOBAL__sub_I_fuzzbox_test.cpp
FNDA:1,_Z41__static_initialization_and_destruction_0ii
FNF:22
FNH:22
BRDA:16,4294967295,5,1
BRDA:16,4294967295,6,0
BRDA:16,0,8,1
BRDA:16,0,9,0
BRDA:16,1,12,1
BRDA:16,1,13,0
BRDA:21,4294967295,2,1
BRDA:21,4294967295,3,0
BRDA:22,4294967295,1,1
BRDA:22,4294967295,2,0
BRDA:24,1,5,500
BRDA:24,1,6,1
BRDA:25,4294967295,1,500
BRDA:25,4294967295,2,0
BRDA:25,0,4,500
BRDA:25,0,5,0
BRDA:25,1,8,0
BRDA:25,1,9,500
BRDA:25,2,11,-
BRDA:25,2,12,-
BRDA:25,3,14,-
BRDA:25,3,15,-
BRDA:25,4,17,-
BRDA:25,4,18,-
BRDA:25,5,20,-
BRDA:25,5,21,-
BRDA:29,4294967295,5,1
BRDA:29,4294967295,6,0
BRDA:29,0,8,1
BRDA:29,0,9,0
BRDA:29,1,12,1
BRDA:29,1,13,0
BRDA:34,4294967295,2,1
BRDA:34,4294967295,3,0
BRDA:35,4294967295,1,1
BRDA:35,4294967295,2,0
BRDA:37,1,5,500
BRDA:37,1,6,1
BRDA:38,4294967295,1,500
BRDA:38,4294967295,2,0
BRDA:38,0,4,500
BRDA:38,0,5,0
BRDA:38,1,8,0
BRDA:38,1,9,500
BRDA:38,2,11,-
BRDA:38,2,12,-
BRDA:38,3,14,-
BRDA:38,3,15,-
BRDA:38,4,17,-
BRDA:38,4,18,-
BRDA:38,5,20,-
BRDA:38,5,21,-
BRDA:41,0,2,1
BRDA:41,0,3,0
BRDA:42,4294967295,1,1
BRDA:42,4294967295,2,0
BRDA:44,1,5,500
BRDA:44,1,6,1
BRDA:45,4294967295,1,500
BRDA:45,4294967295,2,0
BRDA:45,0,4,500
BRDA:45,0,5,0
BRDA:45,1,8,0
BRDA:45,1,9,500
BRDA:45,2,11,-
BRDA:45,2,12,-
BRDA:45,3,14,-
BRDA:45,3,15,-
BRDA:45,4,17,-
BRDA:45,4,18,-
BRDA:45,5,20,-
BRDA:45,5,21,-
BRDA:49,4294967295,5,1
BRDA:49,4294967295,6,0
BRDA:49,0,8,1
BRDA:49,0,9,0
BRDA:49,1,12,1
BRDA:49,1,13,0
BRDA:52,4294967295,2,1
BRDA:52,4294967295,3,0
BRDA:52,0,5,1
BRDA:52,0,6,0
BRDA:52,1,9,0
BRDA:52,1,10,1
BRDA:52,2,12,-
BRDA:52,2,13,-
BRDA:52,3,15,-
BRDA:52,3,16,-
BRDA:52,4,18,-
BRDA:52,4,19,-
BRDA:52,5,21,-
BRDA:52,5,22,-
BRDA:55,4294967295,5,1
BRDA:55,4294967295,6,0
BRDA:55,0,8,1
BRDA:55,0,9,0
BRDA:55,1,12,1
BRDA:55,1,13,0
BRDA:59,4294967295,2,1
BRDA:59,4294967295,3,0
BRDA:59,0,5,1
BRDA:59,0,6,0
BRDA:59,1,9,0
BRDA:59,1,10,1
BRDA:59,2,12,-
BRDA:59,2,13,-
BRDA:59,3,15,-
BRDA:59,3,16,-
BRDA:59,4,18,-
BRDA:59,4,19,-
BRDA:59,5,21,-
BRDA:59,5,22,-
BRDA:61,3,1,1
BRDA:61,3,2,0
BRDA:61,4,3,1
BRDA:61,4,4,0
BRF:116
BRH:41
DA:7,8
DA:10,4
DA:11,4
DA:13,8
DA:16,8
DA:18,1
DA:19,1
DA:21,2
DA:22,1
DA:24,501
DA:25,500
DA:27,1
DA:29,8
DA:31,1
DA:32,1
DA:34,2
DA:35,1
DA:37,501
DA:38,500
DA:41,2
DA:42,1
DA:44,501
DA:45,500
DA:47,1
DA:49,8
DA:51,1
DA:52,1
DA:53,1
DA:55,8
DA:57,1
DA:58,1
DA:59,1
DA:60,1
DA:61,4
LF:34
LH:34
end_of_record
TN:
SF:/SharedWithWindows/Projects/diginstrument/inc/Multiplexer.h
FN:17,_ZN5Mixer11MultiplexerIfED0Ev
FN:17,_ZN5Mixer11MultiplexerIfED2Ev
FN:48,_ZN5Mixer11MultiplexerIfE15setChannelCountEj
FN:58,_ZN5Mixer11MultiplexerIfE15getChannelCountEv
FN:66,_ZN5Mixer11MultiplexerIfE5clearEv
FN:76,_ZN5Mixer11MultiplexerIfEC2Ej
FN:82,_ZN5Mixer11MultiplexerIfEC2Ev
FNDA:0,_ZN5Mixer11MultiplexerIfED0Ev
FNDA:0,_ZN5Mixer11MultiplexerIfED2Ev
FNDA:1,_ZN5Mixer11MultiplexerIfE15setChannelCountEj
FNDA:1937096,_ZN5Mixer11MultiplexerIfE15getChannelCountEv
FNDA:1,_ZN5Mixer11MultiplexerIfE5clearEv
FNDA:0,_ZN5Mixer11MultiplexerIfEC2Ej
FNDA:1,_ZN5Mixer11MultiplexerIfEC2Ev
FNF:7
FNH:4
DA:17,0
DA:48,1
DA:49,1
DA:50,1
DA:58,1937096
DA:59,1937096
DA:66,1
DA:67,1
DA:68,1
DA:76,0
DA:82,2
LF:11
LH:9
end_of_record
SF:/SharedWithWindows/Projects/diginstrument/inc/RepeatingBuffer.h
FN:15,_ZN8DataFlow15RepeatingBufferIfED2Ev
FN:15,_ZN8DataFlow15RepeatingBufferIfED0Ev
FNDA:0,_ZN8DataFlow15RepeatingBufferIfED0Ev
FNDA:0,_ZN8DataFlow15RepeatingBufferIfED2Ev
FNF:2
FNH:0
DA:15,0
LF:1
LH:0
end_of_record
SF:/SharedWithWindows/Projects/diginstrument/inc/iBuffer.h
FN:23,_ZN8DataFlow7iBufferIfED2Ev
FN:23,_ZN8DataFlow7iBufferIfED0Ev
FNDA:0,_ZN8DataFlow7iBufferIfED0Ev
FNDA:0,_ZN8DataFlow7iBufferIfED2Ev
FNF:2
FNH:0
DA:23,0
LF:1
LH:0
end_of_record
SF:/SharedWithWindows/Projects/diginstrument/inc/iSource.h
FN:15,_ZN8DataFlow7iSourceIfEC2Ev
FN:28,_ZN8DataFlow7iSourceIfED0Ev
FN:28,_ZN8DataFlow7iSourceIfED2Ev
FNDA:0,_ZN8DataFlow7iSourceIfEC2Ev
FNDA:0,_ZN8DataFlow7iSourceIfED0Ev
FNDA:0,_ZN8DataFlow7iSourceIfED2Ev
FNF:3
FNH:0
DA:15,0
DA:28,0
LF:2
LH:0
end_of_record
SF:/SharedWithWindows/Projects/diginstrument/mixer_test/multiplexer_test.cpp
FN:8,_ZN12_GLOBAL__N_115MultiplexerTestD2Ev
FN:11,_ZN12_GLOBAL__N_115MultiplexerTest5SetUpEv
FN:12,_ZN12_GLOBAL__N_115MultiplexerTest8TearDownEv
FN:16,_ZN12_GLOBAL__N_115MultiplexerTestC2Ev
FN:19,_ZN12_GLOBAL__N_148MultiplexerTest_ChannelCountFromConstructor_TestD0Ev
FN:19,_ZN12_GLOBAL__N_148MultiplexerTest_ChannelCountFromConstructor_Test8TestBodyEv
FN:19,_ZN12_GLOBAL__N_148MultiplexerTest_ChannelCountFromConstructor_TestC2Ev
FN:19,_ZN12_GLOBAL__N_148MultiplexerTest_ChannelCountFromConstructor_TestD2Ev
FN:25,_ZN12_GLOBAL__N_140MultiplexerTest_DefaultChannelCount_TestD0Ev
FN:25,_ZN12_GLOBAL__N_140MultiplexerTest_DefaultChannelCount_TestD2Ev
FN:25,_ZN12_GLOBAL__N_140MultiplexerTest_DefaultChannelCount_Test8TestBodyEv
FN:25,_ZN12_GLOBAL__N_140MultiplexerTest_DefaultChannelCount_TestC2Ev
FN:31,_ZN12_GLOBAL__N_136MultiplexerTest_setChannelCount_TestD0Ev
FN:31,_ZN12_GLOBAL__N_136MultiplexerTest_setChannelCount_Test8TestBodyEv
FN:31,_ZN12_GLOBAL__N_136MultiplexerTest_setChannelCount_TestD2Ev
FN:31,_ZN12_GLOBAL__N_136MultiplexerTest_setChannelCount_TestC2Ev
FN:39,_ZN12_GLOBAL__N_128MultiplexerTest_getSize_TestC2Ev
FN:39,_ZN12_GLOBAL__N_128MultiplexerTest_getSize_TestD0Ev
FN:39,_ZN12_GLOBAL__N_128MultiplexerTest_getSize_Test8TestBodyEv
FN:39,_ZN12_GLOBAL__N_128MultiplexerTest_getSize_TestD2Ev
FN:55,_ZN12_GLOBAL__N_133MultiplexerTest_clearChannel_TestC2Ev
FN:55,_ZN12_GLOBAL__N_133MultiplexerTest_clearChannel_TestD2Ev
FN:55,_ZN12_GLOBAL__N_133MultiplexerTest_clearChannel_Test8TestBodyEv
FN:55,_ZN12_GLOBAL__N_133MultiplexerTest_clearChannel_TestD0Ev
FN:74,_ZN12_GLOBAL__N_126MultiplexerTest_clear_Test8TestBodyEv
FN:74,_ZN12_GLOBAL__N_126MultiplexerTest_clear_TestC2Ev
FN:74,_ZN12_GLOBAL__N_126MultiplexerTest_clear_TestD0Ev
FN:74,_ZN12_GLOBAL__N_126MultiplexerTest_clear_TestD2Ev
FN:96,_ZN12_GLOBAL__N_142MultiplexerTest_SuppliedDataIsCorrect_TestD2Ev
FN:96,_ZN12_GLOBAL__N_142MultiplexerTest_SuppliedDataIsCorrect_TestC2Ev
FN:96,_ZN12_GLOBAL__N_142MultiplexerTest_SuppliedDataIsCorrect_Test8TestBodyEv
FN:96,_ZN12_GLOBAL__N_142MultiplexerTest_SuppliedDataIsCorrect_TestD0Ev
FN:108,_GLOBAL__sub_I_multiplexer_test.cpp
FN:108,_Z41__static_initialization_and_destruction_0ii
FNDA:7,_ZN12_GLOBAL__N_115MultiplexerTestD2Ev
FNDA:7,_ZN12_GLOBAL__N_115MultiplexerTest5SetUpEv
FNDA:7,_ZN12_GLOBAL__N_115MultiplexerTest8TearDownEv
FNDA:7,_ZN12_GLOBAL__N_115MultiplexerTestC2Ev
FNDA:1,_ZN12_GLOBAL__N_148MultiplexerTest_ChannelCountFromConstructor_TestD0Ev
FNDA:1,_ZN12_GLOBAL__N_148MultiplexerTest_ChannelCountFromConstructor_TestD2Ev
FNDA:1,_ZN12_GLOBAL__N_148MultiplexerTest_ChannelCountFromConstructor_Test8TestBodyEv
FNDA:1,_ZN12_GLOBAL__N_148MultiplexerTest_ChannelCountFromConstructor_TestC2Ev
FNDA:1,_ZN12_GLOBAL__N_140MultiplexerTest_DefaultChannelCount_TestD0Ev
FNDA:1,_ZN12_GLOBAL__N_140MultiplexerTest_DefaultChannelCount_TestD2Ev
FNDA:1,_ZN12_GLOBAL__N_140MultiplexerTest_DefaultChannelCount_Test8TestBodyEv
FNDA:1,_ZN12_GLOBAL__N_140MultiplexerTest_DefaultChannelCount_TestC2Ev
FNDA:1,_ZN12_GLOBAL__N_136MultiplexerTest_setChannelCount_TestD0Ev
FNDA:1,_ZN12_GLOBAL__N_136MultiplexerTest_setChannelCount_TestD2Ev
FNDA:1,_ZN12_GLOBAL__N_136MultiplexerTest_setChannelCount_Test8TestBodyEv
FNDA:1,_ZN12_GLOBAL__N_136MultiplexerTest_setChannelCount_TestC2Ev
FNDA:1,_ZN12_GLOBAL__N_128MultiplexerTest_getSize_TestD0Ev
FNDA:1,_ZN12_GLOBAL__N_128MultiplexerTest_getSize_TestD2Ev
FNDA:1,_ZN12_GLOBAL__N_128MultiplexerTest_getSize_Test8TestBodyEv
FNDA:1,_ZN12_GLOBAL__N_128MultiplexerTest_getSize_TestC2Ev
FNDA:1,_ZN12_GLOBAL__N_133MultiplexerTest_clearChannel_TestD0Ev
FNDA:1,_ZN12_GLOBAL__N_133MultiplexerTest_clearChannel_TestD2Ev
FNDA:1,_ZN12_GLOBAL__N_133MultiplexerTest_clearChannel_Test8TestBodyEv
FNDA:1,_ZN12_GLOBAL__N_133MultiplexerTest_clearChannel_TestC2Ev
FNDA:1,_ZN12_GLOBAL__N_126MultiplexerTest_clear_TestD0Ev
FNDA:1,_ZN12_GLOBAL__N_126MultiplexerTest_clear_TestD2Ev
FNDA:1,_ZN12_GLOBAL__N_126MultiplexerTest_clear_Test8TestBodyEv
FNDA:1,_ZN12_GLOBAL__N_126MultiplexerTest_clear_TestC2Ev
FNDA:1,_ZN12_GLOBAL__N_142MultiplexerTest_SuppliedDataIsCorrect_TestD0Ev
FNDA:1,_ZN12_GLOBAL__N_142MultiplexerTest_SuppliedDataIsCorrect_TestD2Ev
FNDA:1,_ZN12_GLOBAL__N_142MultiplexerTest_SuppliedDataIsCorrect_Test8TestBodyEv
FNDA:1,_ZN12_GLOBAL__N_142MultiplexerTest_SuppliedDataIsCorrect_TestC2Ev
FNDA:1,_GLOBAL__sub_I_multiplexer_test.cpp
FNDA:1,_Z41__static_initialization_and_destruction_0ii
FNF:34
FNH:34
BRDA:16,1,3,7
BRDA:16,1,4,0
BRDA:16,2,7,7
BRDA:16,2,8,0
BRDA:16,3,14,7
BRDA:16,3,15,0
BRDA:16,4,18,7
BRDA:16,4,19,0
BRDA:19,4294967295,5,1
BRDA:19,4294967295,6,0
BRDA:19,0,8,1
BRDA:19,0,9,0
BRDA:19,1,12,1
BRDA:19,1,13,0
BRDA:22,4294967295,2,1
BRDA:22,4294967295,3,0
BRDA:22,0,5,1
BRDA:22,0,6,0
BRDA:22,1,9,0
BRDA:22,1,10,1
BRDA:22,2,12,-
BRDA:22,2,13,-
BRDA:22,3,15,-
BRDA:22,3,16,-
BRDA:22,4,18,-
BRDA:22,4,19,-
BRDA:22,5,21,-
BRDA:22,5,22,-
BRDA:25,4294967295,5,1
BRDA:25,4294967295,6,0
BRDA:25,0,8,1
BRDA:25,0,9,0
BRDA:25,1,12,1
BRDA:25,1,13,0
BRDA:28,4294967295,2,1
BRDA:28,4294967295,3,0
BRDA:28,0,5,1
BRDA:28,0,6,0
BRDA:28,1,9,0
BRDA:28,1,10,1
BRDA:28,2,12,-
BRDA:28,2,13,-
BRDA:28,3,15,-
BRDA:28,3,16,-
BRDA:28,4,18,-
BRDA:28,4,19,-
BRDA:28,5,21,-
BRDA:28,5,22,-
BRDA:31,4294967295,5,1
BRDA:31,4294967295,6,0
BRDA:31,0,8,1
BRDA:31,0,9,0
BRDA:31,1,12,1
BRDA:31,1,13,0
BRDA:34,4294967295,2,1
BRDA:34,4294967295,3,0
BRDA:34,0,5,1
BRDA:34,0,6,0
BRDA:34,1,9,0
BRDA:34,1,10,1
BRDA:34,2,12,-
BRDA:34,2,13,-
BRDA:34,3,15,-
BRDA:34,3,16,-
BRDA:34,4,18,-
BRDA:34,4,19,-
BRDA:34,5,21,-
BRDA:34,5,22,-
BRDA:36,4294967295,2,1
BRDA:36,4294967295,3,0
BRDA:36,0,5,1
BRDA:36,0,6,0
BRDA:36,1,9,0
BRDA:36,1,10,1
BRDA:36,2,12,-
BRDA:36,2,13,-
BRDA:36,3,15,-
BRDA:36,3,16,-
BRDA:36,4,18,-
BRDA:36,4,19,-
BRDA:36,5,21,-
BRDA:36,5,22,-
BRDA:39,4294967295,5,1
BRDA:39,4294967295,6,0
BRDA:39,0,8,1
BRDA:39,0,9,0
BRDA:39,1,12,1
BRDA:39,1,13,0
BRDA:45,4294967295,1,1
BRDA:45,4294967295,2,0
BRDA:46,4294967295,2,1
BRDA:46,4294967295,3,0
BRDA:46,0,5,1
BRDA:46,0,6,0
BRDA:46,1,9,0
BRDA:46,1,10,1
BRDA:46,2,12,-
BRDA:46,2,13,-
BRDA:46,3,15,-
BRDA:46,3,16,-
BRDA:46,4,18,-
BRDA:46,4,19,-
BRDA:46,5,21,-
BRDA:46,5,22,-
BRDA:48,4294967295,1,1
BRDA:48,4294967295,2,0
BRDA:49,4294967295,2,1
BRDA:49,4294967295,3,0
BRDA:49,0,5,1
BRDA:49,0,6,0
BRDA:49,1,9,0
BRDA:49,1,10,1
BRDA:49,2,12,-
BRDA:49,2,13,-
BRDA:49,3,15,-
BRDA:49,3,16,-
BRDA:49,4,18,-
BRDA:49,4,19,-
BRDA:49,5,21,-
BRDA:49,5,22,-
BRDA:51,4294967295,1,1
BRDA:51,4294967295,2,0
BRDA:52,4294967295,2,1
BRDA:52,4294967295,3,0
BRDA:52,0,5,1
BRDA:52,0,6,0
BRDA:52,1,9,0
BRDA:52,1,10,1
BRDA:52,2,12,-
BRDA:52,2,13,-
BRDA:52,3,15,-
BRDA:52,3,16,-
BRDA:52,4,18,-
BRDA:52,4,19,-
BRDA:52,5,21,-
BRDA:52,5,22,-
BRDA:55,4294967295,5,1
BRDA:55,4294967295,6,0
BRDA:55,0,8,1
BRDA:55,0,9,0
BRDA:55,1,12,1
BRDA:55,1,13,0
BRDA:58,4294967295,1,1
BRDA:58,4294967295,2,0
BRDA:59,0,5,512
BRDA:59,0,6,1
BRDA:60,4294967295,1,512
BRDA:60,4294967295,2,0
BRDA:60,0,4,512
BRDA:60,0,5,0
BRDA:60,1,8,0
BRDA:60,1,9,512
BRDA:60,2,11,-
BRDA:60,2,12,-
BRDA:60,3,14,-
BRDA:60,3,15,-
BRDA:60,4,17,-
BRDA:60,4,18,-
BRDA:60,5,20,-
BRDA:60,5,21,-
BRDA:62,0,1,1
BRDA:62,0,2,0
BRDA:63,0,1,1
BRDA:63,0,2,0
BRDA:64,0,5,512
BRDA:64,0,6,1
BRDA:65,4294967295,1,512
BRDA:65,4294967295,2,0
BRDA:65,0,4,512
BRDA:65,0,5,0
BRDA:65,1,8,0
BRDA:65,1,9,512
BRDA:65,2,11,-
BRDA:65,2,12,-
BRDA:65,3,14,-
BRDA:65,3,15,-
BRDA:65,4,17,-
BRDA:65,4,18,-
BRDA:65,5,20,-
BRDA:65,5,21,-
BRDA:67,0,1,1
BRDA:67,0,2,0
BRDA:68,0,1,1
BRDA:68,0,2,0
BRDA:69,0,5,512
BRDA:69,0,6,1
BRDA:70,4294967295,1,512
BRDA:70,4294967295,2,0
BRDA:70,0,4,512
BRDA:70,0,5,0
BRDA:70,1,8,0
BRDA:70,1,9,512
BRDA:70,2,11,-
BRDA:70,2,12,-
BRDA:70,3,14,-
BRDA:70,3,15,-
BRDA:70,4,17,-
BRDA:70,4,18,-
BRDA:70,5,20,-
BRDA:70,5,21,-
BRDA:74,4294967295,5,1
BRDA:74,4294967295,6,0
BRDA:74,0,8,1
BRDA:74,0,9,0
BRDA:74,1,12,1
BRDA:74,1,13,0
BRDA:78,4294967295,1,1
BRDA:78,4294967295,2,0
BRDA:79,0,5,510
BRDA:79,0,6,1
BRDA:80,4294967295,1,510
BRDA:80,4294967295,2,0
BRDA:80,0,4,510
BRDA:80,0,5,0
BRDA:80,1,8,0
BRDA:80,1,9,510
BRDA:80,2,11,-
BRDA:80,2,12,-
BRDA:80,3,14,-
BRDA:80,3,15,-
BRDA:80,4,17,-
BRDA:80,4,18,-
BRDA:80,5,20,-
BRDA:80,5,21,-
BRDA:82,0,1,1
BRDA:82,0,2,0
BRDA:83,0,1,1
BRDA:83,0,2,0
BRDA:85,0,1,1
BRDA:85,0,2,0
BRDA:85,2,8,1536
BRDA:85,2,9,1
BRDA:86,4294967295,1,1536
BRDA:86,4294967295,2,0
BRDA:86,0,4,1536
BRDA:86,0,5,0
BRDA:86,1,8,0
BRDA:86,1,9,1536
BRDA:86,2,11,-
BRDA:86,2,12,-
BRDA:86,3,14,-
BRDA:86,3,15,-
BRDA:86,4,17,-
BRDA:86,4,18,-
BRDA:86,5,20,-
BRDA:86,5,21,-
BRDA:90,4294967295,1,1
BRDA:90,4294967295,2,0
BRDA:91,0,5,510
BRDA:91,0,6,1
BRDA:92,4294967295,1,510
BRDA:92,4294967295,2,0
BRDA:92,0,4,510
BRDA:92,0,5,0
BRDA:92,1,8,0
BRDA:92,1,9,510
BRDA:92,2,11,-
BRDA:92,2,12,-
BRDA:92,3,14,-
BRDA:92,3,15,-
BRDA:92,4,17,-
BRDA:92,4,18,-
BRDA:92,5,20,-
BRDA:92,5,21,-
BRDA:96,4294967295,5,1
BRDA:96,4294967295,6,0
BRDA:96,0,8,1
BRDA:96,0,9,0
BRDA:96,1,12,1
BRDA:96,1,13,0
BRDA:100,4294967295,1,1
BRDA:100,4294967295,2,0
BRDA:101,0,1,1
BRDA:101,0,2,0
BRDA:103,0,1,1
BRDA:103,0,2,0
BRDA:103,2,8,1536
BRDA:103,2,9,1
BRDA:104,4294967295,1,1536
BRDA:104,4294967295,2,0
BRDA:104,0,4,1536
BRDA:104,0,5,0
BRDA:104,1,8,0
BRDA:104,1,9,1536
BRDA:104,2,11,-
BRDA:104,2,12,-
BRDA:104,3,14,-
BRDA:104,3,15,-
BRDA:104,4,17,-
BRDA:104,4,18,-
BRDA:104,5,20,-
BRDA:104,5,21,-
BRDA:108,3,1,1
BRDA:108,3,2,0
BRDA:108,4,3,1
BRDA:108,4,4,0
BRF:296
BRH:99
DA:8,14
DA:11,7
DA:12,7
DA:16,7
DA:19,8
DA:21,2
DA:22,1
DA:23,1
DA:25,8
DA:27,2
DA:28,1
DA:29,1
DA:31,8
DA:33,2
DA:34,1
DA:35,1
DA:36,1
DA:37,1
DA:39,8
DA:41,1
DA:42,1
DA:43,2
DA:45,2
DA:46,1
DA:47,1
DA:48,1
DA:49,1
DA:50,1
DA:51,1
DA:52,1
DA:53,1
DA:55,8
DA:57,2
DA:58,2
DA:59,513
DA:60,512
DA:62,1
DA:63,1
DA:64,513
DA:65,512
DA:67,1
DA:68,1
DA:69,513
DA:70,512
DA:72,1
DA:74,8
DA:76,1
DA:77,2
DA:78,2
DA:79,511
DA:80,510
DA:82,1
DA:83,1
DA:84,1
DA:85,1537
DA:86,1536
DA:87,1536
DA:89,1
DA:90,1
DA:91,511
DA:92,510
DA:94,1
DA:96,8
DA:98,1
DA:99,2
DA:100,1
DA:101,1
DA:102,1
DA:103,1537
DA:104,1536
DA:105,1536
DA:107,1
DA:108,4
LF:73
LH:73
end_of_record
TN:
SF:/SharedWithWindows/Projects/diginstrument/inc/PortAudioBackend.h
FN:26,_ZN5Mixer16PortAudioBackendIfEC2Ev
FN:26,_ZN5Mixer16PortAudioBackendIfED0Ev
FN:26,_ZN5Mixer16PortAudioBackendIfED2Ev
FNDA:0,_ZN5Mixer16PortAudioBackendIfED0Ev
FNDA:4,_ZN5Mixer16PortAudioBackendIfED2Ev
FNDA:4,_ZN5Mixer16PortAudioBackendIfEC2Ev
FNF:3
FNH:2
DA:26,16
LF:1
LH:1
end_of_record
SF:/SharedWithWindows/Projects/diginstrument/inc/RepeatingBuffer.h
FN:15,_ZN8DataFlow15RepeatingBufferIfED0Ev
FN:15,_ZN8DataFlow15RepeatingBufferIfED2Ev
FNDA:0,_ZN8DataFlow15RepeatingBufferIfED0Ev
FNDA:0,_ZN8DataFlow15RepeatingBufferIfED2Ev
FNF:2
FNH:0
DA:15,0
LF:1
LH:0
end_of_record
SF:/SharedWithWindows/Projects/diginstrument/inc/iAudioBackend.h
FN:11,_ZN5Mixer13iAudioBackendIfEC2Ev
FN:27,_ZN5Mixer13iAudioBackendIfED2Ev
FN:27,_ZN5Mixer13iAudioBackendIfED0Ev
FNDA:4,_ZN5Mixer13iAudioBackendIfEC2Ev
FNDA:0,_ZN5Mixer13iAudioBackendIfED0Ev
FNDA:4,_ZN5Mixer13iAudioBackendIfED2Ev
FNF:3
FNH:2
DA:11,4
DA:27,4
LF:2
LH:2
end_of_record
SF:/SharedWithWindows/Projects/diginstrument/inc/iBuffer.h
FN:23,_ZN8DataFlow7iBufferIfED2Ev
FN:23,_ZN8DataFlow7iBufferIfED0Ev
FNDA:0,_ZN8DataFlow7iBufferIfED0Ev
FNDA:0,_ZN8DataFlow7iBufferIfED2Ev
FNF:2
FNH:0
DA:23,0
LF:1
LH:0
end_of_record
SF:/SharedWithWindows/Projects/diginstrument/inc/iSource.h
FN:28,_ZN8DataFlow7iSourceIfED0Ev
FN:28,_ZN8DataFlow7iSourceIfED2Ev
FNDA:0,_ZN8DataFlow7iSourceIfED0Ev
FNDA:0,_ZN8DataFlow7iSourceIfED2Ev
FNF:2
FNH:0
DA:28,0
LF:1
LH:0
end_of_record
SF:/SharedWithWindows/Projects/diginstrument/mixer_test/portaudio_backend_test.cpp
FN:11,_ZN12_GLOBAL__N_120PortAudioBackendTestD2Ev
FN:14,_ZN12_GLOBAL__N_120PortAudioBackendTest5SetUpEv
FN:15,_ZN12_GLOBAL__N_120PortAudioBackendTest8TearDownEv
FN:17,_ZN12_GLOBAL__N_120PortAudioBackendTestC2Ev
FN:22,_ZN12_GLOBAL__N_137PortAudioBackendTest_ErrorInInit_Test8TestBodyEv
FN:22,_ZN12_GLOBAL__N_137PortAudioBackendTest_ErrorInInit_TestD2Ev
FN:22,_ZN12_GLOBAL__N_137PortAudioBackendTest_ErrorInInit_TestD0Ev
FN:22,_ZN12_GLOBAL__N_137PortAudioBackendTest_ErrorInInit_TestC2Ev
FN:27,_ZN12_GLOBAL__N_140PortAudioBackendTest_SuccessfulInit_TestC2Ev
FN:27,_ZN12_GLOBAL__N_140PortAudioBackendTest_SuccessfulInit_Test8TestBodyEv
FN:27,_ZN12_GLOBAL__N_140PortAudioBackendTest_SuccessfulInit_TestD2Ev
FN:27,_ZN12_GLOBAL__N_140PortAudioBackendTest_SuccessfulInit_TestD0Ev
FN:32,_ZN12_GLOBAL__N_137PortAudioBackendTest_CloseStream_TestC2Ev
FN:32,_ZN12_GLOBAL__N_137PortAudioBackendTest_CloseStream_Test8TestBodyEv
FN:32,_ZN12_GLOBAL__N_137PortAudioBackendTest_CloseStream_TestD2Ev
FN:32,_ZN12_GLOBAL__N_137PortAudioBackendTest_CloseStream_TestD0Ev
FN:39,_ZN12_GLOBAL__N_138PortAudioBackendTest_StartAndStop_TestD2Ev
FN:39,_ZN12_GLOBAL__N_138PortAudioBackendTest_StartAndStop_TestC2Ev
FN:39,_ZN12_GLOBAL__N_138PortAudioBackendTest_StartAndStop_TestD0Ev
FN:39,_ZN12_GLOBAL__N_138PortAudioBackendTest_StartAndStop_Test8TestBodyEv
FN:47,_GLOBAL__sub_I_portaudio_backend_test.cpp
FN:47,_Z41__static_initialization_and_destruction_0ii
FNDA:4,_ZN12_GLOBAL__N_120PortAudioBackendTestD2Ev
FNDA:4,_ZN12_GLOBAL__N_120PortAudioBackendTest5SetUpEv
FNDA:4,_ZN12_GLOBAL__N_120PortAudioBackendTest8TearDownEv
FNDA:4,_ZN12_GLOBAL__N_120PortAudioBackendTestC2Ev
FNDA:1,_ZN12_GLOBAL__N_137PortAudioBackendTest_ErrorInInit_TestD0Ev
FNDA:1,_ZN12_GLOBAL__N_137PortAudioBackendTest_ErrorInInit_TestD2Ev
FNDA:1,_ZN12_GLOBAL__N_137PortAudioBackendTest_ErrorInInit_Test8TestBodyEv
FNDA:1,_ZN12_GLOBAL__N_137PortAudioBackendTest_ErrorInInit_TestC2Ev
FNDA:1,_ZN12_GLOBAL__N_140PortAudioBackendTest_SuccessfulInit_TestD0Ev
FNDA:1,_ZN12_GLOBAL__N_140PortAudioBackendTest_SuccessfulInit_TestD2Ev
FNDA:1,_ZN12_GLOBAL__N_140PortAudioBackendTest_SuccessfulInit_Test8TestBodyEv
FNDA:1,_ZN12_GLOBAL__N_140PortAudioBackendTest_SuccessfulInit_TestC2Ev
FNDA:1,_ZN12_GLOBAL__N_137PortAudioBackendTest_CloseStream_TestD0Ev
FNDA:1,_ZN12_GLOBAL__N_137PortAudioBackendTest_CloseStream_TestD2Ev
FNDA:1,_ZN12_GLOBAL__N_137PortAudioBackendTest_CloseStream_Test8TestBodyEv
FNDA:1,_ZN12_GLOBAL__N_137PortAudioBackendTest_CloseStream_TestC2Ev
FNDA:1,_ZN12_GLOBAL__N_138PortAudioBackendTest_StartAndStop_TestD0Ev
FNDA:1,_ZN12_GLOBAL__N_138PortAudioBackendTest_StartAndStop_TestD2Ev
FNDA:1,_ZN12_GLOBAL__N_138PortAudioBackendTest_StartAndStop_Test8TestBodyEv
FNDA:1,_ZN12_GLOBAL__N_138PortAudioBackendTest_StartAndStop_TestC2Ev
FNDA:1,_GLOBAL__sub_I_portaudio_backend_test.cpp
FNDA:1,_Z41__static_initialization_and_destruction_0ii
FNF:22
FNH:22
BRDA:17,1,3,4
BRDA:17,1,4,0
BRDA:17,2,7,4
BRDA:17,2,8,0
BRDA:22,4294967295,5,1
BRDA:22,4294967295,6,0
BRDA:22,0,8,1
BRDA:22,0,9,0
BRDA:22,1,12,1
BRDA:22,1,13,0
BRDA:24,0,1,1
BRDA:24,0,2,0
BRDA:24,1,4,1
BRDA:24,1,5,0
BRDA:24,2,7,1
BRDA:24,2,8,0
BRDA:24,3,11,0
BRDA:24,3,12,1
BRDA:24,4,14,-
BRDA:24,4,15,-
BRDA:24,5,17,-
BRDA:24,5,18,-
BRDA:24,6,21,-
BRDA:24,6,22,-
BRDA:24,7,24,-
BRDA:24,7,25,-
BRDA:27,4294967295,5,1
BRDA:27,4294967295,6,0
BRDA:27,0,8,1
BRDA:27,0,9,0
BRDA:27,1,12,1
BRDA:27,1,13,0
BRDA:29,0,1,1
BRDA:29,0,2,0
BRDA:29,1,4,1
BRDA:29,1,5,0
BRDA:29,2,7,1
BRDA:29,2,8,0
BRDA:29,3,11,0
BRDA:29,3,12,1
BRDA:29,4,14,-
BRDA:29,4,15,-
BRDA:29,5,17,-
BRDA:29,5,18,-
BRDA:29,6,21,-
BRDA:29,6,22,-
BRDA:29,7,24,-
BRDA:29,7,25,-
BRDA:32,4294967295,5,1
BRDA:32,4294967295,6,0
BRDA:32,0,8,1
BRDA:32,0,9,0
BRDA:32,1,12,1
BRDA:32,1,13,0
BRDA:34,0,1,1
BRDA:34,0,2,0
BRDA:34,1,4,1
BRDA:34,1,5,0
BRDA:34,2,7,1
BRDA:34,2,8,0
BRDA:34,3,11,0
BRDA:34,3,12,1
BRDA:34,4,14,-
BRDA:34,4,15,-
BRDA:34,5,17,-
BRDA:34,5,18,-
BRDA:34,6,21,-
BRDA:34,6,22,-
BRDA:34,7,24,-
BRDA:34,7,25,-
BRDA:35,4294967295,1,1
BRDA:35,4294967295,2,0
BRDA:35,0,4,1
BRDA:35,0,5,0
BRDA:35,1,7,1
BRDA:35,1,8,0
BRDA:35,2,11,0
BRDA:35,2,12,1
BRDA:35,3,14,-
BRDA:35,3,15,-
BRDA:35,4,17,-
BRDA:35,4,18,-
BRDA:35,5,21,-
BRDA:35,5,22,-
BRDA:35,6,24,-
BRDA:35,6,25,-
BRDA:36,4294967295,1,1
BRDA:36,4294967295,2,0
BRDA:36,0,4,1
BRDA:36,0,5,0
BRDA:36,1,7,1
BRDA:36,1,8,0
BRDA:36,2,11,0
BRDA:36,2,12,1
BRDA:36,3,14,-
BRDA:36,3,15,-
BRDA:36,4,17,-
BRDA:36,4,18,-
BRDA:36,5,21,-
BRDA:36,5,22,-
BRDA:36,6,24,-
BRDA:36,6,25,-
BRDA:39,4294967295,5,1
BRDA:39,4294967295,6,0
BRDA:39,0,8,1
BRDA:39,0,9,0
BRDA:39,1,12,1
BRDA:39,1,13,0
BRDA:41,0,1,1
BRDA:41,0,2,0
BRDA:41,1,4,1
BRDA:41,1,5,0
BRDA:41,2,7,1
BRDA:41,2,8,0
BRDA:41,3,11,0
BRDA:41,3,12,1
BRDA:41,4,14,-
BRDA:41,4,15,-
BRDA:41,5,17,-
BRDA:41,5,18,-
BRDA:41,6,21,-
BRDA:41,6,22,-
BRDA:41,7,24,-
BRDA:41,7,25,-
BRDA:42,4294967295,1,1
BRDA:42,4294967295,2,0
BRDA:42,0,4,1
BRDA:42,0,5,0
BRDA:42,1,7,1
BRDA:42,1,8,0
BRDA:42,2,11,0
BRDA:42,2,12,1
BRDA:42,3,14,-
BRDA:42,3,15,-
BRDA:42,4,17,-
BRDA:42,4,18,-
BRDA:42,5,21,-
BRDA:42,5,22,-
BRDA:42,6,24,-
BRDA:42,6,25,-
BRDA:43,4294967295,1,1
BRDA:43,4294967295,2,0
BRDA:43,0,4,1
BRDA:43,0,5,0
BRDA:43,1,7,1
BRDA:43,1,8,0
BRDA:43,2,11,0
BRDA:43,2,12,1
BRDA:43,3,14,-
BRDA:43,3,15,-
BRDA:43,4,17,-
BRDA:43,4,18,-
BRDA:43,5,21,-
BRDA:43,5,22,-
BRDA:43,6,24,-
BRDA:43,6,25,-
BRDA:44,4294967295,1,1
BRDA:44,4294967295,2,0
BRDA:44,0,4,1
BRDA:44,0,5,0
BRDA:44,1,7,1
BRDA:44,1,8,0
BRDA:44,2,11,0
BRDA:44,2,12,1
BRDA:44,3,14,-
BRDA:44,3,15,-
BRDA:44,4,17,-
BRDA:44,4,18,-
BRDA:44,5,21,-
BRDA:44,5,22,-
BRDA:44,6,24,-
BRDA:44,6,25,-
BRDA:45,4294967295,1,1
BRDA:45,4294967295,2,0
BRDA:45,0,4,1
BRDA:45,0,5,0
BRDA:45,1,7,1
BRDA:45,1,8,0
BRDA:45,2,11,0
BRDA:45,2,12,1
BRDA:45,3,14,-
BRDA:45,3,15,-
BRDA:45,4,17,-
BRDA:45,4,18,-
BRDA:45,5,21,-
BRDA:45,5,22,-
BRDA:45,6,24,-
BRDA:45,6,25,-
BRDA:47,3,1,1
BRDA:47,3,2,0
BRDA:47,4,3,1
BRDA:47,4,4,0
BRF:192
BRH:56
DA:11,8
DA:14,4
DA:15,4
DA:17,4
DA:22,8
DA:24,1
DA:25,1
DA:27,8
DA:29,1
DA:30,1
DA:32,8
DA:34,1
DA:35,1
DA:36,1
DA:37,1
DA:39,8
DA:41,1
DA:42,1
DA:43,1
DA:44,1
DA:45,1
DA:46,1
DA:47,4
LF:23
LH:23
end_of_record
TN:
SF:/SharedWithWindows/Projects/diginstrument/inc/QueueBuffer.h
FN:13,_ZN8DataFlow11QueueBufferIfED2Ev
FN:13,_ZN8DataFlow11QueueBufferIfED0Ev
FN:13,_ZN8DataFlow11QueueBufferIfEC2Ev
FNDA:0,_ZN8DataFlow11QueueBufferIfED0Ev
FNDA:0,_ZN8DataFlow11QueueBufferIfED2Ev
FNDA:0,_ZN8DataFlow11QueueBufferIfEC2Ev
FNF:3
FNH:0
BRDA:13,5,6,-
BRDA:13,5,7,-
BRDA:13,6,9,-
BRDA:13,6,10,-
BRF:4
BRH:0
DA:13,0
LF:1
LH:0
end_of_record
SF:/SharedWithWindows/Projects/diginstrument/inc/iBuffer.h
FN:11,_ZN8DataFlow7iBufferIfEC2Ev
FN:23,_ZN8DataFlow7iBufferIfED2Ev
FN:23,_ZN8DataFlow7iBufferIfED0Ev
FNDA:0,_ZN8DataFlow7iBufferIfEC2Ev
FNDA:0,_ZN8DataFlow7iBufferIfED0Ev
FNDA:0,_ZN8DataFlow7iBufferIfED2Ev
FNF:3
FNH:0
DA:11,0
DA:23,0
LF:2
LH:0
end_of_record
SF:/SharedWithWindows/Projects/diginstrument/inc/iSource.h
FN:15,_ZN8DataFlow7iSourceIfEC2Ev
FN:28,_ZN8DataFlow7iSourceIfED2Ev
FN:28,_ZN8DataFlow7iSourceIfED0Ev
FNDA:0,_ZN8DataFlow7iSourceIfEC2Ev
FNDA:0,_ZN8DataFlow7iSourceIfED0Ev
FNDA:0,_ZN8DataFlow7iSourceIfED2Ev
FNF:3
FNH:0
DA:15,0
DA:28,0
LF:2
LH:0
end_of_record
SF:/SharedWithWindows/Projects/diginstrument/mixer_test/queue_buffer_test.cpp
FN:7,_ZN12_GLOBAL__N_115QueueBufferTestD2Ev
FN:10,_ZN12_GLOBAL__N_115QueueBufferTest5SetUpEv
FN:11,_ZN12_GLOBAL__N_115QueueBufferTest8TearDownEv
FN:13,_ZN12_GLOBAL__N_115QueueBufferTestC2Ev
FN:15,_ZN12_GLOBAL__N_141QueueBufferTest_DataRemainsContinous_TestD0Ev
FN:15,_ZN12_GLOBAL__N_141QueueBufferTest_DataRemainsContinous_Test8TestBodyEv
FN:15,_ZN12_GLOBAL__N_141QueueBufferTest_DataRemainsContinous_TestD2Ev
FN:15,_ZN12_GLOBAL__N_141QueueBufferTest_DataRemainsContinous_TestC2Ev
FN:62,_ZN12_GLOBAL__N_136QueueBufferTest_SinglePutAndGet_Test8TestBodyEv
FN:62,_ZN12_GLOBAL__N_136QueueBufferTest_SinglePutAndGet_TestD0Ev
FN:62,_ZN12_GLOBAL__N_136QueueBufferTest_SinglePutAndGet_TestC2Ev
FN:62,_ZN12_GLOBAL__N_136QueueBufferTest_SinglePutAndGet_TestD2Ev
FN:76,_ZN12_GLOBAL__N_130QueueBufferTest_ClearTest_TestC2Ev
FN:76,_ZN12_GLOBAL__N_130QueueBufferTest_ClearTest_Test8TestBodyEv
FN:76,_ZN12_GLOBAL__N_130QueueBufferTest_ClearTest_TestD0Ev
FN:76,_ZN12_GLOBAL__N_130QueueBufferTest_ClearTest_TestD2Ev
FN:88,_Z41__static_initialization_and_destruction_0ii
FN:88,_GLOBAL__sub_I_queue_buffer_test.cpp
FNDA:3,_ZN12_GLOBAL__N_115QueueBufferTestD2Ev
FNDA:3,_ZN12_GLOBAL__N_115QueueBufferTest5SetUpEv
FNDA:3,_ZN12_GLOBAL__N_115QueueBufferTest8TearDownEv
FNDA:3,_ZN12_GLOBAL__N_115QueueBufferTestC2Ev
FNDA:1,_ZN12_GLOBAL__N_141QueueBufferTest_DataRemainsContinous_TestD0Ev
FNDA:1,_ZN12_GLOBAL__N_141QueueBufferTest_DataRemainsContinous_TestD2Ev
FNDA:1,_ZN12_GLOBAL__N_141QueueBufferTest_DataRemainsContinous_Test8TestBodyEv
FNDA:1,_ZN12_GLOBAL__N_141QueueBufferTest_DataRemainsContinous_TestC2Ev
FNDA:1,_ZN12_GLOBAL__N_136QueueBufferTest_SinglePutAndGet_TestD0Ev
FNDA:1,_ZN12_GLOBAL__N_136QueueBufferTest_SinglePutAndGet_TestD2Ev
FNDA:1,_ZN12_GLOBAL__N_136QueueBufferTest_SinglePutAndGet_Test8TestBodyEv
FNDA:1,_ZN12_GLOBAL__N_136QueueBufferTest_SinglePutAndGet_TestC2Ev
FNDA:1,_ZN12_GLOBAL__N_130QueueBufferTest_ClearTest_TestD0Ev
FNDA:1,_ZN12_GLOBAL__N_130QueueBufferTest_ClearTest_TestD2Ev
FNDA:1,_ZN12_GLOBAL__N_130QueueBufferTest_ClearTest_Test8TestBodyEv
FNDA:1,_ZN12_GLOBAL__N_130QueueBufferTest_ClearTest_TestC2Ev
FNDA:1,_GLOBAL__sub_I_queue_buffer_test.cpp
FNDA:1,_Z41__static_initialization_and_destruction_0ii
FNF:18
FNH:18
BRDA:15,4294967295,5,1
BRDA:15,4294967295,6,0
BRDA:15,0,8,1
BRDA:15,0,9,0
BRDA:15,1,12,1
BRDA:15,1,13,0
BRDA:19,0,1,1
BRDA:19,0,2,0
BRDA:26,0,0,10000
BRDA:26,0,1,1
BRDA:27,0,1,10000
BRDA:27,0,2,0
BRDA:30,1,0,10000
BRDA:30,1,1,1
BRDA:31,0,1,10000
BRDA:31,0,2,0
BRDA:34,1,0,10000
BRDA:34,1,1,1
BRDA:35,0,1,10000
BRDA:35,0,2,0
BRDA:38,1,0,10000
BRDA:38,1,1,1
BRDA:39,0,1,10000
BRDA:39,0,2,0
BRDA:42,1,0,10000
BRDA:42,1,1,1
BRDA:43,0,1,10000
BRDA:43,0,2,0
BRDA:47,0,1,1
BRDA:47,0,2,0
BRDA:47,1,4,1
BRDA:47,1,5,0
BRDA:48,4294967295,1,1
BRDA:48,4294967295,2,0
BRDA:48,0,4,1
BRDA:48,0,5,0
BRDA:49,4294967295,1,1
BRDA:49,4294967295,2,0
BRDA:49,0,4,1
BRDA:49,0,5,0
BRDA:50,4294967295,1,1
BRDA:50,4294967295,2,0
BRDA:50,0,4,1
BRDA:50,0,5,0
BRDA:51,4294967295,1,1
BRDA:51,4294967295,2,0
BRDA:51,0,4,1
BRDA:51,0,5,0
BRDA:53,4294967295,1,1
BRDA:53,4294967295,2,0
BRDA:53,0,4,1
BRDA:53,0,5,0
BRDA:53,1,7,1
BRDA:53,1,8,0
BRDA:53,2,11,0
BRDA:53,2,12,1
BRDA:53,3,14,-
BRDA:53,3,15,-
BRDA:53,4,17,-
BRDA:53,4,18,-
BRDA:53,5,20,-
BRDA:53,5,21,-
BRDA:53,6,23,-
BRDA:53,6,24,-
BRDA:56,4294967295,1,1
BRDA:56,4294967295,2,0
BRDA:56,0,4,1
BRDA:56,0,5,0
BRDA:56,2,11,50000
BRDA:56,2,12,1
BRDA:57,4294967295,1,50000
BRDA:57,4294967295,2,0
BRDA:57,0,4,50000
BRDA:57,0,5,0
BRDA:57,1,8,0
BRDA:57,1,9,50000
BRDA:57,2,11,-
BRDA:57,2,12,-
BRDA:57,3,14,-
BRDA:57,3,15,-
BRDA:57,4,17,-
BRDA:57,4,18,-
BRDA:57,5,20,-
BRDA:57,5,21,-
BRDA:62,4294967295,5,1
BRDA:62,4294967295,6,0
BRDA:62,0,8,1
BRDA:62,0,9,0
BRDA:62,1,12,1
BRDA:62,1,13,0
BRDA:64,0,1,1
BRDA:64,0,2,0
BRDA:67,1,0,1500
BRDA:67,1,1,1
BRDA:68,0,1,1500
BRDA:68,0,2,0
BRDA:71,1,0,1500
BRDA:71,1,1,1
BRDA:72,0,1,1500
BRDA:72,0,2,0
BRDA:72,1,4,1500
BRDA:72,1,5,0
BRDA:72,2,7,1500
BRDA:72,2,8,0
BRDA:72,3,11,0
BRDA:72,3,12,1500
BRDA:72,4,14,-
BRDA:72,4,15,-
BRDA:72,5,17,-
BRDA:72,5,18,-
BRDA:72,6,20,-
BRDA:72,6,21,-
BRDA:72,7,23,-
BRDA:72,7,24,-
BRDA:76,4294967295,5,1
BRDA:76,4294967295,6,0
BRDA:76,0,8,1
BRDA:76,0,9,0
BRDA:76,1,12,1
BRDA:76,1,13,0
BRDA:78,0,1,1
BRDA:78,0,2,0
BRDA:79,0,2,1
BRDA:79,0,3,0
BRDA:79,1,6,1
BRDA:79,1,7,0
BRDA:81,4294967295,1,1
BRDA:81,4294967295,2,0
BRDA:81,0,4,1
BRDA:81,0,5,0
BRDA:81,1,7,1
BRDA:81,1,8,0
BRDA:81,2,11,0
BRDA:81,2,12,1
BRDA:81,3,14,-
BRDA:81,3,15,-
BRDA:81,4,17,-
BRDA:81,4,18,-
BRDA:81,5,20,-
BRDA:81,5,21,-
BRDA:81,6,23,-
BRDA:81,6,24,-
BRDA:83,4294967295,1,1
BRDA:83,4294967295,2,0
BRDA:85,0,1,1
BRDA:85,0,2,0
BRDA:85,1,4,1
BRDA:85,1,5,0
BRDA:85,2,7,1
BRDA:85,2,8,0
BRDA:85,3,11,0
BRDA:85,3,12,1
BRDA:85,4,14,-
BRDA:85,4,15,-
BRDA:85,5,17,-
BRDA:85,5,18,-
BRDA:85,6,20,-
BRDA:85,6,21,-
BRDA:85,7,23,-
BRDA:85,7,24,-
BRDA:85,8,26,-
BRDA:85,8,27,-
BRDA:88,3,1,1
BRDA:88,3,2,0
BRDA:88,4,3,1
BRDA:88,4,4,0
BRF:166
BRH:70
DA:7,6
DA:10,3
DA:11,3
DA:13,6
DA:15,8
DA:17,1
DA:18,1
DA:19,2
DA:20,2
DA:21,2
DA:22,2
DA:23,2
DA:24,2
DA:26,10001
DA:27,10000
DA:28,10000
DA:30,10001
DA:31,10000
DA:32,10000
DA:34,10001
DA:35,10000
DA:36,10000
DA:38,10001
DA:39,10000
DA:40,10000
DA:42,10001
DA:43,10000
DA:44,10000
DA:47,1
DA:48,1
DA:49,1
DA:50,1
DA:51,1
DA:53,1
DA:55,1
DA:56,50001
DA:57,50000
DA:58,50000
DA:60,1
DA:62,8
DA:64,2
DA:65,1
DA:67,1501
DA:68,1500
DA:71,1501
DA:72,1500
DA:74,1
DA:76,8
DA:78,2
DA:79,1
DA:81,1
DA:83,1
DA:85,1
DA:86,1
DA:88,4
LF:55
LH:55
end_of_record
TN:
SF:/SharedWithWindows/Projects/diginstrument/inc/AudioSource.h
FN:33,_ZN5Mixer11AudioSourceC2ERKjS2_
FNDA:656,_ZN5Mixer11AudioSourceC2ERKjS2_
FNF:1
FNH:1
DA:33,656
LF:1
LH:1
end_of_record
SF:/SharedWithWindows/Projects/diginstrument/inc/QueueBuffer.h
FN:13,_ZN8DataFlow11QueueBufferIfEC2Ev
FN:13,_ZN8DataFlow11QueueBufferIfED0Ev
FN:13,_ZN8DataFlow11QueueBufferIfED2Ev
FNDA:0,_ZN8DataFlow11QueueBufferIfED0Ev
FNDA:0,_ZN8DataFlow11QueueBufferIfED2Ev
FNDA:0,_ZN8DataFlow11QueueBufferIfEC2Ev
FNF:3
FNH:0
BRDA:13,5,6,-
BRDA:13,5,7,-
BRDA:13,6,9,-
BRDA:13,6,10,-
BRF:4
BRH:0
DA:13,0
LF:1
LH:0
end_of_record
SF:/SharedWithWindows/Projects/diginstrument/inc/Recorder.h
FN:53,_ZN5Mixer8RecorderIfE6attachERN8DataFlow7iBufferIfEE
FN:65,_ZN5Mixer8RecorderIfEC2ERKjS3_
FNDA:4,_ZN5Mixer8RecorderIfE6attachERN8DataFlow7iBufferIfEE
FNDA:4,_ZN5Mixer8RecorderIfEC2ERKjS3_
FNF:2
FNH:2
DA:53,4
DA:54,4
DA:55,4
DA:65,8
LF:4
LH:4
end_of_record
SF:/SharedWithWindows/Projects/diginstrument/inc/RepeatingBuffer.h
FN:15,_ZN8DataFlow15RepeatingBufferIfED2Ev
FN:15,_ZN8DataFlow15RepeatingBufferIfED0Ev
FN:46,_ZN8DataFlow15RepeatingBufferIfEC2Ev
FNDA:0,_ZN8DataFlow15RepeatingBufferIfED0Ev
FNDA:0,_ZN8DataFlow15RepeatingBufferIfED2Ev
FNDA:2,_ZN8DataFlow15RepeatingBufferIfEC2Ev
FNF:3
FNH:1
DA:15,0
DA:46,4
LF:2
LH:1
end_of_record
SF:/SharedWithWindows/Projects/diginstrument/inc/iBuffer.h
FN:11,_ZN8DataFlow7iBufferIfEC2Ev
FN:23,_ZN8DataFlow7iBufferIfED2Ev
FN:23,_ZN8DataFlow7iBufferIfED0Ev
FNDA:0,_ZN8DataFlow7iBufferIfEC2Ev
FNDA:0,_ZN8DataFlow7iBufferIfED0Ev
FNDA:0,_ZN8DataFlow7iBufferIfED2Ev
FNF:3
FNH:0
DA:11,0
DA:23,0
LF:2
LH:0
end_of_record
SF:/SharedWithWindows/Projects/diginstrument/inc/iSource.h
FN:15,_ZN8DataFlow7iSourceIfEC2Ev
FN:28,_ZN8DataFlow7iSourceIfED2Ev
FN:28,_ZN8DataFlow7iSourceIfED0Ev
FNDA:0,_ZN8DataFlow7iSourceIfEC2Ev
FNDA:0,_ZN8DataFlow7iSourceIfED0Ev
FNDA:0,_ZN8DataFlow7iSourceIfED2Ev
FNF:3
FNH:0
DA:15,0
DA:28,0
LF:2
LH:0
end_of_record
SF:/SharedWithWindows/Projects/diginstrument/mixer_test/recorder_test.cpp
FN:12,_ZN12_GLOBAL__N_112RecorderTestD2Ev
FN:15,_ZN12_GLOBAL__N_112RecorderTest5SetUpEv
FN:16,_ZN12_GLOBAL__N_112RecorderTest8TearDownEv
FN:18,_ZN12_GLOBAL__N_112RecorderTestC2Ev
FN:21,_ZN12_GLOBAL__N_138RecorderTest_PortaudioInitialized_TestD0Ev
FN:21,_ZN12_GLOBAL__N_138RecorderTest_PortaudioInitialized_TestD2Ev
FN:21,_ZN12_GLOBAL__N_138RecorderTest_PortaudioInitialized_Test8TestBodyEv
FN:21,_ZN12_GLOBAL__N_138RecorderTest_PortaudioInitialized_TestC2Ev
FN:29,_ZN12_GLOBAL__N_140RecorderTest_InvalidAudioParameters_TestD2Ev
FN:29,_ZN12_GLOBAL__N_140RecorderTest_InvalidAudioParameters_TestD0Ev
FN:29,_ZN12_GLOBAL__N_140RecorderTest_InvalidAudioParameters_Test8TestBodyEv
FN:29,_ZN12_GLOBAL__N_140RecorderTest_InvalidAudioParameters_TestC2Ev
FN:37,_ZN12_GLOBAL__N_130RecorderTest_DataRecorded_TestD0Ev
FN:37,_ZN12_GLOBAL__N_130RecorderTest_DataRecorded_TestC2Ev
FN:37,_ZN12_GLOBAL__N_130RecorderTest_DataRecorded_TestD2Ev
FN:37,_ZN12_GLOBAL__N_130RecorderTest_DataRecorded_Test8TestBodyEv
FN:47,_ZN12_GLOBAL__N_140RecorderTest_DataRecordedInOneBlock_TestD0Ev
FN:47,_ZN12_GLOBAL__N_140RecorderTest_DataRecordedInOneBlock_TestD2Ev
FN:47,_ZN12_GLOBAL__N_140RecorderTest_DataRecordedInOneBlock_Test8TestBodyEv
FN:47,_ZN12_GLOBAL__N_140RecorderTest_DataRecordedInOneBlock_TestC2Ev
FN:57,_Z41__static_initialization_and_destruction_0ii
FN:57,_GLOBAL__sub_I_recorder_test.cpp
FNDA:4,_ZN12_GLOBAL__N_112RecorderTestD2Ev
FNDA:4,_ZN12_GLOBAL__N_112RecorderTest5SetUpEv
FNDA:4,_ZN12_GLOBAL__N_112RecorderTest8TearDownEv
FNDA:4,_ZN12_GLOBAL__N_112RecorderTestC2Ev
FNDA:1,_ZN12_GLOBAL__N_138RecorderTest_PortaudioInitialized_TestD0Ev
FNDA:1,_ZN12_GLOBAL__N_138RecorderTest_PortaudioInitialized_TestD2Ev
FNDA:1,_ZN12_GLOBAL__N_138RecorderTest_PortaudioInitialized_Test8TestBodyEv
FNDA:1,_ZN12_GLOBAL__N_138RecorderTest_PortaudioInitialized_TestC2Ev
FNDA:1,_ZN12_GLOBAL__N_140RecorderTest_InvalidAudioParameters_TestD0Ev
FNDA:1,_ZN12_GLOBAL__N_140RecorderTest_InvalidAudioParameters_TestD2Ev
FNDA:1,_ZN12_GLOBAL__N_140RecorderTest_InvalidAudioParameters_Test8TestBodyEv
FNDA:1,_ZN12_GLOBAL__N_140RecorderTest_InvalidAudioParameters_TestC2Ev
FNDA:1,_ZN12_GLOBAL__N_130RecorderTest_DataRecorded_TestD0Ev
FNDA:1,_ZN12_GLOBAL__N_130RecorderTest_DataRecorded_TestD2Ev
FNDA:1,_ZN12_GLOBAL__N_130RecorderTest_DataRecorded_Test8TestBodyEv
FNDA:1,_ZN12_GLOBAL__N_130RecorderTest_DataRecorded_TestC2Ev
FNDA:1,_ZN12_GLOBAL__N_140RecorderTest_DataRecordedInOneBlock_TestD0Ev
FNDA:1,_ZN12_GLOBAL__N_140RecorderTest_DataRecordedInOneBlock_TestD2Ev
FNDA:1,_ZN12_GLOBAL__N_140RecorderTest_DataRecordedInOneBlock_Test8TestBodyEv
FNDA:1,_ZN12_GLOBAL__N_140RecorderTest_DataRecordedInOneBlock_TestC2Ev
FNDA:1,_GLOBAL__sub_I_recorder_test.cpp
FNDA:1,_Z41__static_initialization_and_destruction_0ii
FNF:22
FNH:22
BRDA:21,4294967295,5,1
BRDA:21,4294967295,6,0
BRDA:21,0,8,1
BRDA:21,0,9,0
BRDA:21,1,12,1
BRDA:21,1,13,0
BRDA:23,0,1,1
BRDA:23,0,2,0
BRDA:26,4294967295,1,1
BRDA:26,4294967295,2,0
BRDA:26,0,4,1
BRDA:26,0,5,0
BRDA:26,1,7,1
BRDA:26,1,8,0
BRDA:26,2,11,0
BRDA:26,2,12,1
BRDA:26,3,14,-
BRDA:26,3,15,-
BRDA:26,4,17,-
BRDA:26,4,18,-
BRDA:26,5,20,-
BRDA:26,5,21,-
BRDA:26,6,24,-
BRDA:26,6,25,-
BRDA:26,7,27,-
BRDA:26,7,28,-
BRDA:29,4294967295,5,1
BRDA:29,4294967295,6,0
BRDA:29,0,8,1
BRDA:29,0,9,0
BRDA:29,1,12,1
BRDA:29,1,13,0
BRDA:31,0,1,1
BRDA:31,0,2,0
BRDA:34,4294967295,1,1
BRDA:34,4294967295,2,0
BRDA:34,0,4,1
BRDA:34,0,5,0
BRDA:34,1,7,1
BRDA:34,1,8,0
BRDA:34,2,11,0
BRDA:34,2,12,1
BRDA:34,3,14,-
BRDA:34,3,15,-
BRDA:34,4,17,-
BRDA:34,4,18,-
BRDA:34,5,20,-
BRDA:34,5,21,-
BRDA:34,6,24,-
BRDA:34,6,25,-
BRDA:34,7,27,-
BRDA:34,7,28,-
BRDA:37,4294967295,5,1
BRDA:37,4294967295,6,0
BRDA:37,0,8,1
BRDA:37,0,9,0
BRDA:37,1,12,1
BRDA:37,1,13,0
BRDA:39,0,1,1
BRDA:39,0,2,0
BRDA:43,4294967295,1,1
BRDA:43,4294967295,2,0
BRDA:43,0,4,1
BRDA:43,0,5,0
BRDA:43,1,7,1
BRDA:43,1,8,0
BRDA:43,2,11,0
BRDA:43,2,12,1
BRDA:43,3,14,-
BRDA:43,3,15,-
BRDA:43,4,17,-
BRDA:43,4,18,-
BRDA:43,5,20,-
BRDA:43,5,21,-
BRDA:43,6,24,-
BRDA:43,6,25,-
BRDA:43,7,27,-
BRDA:43,7,28,-
BRDA:44,4294967295,1,1
BRDA:44,4294967295,2,0
BRDA:44,0,4,1
BRDA:44,0,5,0
BRDA:44,1,7,1
BRDA:44,1,8,0
BRDA:44,2,11,0
BRDA:44,2,12,1
BRDA:44,3,14,-
BRDA:44,3,15,-
BRDA:44,4,17,-
BRDA:44,4,18,-
BRDA:44,5,20,-
BRDA:44,5,21,-
BRDA:44,6,23,-
BRDA:44,6,24,-
BRDA:44,7,26,-
BRDA:44,7,27,-
BRDA:47,4294967295,5,1
BRDA:47,4294967295,6,0
BRDA:47,0,8,1
BRDA:47,0,9,0
BRDA:47,1,12,1
BRDA:47,1,13,0
BRDA:53,4294967295,1,1
BRDA:53,4294967295,2,0
BRDA:53,0,4,1
BRDA:53,0,5,0
BRDA:53,1,7,1
BRDA:53,1,8,0
BRDA:53,2,11,0
BRDA:53,2,12,1
BRDA:53,3,14,-
BRDA:53,3,15,-
BRDA:53,4,17,-
BRDA:53,4,18,-
BRDA:53,5,20,-
BRDA:53,5,21,-
BRDA:53,6,24,-
BRDA:53,6,25,-
BRDA:53,7,27,-
BRDA:53,7,28,-
BRDA:54,4294967295,1,1
BRDA:54,4294967295,2,0
BRDA:54,0,4,1
BRDA:54,0,5,0
BRDA:54,1,7,1
BRDA:54,1,8,0
BRDA:54,2,11,0
BRDA:54,2,12,1
BRDA:54,3,14,-
BRDA:54,3,15,-
BRDA:54,4,17,-
BRDA:54,4,18,-
BRDA:54,5,20,-
BRDA:54,5,21,-
BRDA:54,6,23,-
BRDA:54,6,24,-
BRDA:54,7,26,-
BRDA:54,7,27,-
BRDA:57,3,1,1
BRDA:57,3,2,0
BRDA:57,4,3,1
BRDA:57,4,4,0
BRF:142
BRH:41
DA:12,8
DA:15,4
DA:16,4
DA:18,8
DA:21,8
DA:23,2
DA:24,1
DA:25,1
DA:26,1
DA:27,1
DA:29,8
DA:31,2
DA:32,1
DA:33,1
DA:34,1
DA:35,1
DA:37,8
DA:39,2
DA:40,1
DA:41,1
DA:42,1
DA:43,1
DA:44,1
DA:45,1
DA:47,8
DA:49,1
DA:50,2
DA:51,1
DA:52,1
DA:53,1
DA:54,1
DA:55,1
DA:57,4
LF:33
LH:33
end_of_record
TN:
SF:/SharedWithWindows/Projects/diginstrument/inc/RepeatingBuffer.h
FN:15,_ZN8DataFlow15RepeatingBufferIfED2Ev
FN:15,_ZN8DataFlow15RepeatingBufferIiED0Ev
FN:15,_ZN8DataFlow15RepeatingBufferIiED2Ev
FN:15,_ZN8DataFlow15RepeatingBufferIfED0Ev
FN:46,_ZN8DataFlow15RepeatingBufferIfEC2Ev
FN:46,_ZN8DataFlow15RepeatingBufferIiEC2Ev
FNDA:0,_ZN8DataFlow15RepeatingBufferIfED0Ev
FNDA:0,_ZN8DataFlow15RepeatingBufferIfED2Ev
FNDA:0,_ZN8DataFlow15RepeatingBufferIiED0Ev
FNDA:0,_ZN8DataFlow15RepeatingBufferIiED2Ev
FNDA:1,_ZN8DataFlow15RepeatingBufferIiEC2Ev
FNDA:0,_ZN8DataFlow15RepeatingBufferIfEC2Ev
FNF:6
FNH:1
DA:15,0
DA:46,2
LF:2
LH:1
end_of_record
SF:/SharedWithWindows/Projects/diginstrument/inc/iBuffer.h
FN:11,_ZN8DataFlow7iBufferIiEC2Ev
FN:11,_ZN8DataFlow7iBufferIfEC2Ev
FN:23,_ZN8DataFlow7iBufferIfED0Ev
FN:23,_ZN8DataFlow7iBufferIiED0Ev
FN:23,_ZN8DataFlow7iBufferIfED2Ev
FN:23,_ZN8DataFlow7iBufferIiED2Ev
FNDA:11,_ZN8DataFlow7iBufferIiEC2Ev
FNDA:0,_ZN8DataFlow7iBufferIfEC2Ev
FNDA:0,_ZN8DataFlow7iBufferIiED0Ev
FNDA:0,_ZN8DataFlow7iBufferIiED2Ev
FNDA:0,_ZN8DataFlow7iBufferIfED0Ev
FNDA:0,_ZN8DataFlow7iBufferIfED2Ev
FNF:6
FNH:1
DA:11,22
DA:23,0
LF:2
LH:1
end_of_record
SF:/SharedWithWindows/Projects/diginstrument/inc/iSource.h
FN:15,_ZN8DataFlow7iSourceIfEC2Ev
FN:15,_ZN8DataFlow7iSourceIiEC2Ev
FN:28,_ZN8DataFlow7iSourceIfED0Ev
FN:28,_ZN8DataFlow7iSourceIiED0Ev
FN:28,_ZN8DataFlow7iSourceIiED2Ev
FN:28,_ZN8DataFlow7iSourceIfED2Ev
FNDA:0,_ZN8DataFlow7iSourceIiEC2Ev
FNDA:0,_ZN8DataFlow7iSourceIfEC2Ev
FNDA:0,_ZN8DataFlow7iSourceIiED0Ev
FNDA:0,_ZN8DataFlow7iSourceIiED2Ev
FNDA:0,_ZN8DataFlow7iSourceIfED0Ev
FNDA:0,_ZN8DataFlow7iSourceIfED2Ev
FNF:6
FNH:0
DA:15,0
DA:28,0
LF:2
LH:0
end_of_record
SF:/SharedWithWindows/Projects/diginstrument/mixer_test/repeating_buffer_test.cpp
FN:7,_ZN12_GLOBAL__N_119RepeatingBufferTestD2Ev
FN:10,_ZN12_GLOBAL__N_119RepeatingBufferTest5SetUpEv
FN:11,_ZN12_GLOBAL__N_119RepeatingBufferTest8TearDownEv
FN:13,_ZN12_GLOBAL__N_119RepeatingBufferTestC2Ev
FN:16,_ZN12_GLOBAL__N_142RepeatingBufferTest_IsDataStoredFully_Test8TestBodyEv
FN:16,_ZN12_GLOBAL__N_142RepeatingBufferTest_IsDataStoredFully_TestD0Ev
FN:16,_ZN12_GLOBAL__N_142RepeatingBufferTest_IsDataStoredFully_TestC2Ev
FN:16,_ZN12_GLOBAL__N_142RepeatingBufferTest_IsDataStoredFully_TestD2Ev
FN:35,_ZN12_GLOBAL__N_157RepeatingBufferTest_IsDataStoredFullyWithConstructor_TestD0Ev
FN:35,_ZN12_GLOBAL__N_157RepeatingBufferTest_IsDataStoredFullyWithConstructor_TestD2Ev
FN:35,_ZN12_GLOBAL__N_157RepeatingBufferTest_IsDataStoredFullyWithConstructor_TestC2Ev
FN:35,_ZN12_GLOBAL__N_157RepeatingBufferTest_IsDataStoredFullyWithConstructor_Test8TestBodyEv
FN:52,_ZN12_GLOBAL__N_132RepeatingBufferTest_getSize_Test8TestBodyEv
FN:52,_ZN12_GLOBAL__N_132RepeatingBufferTest_getSize_TestD0Ev
FN:52,_ZN12_GLOBAL__N_132RepeatingBufferTest_getSize_TestD2Ev
FN:52,_ZN12_GLOBAL__N_132RepeatingBufferTest_getSize_TestC2Ev
FN:72,_ZN12_GLOBAL__N_130RepeatingBufferTest_clear_TestD2Ev
FN:72,_ZN12_GLOBAL__N_130RepeatingBufferTest_clear_TestD0Ev
FN:72,_ZN12_GLOBAL__N_130RepeatingBufferTest_clear_Test8TestBodyEv
FN:72,_ZN12_GLOBAL__N_130RepeatingBufferTest_clear_TestC2Ev
FN:96,_GLOBAL__sub_I_repeating_buffer_test.cpp
FN:96,_Z41__static_initialization_and_destruction_0ii
FNDA:4,_ZN12_GLOBAL__N_119RepeatingBufferTestD2Ev
FNDA:4,_ZN12_GLOBAL__N_119RepeatingBufferTest5SetUpEv
FNDA:4,_ZN12_GLOBAL__N_119RepeatingBufferTest8TearDownEv
FNDA:4,_ZN12_GLOBAL__N_119RepeatingBufferTestC2Ev
FNDA:1,_ZN12_GLOBAL__N_142RepeatingBufferTest_IsDataStoredFully_TestD0Ev
FNDA:1,_ZN12_GLOBAL__N_142RepeatingBufferTest_IsDataStoredFully_TestD2Ev
FNDA:1,_ZN12_GLOBAL__N_142RepeatingBufferTest_IsDataStoredFully_Test8TestBodyEv
FNDA:1,_ZN12_GLOBAL__N_142RepeatingBufferTest_IsDataStoredFully_TestC2Ev
FNDA:1,_ZN12_GLOBAL__N_157RepeatingBufferTest_IsDataStoredFullyWithConstructor_TestD0Ev
FNDA:1,_ZN12_GLOBAL__N_157RepeatingBufferTest_IsDataStoredFullyWithConstructor_TestD2Ev
FNDA:1,_ZN12_GLOBAL__N_157RepeatingBufferTest_IsDataStoredFullyWithConstructor_Test8TestBodyEv
FNDA:1,_ZN12_GLOBAL__N_157RepeatingBufferTest_IsDataStoredFullyWithConstructor_TestC2Ev
FNDA:1,_ZN12_GLOBAL__N_132RepeatingBufferTest_getSize_TestD0Ev
FNDA:1,_ZN12_GLOBAL__N_132RepeatingBufferTest_getSize_TestD2Ev
FNDA:1,_ZN12_GLOBAL__N_132RepeatingBufferTest_getSize_Test8TestBodyEv
FNDA:1,_ZN12_GLOBAL__N_132RepeatingBufferTest_getSize_TestC2Ev
FNDA:1,_ZN12_GLOBAL__N_130RepeatingBufferTest_clear_TestD0Ev
FNDA:1,_ZN12_GLOBAL__N_130RepeatingBufferTest_clear_TestD2Ev
FNDA:1,_ZN12_GLOBAL__N_130RepeatingBufferTest_clear_Test8TestBodyEv
FNDA:1,_ZN12_GLOBAL__N_130RepeatingBufferTest_clear_TestC2Ev
FNDA:1,_GLOBAL__sub_I_repeating_buffer_test.cpp
FNDA:1,_Z41__static_initialization_and_destruction_0ii
FNF:22
FNH:22
BRDA:16,4294967295,5,1
BRDA:16,4294967295,6,0
BRDA:16,0,8,1
BRDA:16,0,9,0
BRDA:16,1,12,1
BRDA:16,1,13,0
BRDA:20,0,0,500
BRDA:20,0,1,1
BRDA:21,0,1,500
BRDA:21,0,2,0
BRDA:23,0,1,1
BRDA:23,0,2,0
BRDA:23,1,4,1
BRDA:23,1,5,0
BRDA:24,4294967295,1,1
BRDA:24,4294967295,2,0
BRDA:24,0,4,1
BRDA:24,0,5,0
BRDA:24,1,9,1
BRDA:24,1,10,0
BRDA:24,2,12,1
BRDA:24,2,13,0
BRDA:24,3,17,0
BRDA:24,3,18,1
BRDA:24,4,20,-
BRDA:24,4,21,-
BRDA:24,5,23,-
BRDA:24,5,24,-
BRDA:24,6,26,-
BRDA:24,6,27,-
BRDA:24,7,29,-
BRDA:24,7,30,-
BRDA:28,0,0,500
BRDA:28,0,1,1
BRDA:29,0,1,500
BRDA:29,0,2,0
BRDA:31,0,1,1
BRDA:31,0,2,0
BRDA:31,1,4,1
BRDA:31,1,5,0
BRDA:32,4294967295,1,1
BRDA:32,4294967295,2,0
BRDA:32,0,4,1
BRDA:32,0,5,0
BRDA:32,1,9,1
BRDA:32,1,10,0
BRDA:32,2,12,1
BRDA:32,2,13,0
BRDA:32,3,17,0
BRDA:32,3,18,1
BRDA:32,4,20,-
BRDA:32,4,21,-
BRDA:32,5,23,-
BRDA:32,5,24,-
BRDA:32,6,26,-
BRDA:32,6,27,-
BRDA:32,7,29,-
BRDA:32,7,30,-
BRDA:35,4294967295,5,1
BRDA:35,4294967295,6,0
BRDA:35,0,8,1
BRDA:35,0,9,0
BRDA:35,1,12,1
BRDA:35,1,13,0
BRDA:38,0,0,500
BRDA:38,0,1,1
BRDA:39,0,1,500
BRDA:39,0,2,0
BRDA:41,0,1,1
BRDA:41,0,2,0
BRDA:41,1,4,1
BRDA:41,1,5,0
BRDA:42,4294967295,1,1
BRDA:42,4294967295,2,0
BRDA:42,0,4,1
BRDA:42,0,5,0
BRDA:42,1,9,1
BRDA:42,1,10,0
BRDA:42,2,12,1
BRDA:42,2,13,0
BRDA:42,3,17,0
BRDA:42,3,18,1
BRDA:42,4,20,-
BRDA:42,4,21,-
BRDA:42,5,23,-
BRDA:42,5,24,-
BRDA:42,6,26,-
BRDA:42,6,27,-
BRDA:42,7,29,-
BRDA:42,7,30,-
BRDA:45,0,0,500
BRDA:45,0,1,1
BRDA:46,0,1,500
BRDA:46,0,2,0
BRDA:48,0,1,1
BRDA:48,0,2,0
BRDA:48,1,4,1
BRDA:48,1,5,0
BRDA:49,4294967295,1,1
BRDA:49,4294967295,2,0
BRDA:49,0,4,1
BRDA:49,0,5,0
BRDA:49,1,9,1
BRDA:49,1,10,0
BRDA:49,2,12,1
BRDA:49,2,13,0
BRDA:49,3,17,0
BRDA:49,3,18,1
BRDA:49,4,20,-
BRDA:49,4,21,-
BRDA:49,5,23,-
BRDA:49,5,24,-
BRDA:49,6,26,-
BRDA:49,6,27,-
BRDA:49,7,29,-
BRDA:49,7,30,-
BRDA:52,4294967295,5,1
BRDA:52,4294967295,6,0
BRDA:52,0,8,1
BRDA:52,0,9,0
BRDA:52,1,12,1
BRDA:52,1,13,0
BRDA:55,0,0,500
BRDA:55,0,1,1
BRDA:56,0,1,500
BRDA:56,0,2,0
BRDA:58,0,1,1
BRDA:58,0,2,0
BRDA:58,1,4,1
BRDA:58,1,5,0
BRDA:60,4294967295,1,1
BRDA:60,4294967295,2,0
BRDA:61,4294967295,2,1
BRDA:61,4294967295,3,0
BRDA:61,0,5,1
BRDA:61,0,6,0
BRDA:61,1,9,0
BRDA:61,1,10,1
BRDA:61,2,12,-
BRDA:61,2,13,-
BRDA:61,3,15,-
BRDA:61,3,16,-
BRDA:61,4,18,-
BRDA:61,4,19,-
BRDA:61,5,21,-
BRDA:61,5,22,-
BRDA:64,0,0,500
BRDA:64,0,1,1
BRDA:65,0,1,500
BRDA:65,0,2,0
BRDA:67,0,1,1
BRDA:67,0,2,0
BRDA:67,1,4,1
BRDA:67,1,5,0
BRDA:68,4294967295,1,1
BRDA:68,4294967295,2,0
BRDA:69,4294967295,2,1
BRDA:69,4294967295,3,0
BRDA:69,0,5,1
BRDA:69,0,6,0
BRDA:69,1,9,0
BRDA:69,1,10,1
BRDA:69,2,12,-
BRDA:69,2,13,-
BRDA:69,3,15,-
BRDA:69,3,16,-
BRDA:69,4,18,-
BRDA:69,4,19,-
BRDA:69,5,21,-
BRDA:69,5,22,-
BRDA:72,4294967295,5,1
BRDA:72,4294967295,6,0
BRDA:72,0,8,1
BRDA:72,0,9,0
BRDA:72,1,12,1
BRDA:72,1,13,0
BRDA:75,4294967295,1,1
BRDA:75,4294967295,2,0
BRDA:76,1,0,498
BRDA:76,1,1,1
BRDA:77,0,1,498
BRDA:77,0,2,0
BRDA:79,0,1,1
BRDA:79,0,2,0
BRDA:79,1,4,1
BRDA:79,1,5,0
BRDA:80,4294967295,1,1
BRDA:80,4294967295,2,0
BRDA:81,4294967295,1,1
BRDA:81,4294967295,2,0
BRDA:83,0,1,1
BRDA:83,0,2,0
BRDA:83,1,5,1
BRDA:83,1,6,0
BRDA:83,2,8,1
BRDA:83,2,9,0
BRDA:83,3,13,0
BRDA:83,3,14,1
BRDA:83,4,16,-
BRDA:83,4,17,-
BRDA:83,5,19,-
BRDA:83,5,20,-
BRDA:83,6,22,-
BRDA:83,6,23,-
BRDA:83,7,25,-
BRDA:83,7,26,-
BRDA:86,4294967295,1,1
BRDA:86,4294967295,2,0
BRDA:87,1,0,500
BRDA:87,1,1,1
BRDA:88,0,1,500
BRDA:88,0,2,0
BRDA:90,0,1,1
BRDA:90,0,2,0
BRDA:90,1,4,1
BRDA:90,1,5,0
BRDA:91,4294967295,1,1
BRDA:91,4294967295,2,0
BRDA:92,4294967295,1,1
BRDA:92,4294967295,2,0
BRDA:94,0,1,1
BRDA:94,0,2,0
BRDA:94,1,5,1
BRDA:94,1,6,0
BRDA:94,2,8,1
BRDA:94,2,9,0
BRDA:94,3,13,0
BRDA:94,3,14,1
BRDA:94,4,16,-
BRDA:94,4,17,-
BRDA:94,5,19,-
BRDA:94,5,20,-
BRDA:94,6,22,-
BRDA:94,6,23,-
BRDA:94,7,25,-
BRDA:94,7,26,-
BRDA:96,3,1,1
BRDA:96,3,2,0
BRDA:96,4,3,1
BRDA:96,4,4,0
BRF:240
BRH:96
DA:7,8
DA:10,4
DA:11,4
DA:13,8
DA:16,8
DA:18,2
DA:19,2
DA:20,501
DA:21,500
DA:23,1
DA:24,1
DA:26,2
DA:27,2
DA:28,501
DA:29,500
DA:31,1
DA:32,1
DA:33,1
DA:35,8
DA:37,2
DA:38,501
DA:39,500
DA:41,2
DA:42,1
DA:44,2
DA:45,501
DA:46,500
DA:48,2
DA:49,1
DA:50,1
DA:52,8
DA:54,2
DA:55,501
DA:56,500
DA:58,2
DA:59,1
DA:60,2
DA:61,1
DA:63,2
DA:64,501
DA:65,500
DA:67,2
DA:68,2
DA:69,1
DA:70,1
DA:72,8
DA:74,2
DA:75,1
DA:76,499
DA:77,498
DA:79,2
DA:80,1
DA:81,1
DA:83,1
DA:85,2
DA:86,1
DA:87,501
DA:88,500
DA:90,2
DA:91,1
DA:92,1
DA:94,1
DA:95,1
DA:96,4
LF:64
LH:64
end_of_record
TN:
SF:/SharedWithWindows/Projects/diginstrument/inc/ConsolidationMethods.h
FN:19,_ZN13Consolidation12AccumulationIfED2Ev
FN:19,_ZN13Consolidation12AccumulationIfED0Ev
FNDA:0,_ZN13Consolidation12AccumulationIfED0Ev
FNDA:0,_ZN13Consolidation12AccumulationIfED2Ev
FNF:2
FNH:0
DA:19,0
LF:1
LH:0
end_of_record
SF:/SharedWithWindows/Projects/diginstrument/inc/Consolidator.h
FN:20,_ZN8DataFlow12ConsolidatorIfN13Consolidation12AccumulationEED0Ev
FN:20,_ZN8DataFlow12ConsolidatorIfN13Consolidation12AccumulationEED2Ev
FN:60,_ZN8DataFlow12ConsolidatorIfN13Consolidation12AccumulationEE3getERKj
FNDA:0,_ZN8DataFlow12ConsolidatorIfN13Consolidation12AccumulationEED0Ev
FNDA:0,_ZN8DataFlow12ConsolidatorIfN13Consolidation12AccumulationEED2Ev
FNDA:0,_ZN8DataFlow12ConsolidatorIfN13Consolidation12AccumulationEE3getERKj
FNF:3
FNH:0
BRDA:61,0,4,-
BRDA:61,0,5,-
BRDA:62,0,1,-
BRDA:62,0,2,-
BRDA:63,0,4,-
BRDA:63,0,5,-
BRF:6
BRH:0
DA:20,0
DA:60,0
DA:61,0
DA:62,0
DA:63,0
DA:65,0
LF:6
LH:0
end_of_record
SF:/SharedWithWindows/Projects/diginstrument/inc/SawtoothGenerator.h
FN:29,_ZN5Mixer17SawtoothGeneratorIfED2Ev
FN:29,_ZN5Mixer17SawtoothGeneratorIfED0Ev
FNDA:0,_ZN5Mixer17SawtoothGeneratorIfED0Ev
FNDA:4,_ZN5Mixer17SawtoothGeneratorIfED2Ev
FNF:2
FNH:1
DA:29,8
LF:1
LH:1
end_of_record
SF:/SharedWithWindows/Projects/diginstrument/inc/iConsolidationMethod.h
FN:41,_ZN8DataFlow20iConsolidationMethodIfED2Ev
FN:41,_ZN8DataFlow20iConsolidationMethodIfED0Ev
FNDA:0,_ZN8DataFlow20iConsolidationMethodIfED0Ev
FNDA:0,_ZN8DataFlow20iConsolidationMethodIfED2Ev
FNF:2
FNH:0
DA:41,0
LF:1
LH:0
end_of_record
SF:/SharedWithWindows/Projects/diginstrument/inc/iSource.h
FN:28,_ZN8DataFlow7iSourceIfED0Ev
FN:28,_ZN8DataFlow7iSourceIfED2Ev
FNDA:0,_ZN8DataFlow7iSourceIfED0Ev
FNDA:0,_ZN8DataFlow7iSourceIfED2Ev
FNF:2
FNH:0
DA:28,0
LF:1
LH:0
end_of_record
SF:/SharedWithWindows/Projects/diginstrument/inc/iWaveformGenerator.h
FN:67,_ZN5Mixer18iWaveformGeneratorIfED2Ev
FN:67,_ZN5Mixer18iWaveformGeneratorIfED0Ev
FNDA:0,_ZN5Mixer18iWaveformGeneratorIfED0Ev
FNDA:0,_ZN5Mixer18iWaveformGeneratorIfED2Ev
FNF:2
FNH:0
DA:67,0
LF:1
LH:0
end_of_record
SF:/SharedWithWindows/Projects/diginstrument/mixer_test/sawtooth_generator_test.cpp
FN:12,_ZN12_GLOBAL__N_121SawtoothGeneratorTestD2Ev
FN:15,_ZN12_GLOBAL__N_121SawtoothGeneratorTest5SetUpEv
FN:16,_ZN12_GLOBAL__N_121SawtoothGeneratorTest8TearDownEv
FN:20,_ZN12_GLOBAL__N_121SawtoothGeneratorTestC2Ev
FN:22,_ZN12_GLOBAL__N_139SawtoothGeneratorTest_getFrequency_Test8TestBodyEv
FN:22,_ZN12_GLOBAL__N_139SawtoothGeneratorTest_getFrequency_TestC2Ev
FN:22,_ZN12_GLOBAL__N_139SawtoothGeneratorTest_getFrequency_TestD2Ev
FN:22,_ZN12_GLOBAL__N_139SawtoothGeneratorTest_getFrequency_TestD0Ev
FN:27,_ZN12_GLOBAL__N_139SawtoothGeneratorTest_setFrequency_TestD2Ev
FN:27,_ZN12_GLOBAL__N_139SawtoothGeneratorTest_setFrequency_TestD0Ev
FN:27,_ZN12_GLOBAL__N_139SawtoothGeneratorTest_setFrequency_Test8TestBodyEv
FN:27,_ZN12_GLOBAL__N_139SawtoothGeneratorTest_setFrequency_TestC2Ev
FN:34,_ZN12_GLOBAL__N_153SawtoothGeneratorTest_setFrequencyWithTransition_TestC2Ev
FN:34,_ZN12_GLOBAL__N_153SawtoothGeneratorTest_setFrequencyWithTransition_TestD2Ev
FN:34,_ZN12_GLOBAL__N_153SawtoothGeneratorTest_setFrequencyWithTransition_Test8TestBodyEv
FN:34,_ZN12_GLOBAL__N_153SawtoothGeneratorTest_setFrequencyWithTransition_TestD0Ev
FN:43,_ZN12_GLOBAL__N_134SawtoothGeneratorTest_getSize_TestC2Ev
FN:43,_ZN12_GLOBAL__N_134SawtoothGeneratorTest_getSize_TestD2Ev
FN:43,_ZN12_GLOBAL__N_134SawtoothGeneratorTest_getSize_Test8TestBodyEv
FN:43,_ZN12_GLOBAL__N_134SawtoothGeneratorTest_getSize_TestD0Ev
FN:55,_GLOBAL__sub_I_sawtooth_generator_test.cpp
FN:55,_Z41__static_initialization_and_destruction_0ii
FNDA:4,_ZN12_GLOBAL__N_121SawtoothGeneratorTestD2Ev
FNDA:4,_ZN12_GLOBAL__N_121SawtoothGeneratorTest5SetUpEv
FNDA:4,_ZN12_GLOBAL__N_121SawtoothGeneratorTest8TearDownEv
FNDA:4,_ZN12_GLOBAL__N_121SawtoothGeneratorTestC2Ev
FNDA:1,_ZN12_GLOBAL__N_139SawtoothGeneratorTest_getFrequency_TestD0Ev
FNDA:1,_ZN12_GLOBAL__N_139SawtoothGeneratorTest_getFrequency_TestD2Ev
FNDA:1,_ZN12_GLOBAL__N_139SawtoothGeneratorTest_getFrequency_Test8TestBodyEv
FNDA:1,_ZN12_GLOBAL__N_139SawtoothGeneratorTest_getFrequency_TestC2Ev
FNDA:1,_ZN12_GLOBAL__N_139SawtoothGeneratorTest_setFrequency_TestD0Ev
FNDA:1,_ZN12_GLOBAL__N_139SawtoothGeneratorTest_setFrequency_TestD2Ev
FNDA:1,_ZN12_GLOBAL__N_139SawtoothGeneratorTest_setFrequency_Test8TestBodyEv
FNDA:1,_ZN12_GLOBAL__N_139SawtoothGeneratorTest_setFrequency_TestC2Ev
FNDA:1,_ZN12_GLOBAL__N_153SawtoothGeneratorTest_setFrequencyWithTransition_TestD0Ev
FNDA:1,_ZN12_GLOBAL__N_153SawtoothGeneratorTest_setFrequencyWithTransition_TestD2Ev
FNDA:1,_ZN12_GLOBAL__N_153SawtoothGeneratorTest_setFrequencyWithTransition_Test8TestBodyEv
FNDA:1,_ZN12_GLOBAL__N_153SawtoothGeneratorTest_setFrequencyWithTransition_TestC2Ev
FNDA:1,_ZN12_GLOBAL__N_134SawtoothGeneratorTest_getSize_TestD0Ev
FNDA:1,_ZN12_GLOBAL__N_134SawtoothGeneratorTest_getSize_TestD2Ev
FNDA:1,_ZN12_GLOBAL__N_134SawtoothGeneratorTest_getSize_Test8TestBodyEv
FNDA:1,_ZN12_GLOBAL__N_134SawtoothGeneratorTest_getSize_TestC2Ev
FNDA:1,_GLOBAL__sub_I_sawtooth_generator_test.cpp
FNDA:1,_Z41__static_initialization_and_destruction_0ii
FNF:22
FNH:22
BRDA:20,1,2,4
BRDA:20,1,3,0
BRDA:22,4294967295,5,1
BRDA:22,4294967295,6,0
BRDA:22,0,8,1
BRDA:22,0,9,0
BRDA:22,1,12,1
BRDA:22,1,13,0
BRDA:24,0,1,1
BRDA:24,0,2,0
BRDA:24,1,4,1
BRDA:24,1,5,0
BRDA:24,2,7,1
BRDA:24,2,8,0
BRDA:24,3,11,0
BRDA:24,3,12,1
BRDA:24,4,14,-
BRDA:24,4,15,-
BRDA:24,5,17,-
BRDA:24,5,18,-
BRDA:24,6,20,-
BRDA:24,6,21,-
BRDA:24,7,23,-
BRDA:24,7,24,-
BRDA:27,4294967295,5,1
BRDA:27,4294967295,6,0
BRDA:27,0,8,1
BRDA:27,0,9,0
BRDA:27,1,12,1
BRDA:27,1,13,0
BRDA:30,0,1,1
BRDA:30,0,2,0
BRDA:31,0,1,1
BRDA:31,0,2,0
BRDA:31,1,4,1
BRDA:31,1,5,0
BRDA:31,2,7,1
BRDA:31,2,8,0
BRDA:31,3,11,0
BRDA:31,3,12,1
BRDA:31,4,14,-
BRDA:31,4,15,-
BRDA:31,5,17,-
BRDA:31,5,18,-
BRDA:31,6,20,-
BRDA:31,6,21,-
BRDA:31,7,23,-
BRDA:31,7,24,-
BRDA:34,4294967295,5,1
BRDA:34,4294967295,6,0
BRDA:34,0,8,1
BRDA:34,0,9,0
BRDA:34,1,12,1
BRDA:34,1,13,0
BRDA:38,0,2,1
BRDA:38,0,3,0
BRDA:38,1,6,1
BRDA:38,1,7,0
BRDA:39,4294967295,1,1
BRDA:39,4294967295,2,0
BRDA:40,4294967295,1,1
BRDA:40,4294967295,2,0
BRDA:40,0,4,1
BRDA:40,0,5,0
BRDA:40,1,7,1
BRDA:40,1,8,0
BRDA:40,2,11,0
BRDA:40,2,12,1
BRDA:40,3,14,-
BRDA:40,3,15,-
BRDA:40,4,17,-
BRDA:40,4,18,-
BRDA:40,5,20,-
BRDA:40,5,21,-
BRDA:40,6,23,-
BRDA:40,6,24,-
BRDA:43,4294967295,5,1
BRDA:43,4294967295,6,0
BRDA:43,0,8,1
BRDA:43,0,9,0
BRDA:43,1,12,1
BRDA:43,1,13,0
BRDA:46,0,1,1
BRDA:46,0,2,0
BRDA:47,4294967295,2,1
BRDA:47,4294967295,3,0
BRDA:47,0,5,1
BRDA:47,0,6,0
BRDA:47,1,9,0
BRDA:47,1,10,1
BRDA:47,2,12,-
BRDA:47,2,13,-
BRDA:47,3,15,-
BRDA:47,3,16,-
BRDA:47,4,18,-
BRDA:47,4,19,-
BRDA:47,5,21,-
BRDA:47,5,22,-
BRDA:49,4294967295,1,1
BRDA:49,4294967295,2,0
BRDA:50,4294967295,2,1
BRDA:50,4294967295,3,0
BRDA:50,0,5,1
BRDA:50,0,6,0
BRDA:50,1,9,0
BRDA:50,1,10,1
BRDA:50,2,12,-
BRDA:50,2,13,-
BRDA:50,3,15,-
BRDA:50,3,16,-
BRDA:50,4,18,-
BRDA:50,4,19,-
BRDA:50,5,21,-
BRDA:50,5,22,-
BRDA:52,4294967295,1,1
BRDA:52,4294967295,2,0
BRDA:53,4294967295,2,1
BRDA:53,4294967295,3,0
BRDA:53,0,5,1
BRDA:53,0,6,0
BRDA:53,1,9,0
BRDA:53,1,10,1
BRDA:53,2,12,-
BRDA:53,2,13,-
BRDA:53,3,15,-
BRDA:53,3,16,-
BRDA:53,4,18,-
BRDA:53,4,19,-
BRDA:53,5,21,-
BRDA:53,5,22,-
BRDA:55,3,1,1
BRDA:55,3,2,0
BRDA:55,4,3,1
BRDA:55,4,4,0
BRF:134
BRH:43
DA:12,8
DA:15,4
DA:16,4
DA:20,4
DA:22,8
DA:24,1
DA:25,1
DA:27,8
DA:29,1
DA:30,1
DA:31,1
DA:32,1
DA:34,8
DA:36,1
DA:37,1
DA:38,1
DA:39,1
DA:40,1
DA:41,1
DA:43,8
DA:45,1
DA:46,2
DA:47,1
DA:48,1
DA:49,1
DA:50,1
DA:51,1
DA:52,1
DA:53,1
DA:54,1
DA:55,4
LF:31
LH:31
end_of_record
TN:
SF:/SharedWithWindows/Projects/diginstrument/inc/SineGenerator.h
FN:23,_ZN5Mixer13SineGeneratorIfED0Ev
FN:23,_ZN5Mixer13SineGeneratorIfED2Ev
FNDA:617,_ZN5Mixer13SineGeneratorIfED0Ev
FNDA:622,_ZN5Mixer13SineGeneratorIfED2Ev
FNF:2
FNH:2
DA:23,2478
LF:1
LH:1
end_of_record
SF:/SharedWithWindows/Projects/diginstrument/inc/iSource.h
FN:28,_ZN8DataFlow7iSourceIfED0Ev
FN:28,_ZN8DataFlow7iSourceIfED2Ev
FNDA:0,_ZN8DataFlow7iSourceIfED0Ev
FNDA:0,_ZN8DataFlow7iSourceIfED2Ev
FNF:2
FNH:0
DA:28,0
LF:1
LH:0
end_of_record
SF:/SharedWithWindows/Projects/diginstrument/inc/iWaveformGenerator.h
FN:67,_ZN5Mixer18iWaveformGeneratorIfED2Ev
FN:67,_ZN5Mixer18iWaveformGeneratorIfED0Ev
FNDA:0,_ZN5Mixer18iWaveformGeneratorIfED0Ev
FNDA:0,_ZN5Mixer18iWaveformGeneratorIfED2Ev
FNF:2
FNH:0
DA:67,0
LF:1
LH:0
end_of_record
SF:/SharedWithWindows/Projects/diginstrument/mixer_test/sine_generator_test.cpp
FN:11,_ZN12_GLOBAL__N_117SineGeneratorTestD2Ev
FN:14,_ZN12_GLOBAL__N_117SineGeneratorTest5SetUpEv
FN:15,_ZN12_GLOBAL__N_117SineGeneratorTest8TearDownEv
FN:19,_ZN12_GLOBAL__N_117SineGeneratorTestC2Ev
FN:21,_ZN12_GLOBAL__N_135SineGeneratorTest_getFrequency_TestD2Ev
FN:21,_ZN12_GLOBAL__N_135SineGeneratorTest_getFrequency_TestC2Ev
FN:21,_ZN12_GLOBAL__N_135SineGeneratorTest_getFrequency_TestD0Ev
FN:21,_ZN12_GLOBAL__N_135SineGeneratorTest_getFrequency_Test8TestBodyEv
FN:26,_ZN12_GLOBAL__N_135SineGeneratorTest_setFrequency_TestC2Ev
FN:26,_ZN12_GLOBAL__N_135SineGeneratorTest_setFrequency_Test8TestBodyEv
FN:26,_ZN12_GLOBAL__N_135SineGeneratorTest_setFrequency_TestD0Ev
FN:26,_ZN12_GLOBAL__N_135SineGeneratorTest_setFrequency_TestD2Ev
FN:33,_ZN12_GLOBAL__N_149SineGeneratorTest_setFrequencyWithTransition_Test8TestBodyEv
FN:33,_ZN12_GLOBAL__N_149SineGeneratorTest_setFrequencyWithTransition_TestD2Ev
FN:33,_ZN12_GLOBAL__N_149SineGeneratorTest_setFrequencyWithTransition_TestC2Ev
FN:33,_ZN12_GLOBAL__N_149SineGeneratorTest_setFrequencyWithTransition_TestD0Ev
FN:43,_ZN12_GLOBAL__N_130SineGeneratorTest_getSize_Test8TestBodyEv
FN:43,_ZN12_GLOBAL__N_130SineGeneratorTest_getSize_TestD0Ev
FN:43,_ZN12_GLOBAL__N_130SineGeneratorTest_getSize_TestC2Ev
FN:43,_ZN12_GLOBAL__N_130SineGeneratorTest_getSize_TestD2Ev
FN:56,_ZN12_GLOBAL__N_149SineGeneratorTest_differentTransitionMethods_TestD0Ev
FN:56,_ZN12_GLOBAL__N_149SineGeneratorTest_differentTransitionMethods_TestD2Ev
FN:56,_ZN12_GLOBAL__N_149SineGeneratorTest_differentTransitionMethods_TestC2Ev
FN:56,_ZN12_GLOBAL__N_149SineGeneratorTest_differentTransitionMethods_Test8TestBodyEv
FN:112,_Z41__static_initialization_and_destruction_0ii
FN:112,_GLOBAL__sub_I_sine_generator_test.cpp
FNDA:5,_ZN12_GLOBAL__N_117SineGeneratorTestD2Ev
FNDA:5,_ZN12_GLOBAL__N_117SineGeneratorTest5SetUpEv
FNDA:5,_ZN12_GLOBAL__N_117SineGeneratorTest8TearDownEv
FNDA:5,_ZN12_GLOBAL__N_117SineGeneratorTestC2Ev
FNDA:1,_ZN12_GLOBAL__N_135SineGeneratorTest_getFrequency_TestD0Ev
FNDA:1,_ZN12_GLOBAL__N_135SineGeneratorTest_getFrequency_TestD2Ev
FNDA:1,_ZN12_GLOBAL__N_135SineGeneratorTest_getFrequency_Test8TestBodyEv
FNDA:1,_ZN12_GLOBAL__N_135SineGeneratorTest_getFrequency_TestC2Ev
FNDA:1,_ZN12_GLOBAL__N_135SineGeneratorTest_setFrequency_TestD0Ev
FNDA:1,_ZN12_GLOBAL__N_135SineGeneratorTest_setFrequency_TestD2Ev
FNDA:1,_ZN12_GLOBAL__N_135SineGeneratorTest_setFrequency_Test8TestBodyEv
FNDA:1,_ZN12_GLOBAL__N_135SineGeneratorTest_setFrequency_TestC2Ev
FNDA:1,_ZN12_GLOBAL__N_149SineGeneratorTest_setFrequencyWithTransition_TestD0Ev
FNDA:1,_ZN12_GLOBAL__N_149SineGeneratorTest_setFrequencyWithTransition_TestD2Ev
FNDA:1,_ZN12_GLOBAL__N_149SineGeneratorTest_setFrequencyWithTransition_Test8TestBodyEv
FNDA:1,_ZN12_GLOBAL__N_149SineGeneratorTest_setFrequencyWithTransition_TestC2Ev
FNDA:1,_ZN12_GLOBAL__N_130SineGeneratorTest_getSize_TestD0Ev
FNDA:1,_ZN12_GLOBAL__N_130SineGeneratorTest_getSize_TestD2Ev
FNDA:1,_ZN12_GLOBAL__N_130SineGeneratorTest_getSize_Test8TestBodyEv
FNDA:1,_ZN12_GLOBAL__N_130SineGeneratorTest_getSize_TestC2Ev
FNDA:1,_ZN12_GLOBAL__N_149SineGeneratorTest_differentTransitionMethods_TestD0Ev
FNDA:1,_ZN12_GLOBAL__N_149SineGeneratorTest_differentTransitionMethods_TestD2Ev
FNDA:1,_ZN12_GLOBAL__N_149SineGeneratorTest_differentTransitionMethods_Test8TestBodyEv
FNDA:1,_ZN12_GLOBAL__N_149SineGeneratorTest_differentTransitionMethods_TestC2Ev
FNDA:1,_GLOBAL__sub_I_sine_generator_test.cpp
FNDA:1,_Z41__static_initialization_and_destruction_0ii
FNF:26
FNH:26
BRDA:19,1,2,5
BRDA:19,1,3,0
BRDA:21,4294967295,5,1
BRDA:21,4294967295,6,0
BRDA:21,0,8,1
BRDA:21,0,9,0
BRDA:21,1,12,1
BRDA:21,1,13,0
BRDA:23,0,1,1
BRDA:23,0,2,0
BRDA:23,1,4,1
BRDA:23,1,5,0
BRDA:23,2,7,1
BRDA:23,2,8,0
BRDA:23,3,11,0
BRDA:23,3,12,1
BRDA:23,4,14,-
BRDA:23,4,15,-
BRDA:23,5,17,-
BRDA:23,5,18,-
BRDA:23,6,20,-
BRDA:23,6,21,-
BRDA:23,7,23,-
BRDA:23,7,24,-
BRDA:26,4294967295,5,1
BRDA:26,4294967295,6,0
BRDA:26,0,8,1
BRDA:26,0,9,0
BRDA:26,1,12,1
BRDA:26,1,13,0
BRDA:29,0,1,1
BRDA:29,0,2,0
BRDA:30,0,1,1
BRDA:30,0,2,0
BRDA:30,1,4,1
BRDA:30,1,5,0
BRDA:30,2,7,1
BRDA:30,2,8,0
BRDA:30,3,11,0
BRDA:30,3,12,1
BRDA:30,4,14,-
BRDA:30,4,15,-
BRDA:30,5,17,-
BRDA:30,5,18,-
BRDA:30,6,20,-
BRDA:30,6,21,-
BRDA:30,7,23,-
BRDA:30,7,24,-
BRDA:33,4294967295,5,1
BRDA:33,4294967295,6,0
BRDA:33,0,8,1
BRDA:33,0,9,0
BRDA:33,1,12,1
BRDA:33,1,13,0
BRDA:37,0,2,1
BRDA:37,0,3,0
BRDA:37,1,6,1
BRDA:37,1,7,0
BRDA:38,4294967295,1,1
BRDA:38,4294967295,2,0
BRDA:38,0,4,1
BRDA:38,0,5,0
BRDA:38,1,7,1
BRDA:38,1,8,0
BRDA:38,2,11,0
BRDA:38,2,12,1
BRDA:38,3,14,-
BRDA:38,3,15,-
BRDA:38,4,17,-
BRDA:38,4,18,-
BRDA:38,5,20,-
BRDA:38,5,21,-
BRDA:38,6,23,-
BRDA:38,6,24,-
BRDA:39,4294967295,1,1
BRDA:39,4294967295,2,0
BRDA:40,4294967295,1,1
BRDA:40,4294967295,2,0
BRDA:40,0,4,1
BRDA:40,0,5,0
BRDA:40,1,7,1
BRDA:40,1,8,0
BRDA:40,2,11,0
BRDA:40,2,12,1
BRDA:40,3,14,-
BRDA:40,3,15,-
BRDA:40,4,17,-
BRDA:40,4,18,-
BRDA:40,5,20,-
BRDA:40,5,21,-
BRDA:40,6,23,-
BRDA:40,6,24,-
BRDA:43,4294967295,5,1
BRDA:43,4294967295,6,0
BRDA:43,0,8,1
BRDA:43,0,9,0
BRDA:43,1,12,1
BRDA:43,1,13,0
BRDA:46,0,1,1
BRDA:46,0,2,0
BRDA:47,4294967295,2,1
BRDA:47,4294967295,3,0
BRDA:47,0,5,1
BRDA:47,0,6,0
BRDA:47,1,9,0
BRDA:47,1,10,1
BRDA:47,2,12,-
BRDA:47,2,13,-
BRDA:47,3,15,-
BRDA:47,3,16,-
BRDA:47,4,18,-
BRDA:47,4,19,-
BRDA:47,5,21,-
BRDA:47,5,22,-
BRDA:49,4294967295,1,1
BRDA:49,4294967295,2,0
BRDA:50,4294967295,2,1
BRDA:50,4294967295,3,0
BRDA:50,0,5,1
BRDA:50,0,6,0
BRDA:50,1,9,0
BRDA:50,1,10,1
BRDA:50,2,12,-
BRDA:50,2,13,-
BRDA:50,3,15,-
BRDA:50,3,16,-
BRDA:50,4,18,-
BRDA:50,4,19,-
BRDA:50,5,21,-
BRDA:50,5,22,-
BRDA:52,4294967295,1,1
BRDA:52,4294967295,2,0
BRDA:53,4294967295,2,1
BRDA:53,4294967295,3,0
BRDA:53,0,5,1
BRDA:53,0,6,0
BRDA:53,1,9,0
BRDA:53,1,10,1
BRDA:53,2,12,-
BRDA:53,2,13,-
BRDA:53,3,15,-
BRDA:53,3,16,-
BRDA:53,4,18,-
BRDA:53,4,19,-
BRDA:53,5,21,-
BRDA:53,5,22,-
BRDA:56,4294967295,5,1
BRDA:56,4294967295,6,0
BRDA:56,0,8,1
BRDA:56,0,9,0
BRDA:56,1,12,1
BRDA:56,1,13,0
BRDA:62,0,2,1
BRDA:62,0,3,0
BRDA:62,1,6,1
BRDA:62,1,7,0
BRDA:63,4294967295,1,1
BRDA:63,4294967295,2,0
BRDA:64,4294967295,1,1
BRDA:64,4294967295,2,0
BRDA:64,0,4,1
BRDA:64,0,5,0
BRDA:64,1,7,1
BRDA:64,1,8,0
BRDA:64,2,11,0
BRDA:64,2,12,1
BRDA:64,3,14,-
BRDA:64,3,15,-
BRDA:64,4,17,-
BRDA:64,4,18,-
BRDA:64,5,20,-
BRDA:64,5,21,-
BRDA:64,6,23,-
BRDA:64,6,24,-
BRDA:66,4294967295,2,1
BRDA:66,4294967295,3,0
BRDA:66,0,6,1
BRDA:66,0,7,0
BRDA:67,4294967295,1,1
BRDA:67,4294967295,2,0
BRDA:68,4294967295,1,1
BRDA:68,4294967295,2,0
BRDA:68,0,4,1
BRDA:68,0,5,0
BRDA:68,1,7,1
BRDA:68,1,8,0
BRDA:68,2,11,0
BRDA:68,2,12,1
BRDA:68,3,14,-
BRDA:68,3,15,-
BRDA:68,4,17,-
BRDA:68,4,18,-
BRDA:68,5,20,-
BRDA:68,5,21,-
BRDA:68,6,23,-
BRDA:68,6,24,-
BRDA:70,4294967295,2,1
BRDA:70,4294967295,3,0
BRDA:70,0,6,1
BRDA:70,0,7,0
BRDA:71,4294967295,1,1
BRDA:71,4294967295,2,0
BRDA:72,4294967295,1,1
BRDA:72,4294967295,2,0
BRDA:72,0,4,1
BRDA:72,0,5,0
BRDA:72,1,7,1
BRDA:72,1,8,0
BRDA:72,2,11,0
BRDA:72,2,12,1
BRDA:72,3,14,-
BRDA:72,3,15,-
BRDA:72,4,17,-
BRDA:72,4,18,-
BRDA:72,5,20,-
BRDA:72,5,21,-
BRDA:72,6,23,-
BRDA:72,6,24,-
BRDA:74,4294967295,2,1
BRDA:74,4294967295,3,0
BRDA:74,0,6,1
BRDA:74,0,7,0
BRDA:75,4294967295,1,1
BRDA:75,4294967295,2,0
BRDA:76,4294967295,1,1
BRDA:76,4294967295,2,0
BRDA:76,0,4,1
BRDA:76,0,5,0
BRDA:76,1,7,1
BRDA:76,1,8,0
BRDA:76,2,11,0
BRDA:76,2,12,1
BRDA:76,3,14,-
BRDA:76,3,15,-
BRDA:76,4,17,-
BRDA:76,4,18,-
BRDA:76,5,20,-
BRDA:76,5,21,-
BRDA:76,6,23,-
BRDA:76,6,24,-
BRDA:79,4294967295,2,1
BRDA:79,4294967295,3,0
BRDA:79,0,6,1
BRDA:79,0,7,0
BRDA:80,4294967295,1,1
BRDA:80,4294967295,2,0
BRDA:81,4294967295,1,1
BRDA:81,4294967295,2,0
BRDA:81,0,4,1
BRDA:81,0,5,0
BRDA:81,1,7,1
BRDA:81,1,8,0
BRDA:81,2,11,0
BRDA:81,2,12,1
BRDA:81,3,14,-
BRDA:81,3,15,-
BRDA:81,4,17,-
BRDA:81,4,18,-
BRDA:81,5,20,-
BRDA:81,5,21,-
BRDA:81,6,23,-
BRDA:81,6,24,-
BRDA:83,4294967295,2,1
BRDA:83,4294967295,3,0
BRDA:83,0,6,1
BRDA:83,0,7,0
BRDA:84,4294967295,1,1
BRDA:84,4294967295,2,0
BRDA:85,4294967295,1,1
BRDA:85,4294967295,2,0
BRDA:85,0,4,1
BRDA:85,0,5,0
BRDA:85,1,7,1
BRDA:85,1,8,0
BRDA:85,2,11,0
BRDA:85,2,12,1
BRDA:85,3,14,-
BRDA:85,3,15,-
BRDA:85,4,17,-
BRDA:85,4,18,-
BRDA:85,5,20,-
BRDA:85,5,21,-
BRDA:85,6,23,-
BRDA:85,6,24,-
BRDA:87,4294967295,2,1
BRDA:87,4294967295,3,0
BRDA:87,0,6,1
BRDA:87,0,7,0
BRDA:88,4294967295,1,1
BRDA:88,4294967295,2,0
BRDA:89,4294967295,1,1
BRDA:89,4294967295,2,0
BRDA:89,0,4,1
BRDA:89,0,5,0
BRDA:89,1,7,1
BRDA:89,1,8,0
BRDA:89,2,11,0
BRDA:89,2,12,1
BRDA:89,3,14,-
BRDA:89,3,15,-
BRDA:89,4,17,-
BRDA:89,4,18,-
BRDA:89,5,20,-
BRDA:89,5,21,-
BRDA:89,6,23,-
BRDA:89,6,24,-
BRDA:91,4294967295,2,1
BRDA:91,4294967295,3,0
BRDA:91,0,6,1
BRDA:91,0,7,0
BRDA:92,4294967295,1,1
BRDA:92,4294967295,2,0
BRDA:93,4294967295,1,1
BRDA:93,4294967295,2,0
BRDA:93,0,4,1
BRDA:93,0,5,0
BRDA:93,1,7,1
BRDA:93,1,8,0
BRDA:93,2,11,0
BRDA:93,2,12,1
BRDA:93,3,14,-
BRDA:93,3,15,-
BRDA:93,4,17,-
BRDA:93,4,18,-
BRDA:93,5,20,-
BRDA:93,5,21,-
BRDA:93,6,23,-
BRDA:93,6,24,-
BRDA:96,4294967295,2,1
BRDA:96,4294967295,3,0
BRDA:96,0,6,1
BRDA:96,0,7,0
BRDA:97,4294967295,1,1
BRDA:97,4294967295,2,0
BRDA:98,4294967295,1,1
BRDA:98,4294967295,2,0
BRDA:98,0,4,1
BRDA:98,0,5,0
BRDA:98,1,7,1
BRDA:98,1,8,0
BRDA:98,2,11,0
BRDA:98,2,12,1
BRDA:98,3,14,-
BRDA:98,3,15,-
BRDA:98,4,17,-
BRDA:98,4,18,-
BRDA:98,5,20,-
BRDA:98,5,21,-
BRDA:98,6,23,-
BRDA:98,6,24,-
BRDA:100,4294967295,2,1
BRDA:100,4294967295,3,0
BRDA:100,0,6,1
BRDA:100,0,7,0
BRDA:101,4294967295,1,1
BRDA:101,4294967295,2,0
BRDA:102,4294967295,1,1
BRDA:102,4294967295,2,0
BRDA:102,0,4,1
BRDA:102,0,5,0
BRDA:102,1,7,1
BRDA:102,1,8,0
BRDA:102,2,11,0
BRDA:102,2,12,1
BRDA:102,3,14,-
BRDA:102,3,15,-
BRDA:102,4,17,-
BRDA:102,4,18,-
BRDA:102,5,20,-
BRDA:102,5,21,-
BRDA:102,6,23,-
BRDA:102,6,24,-
BRDA:104,4294967295,2,1
BRDA:104,4294967295,3,0
BRDA:104,0,6,1
BRDA:104,0,7,0
BRDA:105,4294967295,1,1
BRDA:105,4294967295,2,0
BRDA:106,4294967295,1,1
BRDA:106,4294967295,2,0
BRDA:106,0,4,1
BRDA:106,0,5,0
BRDA:106,1,7,1
BRDA:106,1,8,0
BRDA:106,2,11,0
BRDA:106,2,12,1
BRDA:106,3,14,-
BRDA:106,3,15,-
BRDA:106,4,17,-
BRDA:106,4,18,-
BRDA:106,5,20,-
BRDA:106,5,21,-
BRDA:106,6,23,-
BRDA:106,6,24,-
BRDA:108,4294967295,2,1
BRDA:108,4294967295,3,0
BRDA:108,0,6,1
BRDA:108,0,7,0
BRDA:109,4294967295,1,1
BRDA:109,4294967295,2,0
BRDA:110,4294967295,1,1
BRDA:110,4294967295,2,0
BRDA:110,0,4,1
BRDA:110,0,5,0
BRDA:110,1,7,1
BRDA:110,1,8,0
BRDA:110,2,11,0
BRDA:110,2,12,1
BRDA:110,3,14,-
BRDA:110,3,15,-
BRDA:110,4,17,-
BRDA:110,4,18,-
BRDA:110,5,20,-
BRDA:110,5,21,-
BRDA:110,6,23,-
BRDA:110,6,24,-
BRDA:112,3,1,1
BRDA:112,3,2,0
BRDA:112,4,3,1
BRDA:112,4,4,0
BRF:420
BRH:134
DA:11,10
DA:14,5
DA:15,5
DA:19,5
DA:21,8
DA:23,1
DA:24,1
DA:26,8
DA:28,1
DA:29,1
DA:30,1
DA:31,1
DA:33,8
DA:35,1
DA:36,1
DA:37,1
DA:38,1
DA:39,1
DA:40,1
DA:41,1
DA:43,8
DA:45,1
DA:46,2
DA:47,1
DA:48,1
DA:49,1
DA:50,1
DA:51,1
DA:52,1
DA:53,1
DA:54,1
DA:56,8
DA:58,1
DA:60,1
DA:62,1
DA:63,1
DA:64,1
DA:65,1
DA:66,1
DA:67,1
DA:68,1
DA:69,1
DA:70,1
DA:71,1
DA:72,1
DA:73,1
DA:74,1
DA:75,1
DA:76,1
DA:77,1
DA:79,1
DA:80,1
DA:81,1
DA:82,1
DA:83,1
DA:84,1
DA:85,1
DA:86,1
DA:87,1
DA:88,1
DA:89,1
DA:90,1
DA:91,1
DA:92,1
DA:93,1
DA:94,1
DA:96,1
DA:97,1
DA:98,1
DA:99,1
DA:100,1
DA:101,1
DA:102,1
DA:103,1
DA:104,1
DA:105,1
DA:106,1
DA:107,1
DA:108,1
DA:109,1
DA:110,1
DA:111,1
DA:112,4
LF:83
LH:83
end_of_record
TN:
SF:/SharedWithWindows/Projects/diginstrument/inc/ConsolidationMethods.h
FN:19,_ZN13Consolidation12AccumulationIfED2Ev
FN:19,_ZN13Consolidation12AccumulationIfED0Ev
FNDA:0,_ZN13Consolidation12AccumulationIfED0Ev
FNDA:0,_ZN13Consolidation12AccumulationIfED2Ev
FNF:2
FNH:0
DA:19,0
LF:1
LH:0
end_of_record
SF:/SharedWithWindows/Projects/diginstrument/inc/Consolidator.h
FN:20,_ZN8DataFlow12ConsolidatorIfN13Consolidation12AccumulationEED0Ev
FN:20,_ZN8DataFlow12ConsolidatorIfN13Consolidation12AccumulationEED2Ev
FN:60,_ZN8DataFlow12ConsolidatorIfN13Consolidation12AccumulationEE3getERKj
FNDA:0,_ZN8DataFlow12ConsolidatorIfN13Consolidation12AccumulationEED0Ev
FNDA:0,_ZN8DataFlow12ConsolidatorIfN13Consolidation12AccumulationEED2Ev
FNDA:0,_ZN8DataFlow12ConsolidatorIfN13Consolidation12AccumulationEE3getERKj
FNF:3
FNH:0
BRDA:61,0,4,-
BRDA:61,0,5,-
BRDA:62,0,1,-
BRDA:62,0,2,-
BRDA:63,0,4,-
BRDA:63,0,5,-
BRF:6
BRH:0
DA:20,0
DA:60,0
DA:61,0
DA:62,0
DA:63,0
DA:65,0
LF:6
LH:0
end_of_record
SF:/SharedWithWindows/Projects/diginstrument/inc/SquareGenerator.h
FN:29,_ZN5Mixer15SquareGeneratorIfED2Ev
FN:29,_ZN5Mixer15SquareGeneratorIfED0Ev
FNDA:0,_ZN5Mixer15SquareGeneratorIfED0Ev
FNDA:4,_ZN5Mixer15SquareGeneratorIfED2Ev
FNF:2
FNH:1
DA:29,8
LF:1
LH:1
end_of_record
SF:/SharedWithWindows/Projects/diginstrument/inc/iConsolidationMethod.h
FN:41,_ZN8DataFlow20iConsolidationMethodIfED0Ev
FN:41,_ZN8DataFlow20iConsolidationMethodIfED2Ev
FNDA:0,_ZN8DataFlow20iConsolidationMethodIfED0Ev
FNDA:0,_ZN8DataFlow20iConsolidationMethodIfED2Ev
FNF:2
FNH:0
DA:41,0
LF:1
LH:0
end_of_record
SF:/SharedWithWindows/Projects/diginstrument/inc/iSource.h
FN:28,_ZN8DataFlow7iSourceIfED2Ev
FN:28,_ZN8DataFlow7iSourceIfED0Ev
FNDA:0,_ZN8DataFlow7iSourceIfED0Ev
FNDA:0,_ZN8DataFlow7iSourceIfED2Ev
FNF:2
FNH:0
DA:28,0
LF:1
LH:0
end_of_record
SF:/SharedWithWindows/Projects/diginstrument/inc/iWaveformGenerator.h
FN:67,_ZN5Mixer18iWaveformGeneratorIfED2Ev
FN:67,_ZN5Mixer18iWaveformGeneratorIfED0Ev
FNDA:0,_ZN5Mixer18iWaveformGeneratorIfED0Ev
FNDA:0,_ZN5Mixer18iWaveformGeneratorIfED2Ev
FNF:2
FNH:0
DA:67,0
LF:1
LH:0
end_of_record
SF:/SharedWithWindows/Projects/diginstrument/mixer_test/square_generator_test.cpp
FN:12,_ZN12_GLOBAL__N_119SquareGeneratorTestD2Ev
FN:15,_ZN12_GLOBAL__N_119SquareGeneratorTest5SetUpEv
FN:16,_ZN12_GLOBAL__N_119SquareGeneratorTest8TearDownEv
FN:20,_ZN12_GLOBAL__N_119SquareGeneratorTestC2Ev
FN:22,_ZN12_GLOBAL__N_137SquareGeneratorTest_getFrequency_TestD2Ev
FN:22,_ZN12_GLOBAL__N_137SquareGeneratorTest_getFrequency_TestC2Ev
FN:22,_ZN12_GLOBAL__N_137SquareGeneratorTest_getFrequency_TestD0Ev
FN:22,_ZN12_GLOBAL__N_137SquareGeneratorTest_getFrequency_Test8TestBodyEv
FN:27,_ZN12_GLOBAL__N_137SquareGeneratorTest_setFrequency_Test8TestBodyEv
FN:27,_ZN12_GLOBAL__N_137SquareGeneratorTest_setFrequency_TestD2Ev
FN:27,_ZN12_GLOBAL__N_137SquareGeneratorTest_setFrequency_TestC2Ev
FN:27,_ZN12_GLOBAL__N_137SquareGeneratorTest_setFrequency_TestD0Ev
FN:34,_ZN12_GLOBAL__N_151SquareGeneratorTest_setFrequencyWithTransition_Test8TestBodyEv
FN:34,_ZN12_GLOBAL__N_151SquareGeneratorTest_setFrequencyWithTransition_TestD0Ev
FN:34,_ZN12_GLOBAL__N_151SquareGeneratorTest_setFrequencyWithTransition_TestC2Ev
FN:34,_ZN12_GLOBAL__N_151SquareGeneratorTest_setFrequencyWithTransition_TestD2Ev
FN:43,_ZN12_GLOBAL__N_132SquareGeneratorTest_getSize_Test8TestBodyEv
FN:43,_ZN12_GLOBAL__N_132SquareGeneratorTest_getSize_TestD0Ev
FN:43,_ZN12_GLOBAL__N_132SquareGeneratorTest_getSize_TestD2Ev
FN:43,_ZN12_GLOBAL__N_132SquareGeneratorTest_getSize_TestC2Ev
FN:55,_GLOBAL__sub_I_square_generator_test.cpp
FN:55,_Z41__static_initialization_and_destruction_0ii
FNDA:4,_ZN12_GLOBAL__N_119SquareGeneratorTestD2Ev
FNDA:4,_ZN12_GLOBAL__N_119SquareGeneratorTest5SetUpEv
FNDA:4,_ZN12_GLOBAL__N_119SquareGeneratorTest8TearDownEv
FNDA:4,_ZN12_GLOBAL__N_119SquareGeneratorTestC2Ev
FNDA:1,_ZN12_GLOBAL__N_137SquareGeneratorTest_getFrequency_TestD0Ev
FNDA:1,_ZN12_GLOBAL__N_137SquareGeneratorTest_getFrequency_TestD2Ev
FNDA:1,_ZN12_GLOBAL__N_137SquareGeneratorTest_getFrequency_Test8TestBodyEv
FNDA:1,_ZN12_GLOBAL__N_137SquareGeneratorTest_getFrequency_TestC2Ev
FNDA:1,_ZN12_GLOBAL__N_137SquareGeneratorTest_setFrequency_TestD0Ev
FNDA:1,_ZN12_GLOBAL__N_137SquareGeneratorTest_setFrequency_TestD2Ev
FNDA:1,_ZN12_GLOBAL__N_137SquareGeneratorTest_setFrequency_Test8TestBodyEv
FNDA:1,_ZN12_GLOBAL__N_137SquareGeneratorTest_setFrequency_TestC2Ev
FNDA:1,_ZN12_GLOBAL__N_151SquareGeneratorTest_setFrequencyWithTransition_TestD0Ev
FNDA:1,_ZN12_GLOBAL__N_151SquareGeneratorTest_setFrequencyWithTransition_TestD2Ev
FNDA:1,_ZN12_GLOBAL__N_151SquareGeneratorTest_setFrequencyWithTransition_Test8TestBodyEv
FNDA:1,_ZN12_GLOBAL__N_151SquareGeneratorTest_setFrequencyWithTransition_TestC2Ev
FNDA:1,_ZN12_GLOBAL__N_132SquareGeneratorTest_getSize_TestD0Ev
FNDA:1,_ZN12_GLOBAL__N_132SquareGeneratorTest_getSize_TestD2Ev
FNDA:1,_ZN12_GLOBAL__N_132SquareGeneratorTest_getSize_Test8TestBodyEv
FNDA:1,_ZN12_GLOBAL__N_132SquareGeneratorTest_getSize_TestC2Ev
FNDA:1,_GLOBAL__sub_I_square_generator_test.cpp
FNDA:1,_Z41__static_initialization_and_destruction_0ii
FNF:22
FNH:22
BRDA:20,1,2,4
BRDA:20,1,3,0
BRDA:22,4294967295,5,1
BRDA:22,4294967295,6,0
BRDA:22,0,8,1
BRDA:22,0,9,0
BRDA:22,1,12,1
BRDA:22,1,13,0
BRDA:24,0,1,1
BRDA:24,0,2,0
BRDA:24,1,4,1
BRDA:24,1,5,0
BRDA:24,2,7,1
BRDA:24,2,8,0
BRDA:24,3,11,0
BRDA:24,3,12,1
BRDA:24,4,14,-
BRDA:24,4,15,-
BRDA:24,5,17,-
BRDA:24,5,18,-
BRDA:24,6,20,-
BRDA:24,6,21,-
BRDA:24,7,23,-
BRDA:24,7,24,-
BRDA:27,4294967295,5,1
BRDA:27,4294967295,6,0
BRDA:27,0,8,1
BRDA:27,0,9,0
BRDA:27,1,12,1
BRDA:27,1,13,0
BRDA:30,0,1,1
BRDA:30,0,2,0
BRDA:31,0,1,1
BRDA:31,0,2,0
BRDA:31,1,4,1
BRDA:31,1,5,0
BRDA:31,2,7,1
BRDA:31,2,8,0
BRDA:31,3,11,0
BRDA:31,3,12,1
BRDA:31,4,14,-
BRDA:31,4,15,-
BRDA:31,5,17,-
BRDA:31,5,18,-
BRDA:31,6,20,-
BRDA:31,6,21,-
BRDA:31,7,23,-
BRDA:31,7,24,-
BRDA:34,4294967295,5,1
BRDA:34,4294967295,6,0
BRDA:34,0,8,1
BRDA:34,0,9,0
BRDA:34,1,12,1
BRDA:34,1,13,0
BRDA:38,0,2,1
BRDA:38,0,3,0
BRDA:38,1,6,1
BRDA:38,1,7,0
BRDA:39,4294967295,1,1
BRDA:39,4294967295,2,0
BRDA:40,4294967295,1,1
BRDA:40,4294967295,2,0
BRDA:40,0,4,1
BRDA:40,0,5,0
BRDA:40,1,7,1
BRDA:40,1,8,0
BRDA:40,2,11,0
BRDA:40,2,12,1
BRDA:40,3,14,-
BRDA:40,3,15,-
BRDA:40,4,17,-
BRDA:40,4,18,-
BRDA:40,5,20,-
BRDA:40,5,21,-
BRDA:40,6,23,-
BRDA:40,6,24,-
BRDA:43,4294967295,5,1
BRDA:43,4294967295,6,0
BRDA:43,0,8,1
BRDA:43,0,9,0
BRDA:43,1,12,1
BRDA:43,1,13,0
BRDA:46,0,1,1
BRDA:46,0,2,0
BRDA:47,4294967295,2,1
BRDA:47,4294967295,3,0
BRDA:47,0,5,1
BRDA:47,0,6,0
BRDA:47,1,9,0
BRDA:47,1,10,1
BRDA:47,2,12,-
BRDA:47,2,13,-
BRDA:47,3,15,-
BRDA:47,3,16,-
BRDA:47,4,18,-
BRDA:47,4,19,-
BRDA:47,5,21,-
BRDA:47,5,22,-
BRDA:49,4294967295,1,1
BRDA:49,4294967295,2,0
BRDA:50,4294967295,2,1
BRDA:50,4294967295,3,0
BRDA:50,0,5,1
BRDA:50,0,6,0
BRDA:50,1,9,0
BRDA:50,1,10,1
BRDA:50,2,12,-
BRDA:50,2,13,-
BRDA:50,3,15,-
BRDA:50,3,16,-
BRDA:50,4,18,-
BRDA:50,4,19,-
BRDA:50,5,21,-
BRDA:50,5,22,-
BRDA:52,4294967295,1,1
BRDA:52,4294967295,2,0
BRDA:53,4294967295,2,1
BRDA:53,4294967295,3,0
BRDA:53,0,5,1
BRDA:53,0,6,0
BRDA:53,1,9,0
BRDA:53,1,10,1
BRDA:53,2,12,-
BRDA:53,2,13,-
BRDA:53,3,15,-
BRDA:53,3,16,-
BRDA:53,4,18,-
BRDA:53,4,19,-
BRDA:53,5,21,-
BRDA:53,5,22,-
BRDA:55,3,1,1
BRDA:55,3,2,0
BRDA:55,4,3,1
BRDA:55,4,4,0
BRF:134
BRH:43
DA:12,8
DA:15,4
DA:16,4
DA:20,4
DA:22,8
DA:24,1
DA:25,1
DA:27,8
DA:29,1
DA:30,1
DA:31,1
DA:32,1
DA:34,8
DA:36,1
DA:37,1
DA:38,1
DA:39,1
DA:40,1
DA:41,1
DA:43,8
DA:45,1
DA:46,2
DA:47,1
DA:48,1
DA:49,1
DA:50,1
DA:51,1
DA:52,1
DA:53,1
DA:54,1
DA:55,4
LF:31
LH:31
end_of_record
TN:
SF:/SharedWithWindows/Projects/diginstrument/mixer_test/test_main.cpp
FN:4,main
FN:18,_GLOBAL__sub_I_main
FN:18,_Z41__static_initialization_and_destruction_0ii
FNDA:1,main
FNDA:1,_GLOBAL__sub_I_main
FNDA:1,_Z41__static_initialization_and_destruction_0ii
FNF:3
FNH:3
BRDA:6,0,0,1
BRDA:6,0,1,0
BRDA:7,0,2,1
BRDA:7,0,3,0
BRDA:7,1,5,1
BRDA:7,1,6,0
BRDA:7,2,9,1
BRDA:7,2,10,0
BRDA:18,3,1,1
BRDA:18,3,2,0
BRDA:18,4,3,1
BRDA:18,4,4,0
BRF:12
BRH:6
DA:4,1
DA:6,1
DA:7,1
DA:8,1
DA:9,1
DA:10,1
DA:11,1
DA:14,0
DA:15,0
DA:16,0
DA:17,1
DA:18,4
LF:12
LH:9
end_of_record
TN:
SF:/SharedWithWindows/Projects/diginstrument/inc/TransitionFunction.h
FN:17,_ZN18TransitionFunctionIfEC2Ev
FN:43,_ZN18TransitionFunctionIfED0Ev
FN:43,_ZN18TransitionFunctionIfED2Ev
FNDA:0,_ZN18TransitionFunctionIfEC2Ev
FNDA:0,_ZN18TransitionFunctionIfED0Ev
FNDA:0,_ZN18TransitionFunctionIfED2Ev
FNF:3
FNH:0
DA:17,0
DA:43,0
LF:2
LH:0
end_of_record
SF:/SharedWithWindows/Projects/diginstrument/inc/TransitionFunctions.h
FN:19,_ZN10Transition6LinearIfED0Ev
FN:19,_ZN10Transition6LinearIfED2Ev
FN:19,_ZN10Transition6LinearIfEC2Ev
FN:21,_ZN10Transition6LinearIfE4initERKfS3_S3_S3_
FN:27,_ZN10Transition6LinearIfEclERKf
FNDA:0,_ZN10Transition6LinearIfED0Ev
FNDA:0,_ZN10Transition6LinearIfED2Ev
FNDA:0,_ZN10Transition6LinearIfEC2Ev
FNDA:0,_ZN10Transition6LinearIfE4initERKfS3_S3_S3_
FNDA:0,_ZN10Transition6LinearIfEclERKf
FNF:5
FNH:0
DA:19,0
DA:21,0
DA:22,0
DA:23,0
DA:24,0
DA:25,0
DA:27,0
DA:28,0
LF:8
LH:0
end_of_record
SF:/SharedWithWindows/Projects/diginstrument/inc/Transitioner.h
FN:20,_ZN12TransitionerIfN10Transition6LinearEED0Ev
FN:20,_ZN12TransitionerIfN10Transition6LinearEED2Ev
FN:30,_ZN12TransitionerIfN10Transition6LinearEE4initERKfS4_S4_
FN:38,_ZN12TransitionerIfN10Transition6LinearEE4stepERKf
FN:58,_ZN12TransitionerIfN10Transition6LinearEEC2ERf
FNDA:318,_ZN12TransitionerIfN10Transition6LinearEED0Ev
FNDA:319,_ZN12TransitionerIfN10Transition6LinearEED2Ev
FNDA:160,_ZN12TransitionerIfN10Transition6LinearEE4initERKfS4_S4_
FNDA:7632068,_ZN12TransitionerIfN10Transition6LinearEE4stepERKf
FNDA:319,_ZN12TransitionerIfN10Transition6LinearEEC2ERf
FNF:5
FNH:5
BRDA:40,0,0,163
BRDA:40,0,1,7631905
BRDA:44,0,0,1
BRDA:44,0,1,7631904
BRDA:58,1,2,319
BRDA:58,1,3,0
BRF:6
BRH:5
DA:20,1274
DA:30,160
DA:31,160
DA:32,160
DA:33,160
DA:34,160
DA:35,160
DA:36,160
DA:38,7632068
DA:39,7632068
DA:40,7632068
DA:41,163
DA:42,163
DA:44,7631905
DA:45,1
DA:46,1
DA:48,7631904
DA:58,319
LF:18
LH:18
end_of_record
SF:/SharedWithWindows/Projects/diginstrument/inc/iTransitioner.h
FN:11,_ZN13iTransitionerIfEC2Ev
FN:33,_ZN13iTransitionerIfED0Ev
FN:33,_ZN13iTransitionerIfED2Ev
FNDA:379,_ZN13iTransitionerIfEC2Ev
FNDA:0,_ZN13iTransitionerIfED0Ev
FNDA:379,_ZN13iTransitionerIfED2Ev
FNF:3
FNH:2
DA:11,379
DA:33,379
LF:2
LH:2
end_of_record
SF:/SharedWithWindows/Projects/diginstrument/mixer_test/transitioner_test.cpp
FN:8,_ZN12_GLOBAL__N_116TransitionerTestD2Ev
FN:11,_ZN12_GLOBAL__N_116TransitionerTest5SetUpEv
FN:12,_ZN12_GLOBAL__N_116TransitionerTest8TearDownEv
FN:14,_ZN12_GLOBAL__N_116TransitionerTestC2Ev
FN:16,_ZN12_GLOBAL__N_131TransitionerTest_worksWell_TestD0Ev
FN:16,_ZN12_GLOBAL__N_131TransitionerTest_worksWell_TestC2Ev
FN:16,_ZN12_GLOBAL__N_131TransitionerTest_worksWell_TestD2Ev
FN:16,_ZN12_GLOBAL__N_131TransitionerTest_worksWell_Test8TestBodyEv
FN:36,_Z41__static_initialization_and_destruction_0ii
FN:36,_GLOBAL__sub_I_transitioner_test.cpp
FNDA:1,_ZN12_GLOBAL__N_116TransitionerTestD2Ev
FNDA:1,_ZN12_GLOBAL__N_116TransitionerTest5SetUpEv
FNDA:1,_ZN12_GLOBAL__N_116TransitionerTest8TearDownEv
FNDA:1,_ZN12_GLOBAL__N_116TransitionerTestC2Ev
FNDA:1,_ZN12_GLOBAL__N_131TransitionerTest_worksWell_TestD0Ev
FNDA:1,_ZN12_GLOBAL__N_131TransitionerTest_worksWell_TestD2Ev
FNDA:1,_ZN12_GLOBAL__N_131TransitionerTest_worksWell_Test8TestBodyEv
FNDA:1,_ZN12_GLOBAL__N_131TransitionerTest_worksWell_TestC2Ev
FNDA:1,_GLOBAL__sub_I_transitioner_test.cpp
FNDA:1,_Z41__static_initialization_and_destruction_0ii
FNF:10
FNH:10
BRDA:16,4294967295,5,1
BRDA:16,4294967295,6,0
BRDA:16,0,8,1
BRDA:16,0,9,0
BRDA:16,1,12,1
BRDA:16,1,13,0
BRDA:19,0,1,1
BRDA:19,0,2,0
BRDA:20,0,1,1
BRDA:20,0,2,0
BRDA:22,0,1,1
BRDA:22,0,2,0
BRDA:22,1,4,1
BRDA:22,1,5,0
BRDA:22,2,8,0
BRDA:22,2,9,1
BRDA:22,3,11,-
BRDA:22,3,12,-
BRDA:22,4,14,-
BRDA:22,4,15,-
BRDA:22,5,17,-
BRDA:22,5,18,-
BRDA:22,6,20,-
BRDA:22,6,21,-
BRDA:23,4294967295,1,1
BRDA:23,4294967295,2,0
BRDA:24,0,1,1
BRDA:24,0,2,0
BRDA:24,1,4,1
BRDA:24,1,5,0
BRDA:24,2,8,0
BRDA:24,2,9,1
BRDA:24,3,11,-
BRDA:24,3,12,-
BRDA:24,4,14,-
BRDA:24,4,15,-
BRDA:24,5,17,-
BRDA:24,5,18,-
BRDA:24,6,20,-
BRDA:24,6,21,-
BRDA:25,4294967295,1,1
BRDA:25,4294967295,2,0
BRDA:26,0,1,1
BRDA:26,0,2,0
BRDA:26,1,4,1
BRDA:26,1,5,0
BRDA:26,2,8,0
BRDA:26,2,9,1
BRDA:26,3,11,-
BRDA:26,3,12,-
BRDA:26,4,14,-
BRDA:26,4,15,-
BRDA:26,5,17,-
BRDA:26,5,18,-
BRDA:26,6,20,-
BRDA:26,6,21,-
BRDA:27,4294967295,1,1
BRDA:27,4294967295,2,0
BRDA:28,0,1,1
BRDA:28,0,2,0
BRDA:28,1,4,1
BRDA:28,1,5,0
BRDA:28,2,8,0
BRDA:28,2,9,1
BRDA:28,3,11,-
BRDA:28,3,12,-
BRDA:28,4,14,-
BRDA:28,4,15,-
BRDA:28,5,17,-
BRDA:28,5,18,-
BRDA:28,6,20,-
BRDA:28,6,21,-
BRDA:29,4294967295,1,1
BRDA:29,4294967295,2,0
BRDA:30,0,1,1
BRDA:30,0,2,0
BRDA:30,1,4,1
BRDA:30,1,5,0
BRDA:30,2,8,0
BRDA:30,2,9,1
BRDA:30,3,11,-
BRDA:30,3,12,-
BRDA:30,4,14,-
BRDA:30,4,15,-
BRDA:30,5,17,-
BRDA:30,5,18,-
BRDA:30,6,20,-
BRDA:30,6,21,-
BRDA:31,4294967295,1,1
BRDA:31,4294967295,2,0
BRDA:32,0,1,1
BRDA:32,0,2,0
BRDA:32,1,4,1
BRDA:32,1,5,0
BRDA:32,2,8,0
BRDA:32,2,9,1
BRDA:32,3,11,-
BRDA:32,3,12,-
BRDA:32,4,14,-
BRDA:32,4,15,-
BRDA:32,5,17,-
BRDA:32,5,18,-
BRDA:32,6,20,-
BRDA:32,6,21,-
BRDA:33,4294967295,1,1
BRDA:33,4294967295,2,0
BRDA:34,0,1,1
BRDA:34,0,2,0
BRDA:34,1,4,1
BRDA:34,1,5,0
BRDA:34,2,8,0
BRDA:34,2,9,1
BRDA:34,3,11,-
BRDA:34,3,12,-
BRDA:34,4,14,-
BRDA:34,4,15,-
BRDA:34,5,17,-
BRDA:34,5,18,-
BRDA:34,6,20,-
BRDA:34,6,21,-
BRDA:36,3,1,1
BRDA:36,3,2,0
BRDA:36,4,3,1
BRDA:36,4,4,0
BRF:124
BRH:34
DA:8,2
DA:11,1
DA:12,1
DA:14,2
DA:16,8
DA:18,1
DA:19,2
DA:20,1
DA:22,1
DA:23,1
DA:24,1
DA:25,1
DA:26,1
DA:27,1
DA:28,1
DA:29,1
DA:30,1
DA:31,1
DA:32,1
DA:33,1
DA:34,1
DA:35,1
DA:36,4
LF:23
LH:23
end_of_record
TN:
SF:/SharedWithWindows/Projects/diginstrument/inc/TransitionFunction.h
FN:17,_ZN18TransitionFunctionIfEC2Ev
FN:43,_ZN18TransitionFunctionIfED2Ev
FN:43,_ZN18TransitionFunctionIfED0Ev
FNDA:383,_ZN18TransitionFunctionIfEC2Ev
FNDA:0,_ZN18TransitionFunctionIfED0Ev
FNDA:383,_ZN18TransitionFunctionIfED2Ev
FNF:3
FNH:2
DA:17,383
DA:43,383
LF:2
LH:2
end_of_record
SF:/SharedWithWindows/Projects/diginstrument/inc/TransitionFunctions.h
FN:19,_ZN10Transition6LinearIfEC2Ev
FN:19,_ZN10Transition6LinearIfED0Ev
FN:19,_ZN10Transition6LinearIfED2Ev
FN:21,_ZN10Transition6LinearIfE4initERKfS3_S3_S3_
FN:27,_ZN10Transition6LinearIfEclERKf
FN:58,_ZN10Transition6EaseIn5CubicIfED0Ev
FN:58,_ZN10Transition6EaseIn5CubicIfEC2Ev
FN:58,_ZN10Transition6EaseIn5CubicIfED2Ev
FN:60,_ZN10Transition6EaseIn5CubicIfE4initERKfS4_S4_S4_
FN:66,_ZN10Transition6EaseIn5CubicIfEclERKf
FN:130,_ZN10Transition7EaseOut5CubicIfED0Ev
FN:130,_ZN10Transition7EaseOut5CubicIfEC2Ev
FN:130,_ZN10Transition7EaseOut5CubicIfED2Ev
FN:132,_ZN10Transition7EaseOut5CubicIfE4initERKfS4_S4_S4_
FN:138,_ZN10Transition7EaseOut5CubicIfEclERKf
FN:204,_ZN10Transition9EaseInOut5CubicIfEC2Ev
FN:204,_ZN10Transition9EaseInOut5CubicIfED2Ev
FN:204,_ZN10Transition9EaseInOut5CubicIfED0Ev
FN:206,_ZN10Transition9EaseInOut5CubicIfE4initERKfS4_S4_S4_
FN:213,_ZN10Transition9EaseInOut5CubicIfEclERKf
FNDA:0,_ZN10Transition6LinearIfED0Ev
FNDA:320,_ZN10Transition6LinearIfED2Ev
FNDA:320,_ZN10Transition6LinearIfEC2Ev
FNDA:161,_ZN10Transition6LinearIfE4initERKfS3_S3_S3_
FNDA:7631908,_ZN10Transition6LinearIfEclERKf
FNDA:0,_ZN10Transition6EaseIn5CubicIfED0Ev
FNDA:6,_ZN10Transition6EaseIn5CubicIfED2Ev
FNDA:6,_ZN10Transition6EaseIn5CubicIfEC2Ev
FNDA:6,_ZN10Transition6EaseIn5CubicIfE4initERKfS4_S4_S4_
FNDA:192059,_ZN10Transition6EaseIn5CubicIfEclERKf
FNDA:0,_ZN10Transition7EaseOut5CubicIfED0Ev
FNDA:6,_ZN10Transition7EaseOut5CubicIfED2Ev
FNDA:6,_ZN10Transition7EaseOut5CubicIfEC2Ev
FNDA:6,_ZN10Transition7EaseOut5CubicIfE4initERKfS4_S4_S4_
FNDA:192059,_ZN10Transition7EaseOut5CubicIfEclERKf
FNDA:0,_ZN10Transition9EaseInOut5CubicIfED0Ev
FNDA:6,_ZN10Transition9EaseInOut5CubicIfED2Ev
FNDA:6,_ZN10Transition9EaseInOut5CubicIfEC2Ev
FNDA:6,_ZN10Transition9EaseInOut5CubicIfE4initERKfS4_S4_S4_
FNDA:192060,_ZN10Transition9EaseInOut5CubicIfEclERKf
FNF:20
FNH:16
DA:19,1280
DA:21,161
DA:22,161
DA:23,161
DA:24,161
DA:25,161
DA:27,7631908
DA:28,7631908
DA:58,24
DA:60,6
DA:61,6
DA:62,6
DA:63,6
DA:64,6
DA:66,192059
DA:67,192059
DA:130,24
DA:132,6
DA:133,6
DA:134,6
DA:135,6
DA:136,6
DA:138,192059
DA:139,192059
DA:204,24
DA:206,6
DA:207,6
DA:208,6
DA:209,6
DA:210,6
DA:211,6
DA:213,192060
DA:214,192060
DA:215,192060
LF:34
LH:34
end_of_record
SF:/SharedWithWindows/Projects/diginstrument/mixer_test/transition_functions_test.cpp
FN:7,_ZN12_GLOBAL__N_123TransitionFunctionsTestD2Ev
FN:10,_ZN12_GLOBAL__N_123TransitionFunctionsTest5SetUpEv
FN:11,_ZN12_GLOBAL__N_123TransitionFunctionsTest8TearDownEv
FN:13,_ZN12_GLOBAL__N_123TransitionFunctionsTestC2Ev
FN:16,_ZN12_GLOBAL__N_135TransitionFunctionsTest_linear_TestC2Ev
FN:16,_ZN12_GLOBAL__N_135TransitionFunctionsTest_linear_TestD2Ev
FN:16,_ZN12_GLOBAL__N_135TransitionFunctionsTest_linear_TestD0Ev
FN:16,_ZN12_GLOBAL__N_135TransitionFunctionsTest_linear_Test8TestBodyEv
FN:27,_ZN12_GLOBAL__N_135TransitionFunctionsTest_easeIn_TestD0Ev
FN:27,_ZN12_GLOBAL__N_135TransitionFunctionsTest_easeIn_Test8TestBodyEv
FN:27,_ZN12_GLOBAL__N_135TransitionFunctionsTest_easeIn_TestC2Ev
FN:27,_ZN12_GLOBAL__N_135TransitionFunctionsTest_easeIn_TestD2Ev
FN:38,_ZN12_GLOBAL__N_136TransitionFunctionsTest_easeOut_TestD2Ev
FN:38,_ZN12_GLOBAL__N_136TransitionFunctionsTest_easeOut_TestD0Ev
FN:38,_ZN12_GLOBAL__N_136TransitionFunctionsTest_easeOut_TestC2Ev
FN:38,_ZN12_GLOBAL__N_136TransitionFunctionsTest_easeOut_Test8TestBodyEv
FN:49,_ZN12_GLOBAL__N_138TransitionFunctionsTest_easeInOut_TestC2Ev
FN:49,_ZN12_GLOBAL__N_138TransitionFunctionsTest_easeInOut_Test8TestBodyEv
FN:49,_ZN12_GLOBAL__N_138TransitionFunctionsTest_easeInOut_TestD0Ev
FN:49,_ZN12_GLOBAL__N_138TransitionFunctionsTest_easeInOut_TestD2Ev
FN:60,_GLOBAL__sub_I_transition_functions_test.cpp
FN:60,_Z41__static_initialization_and_destruction_0ii
FNDA:4,_ZN12_GLOBAL__N_123TransitionFunctionsTestD2Ev
FNDA:4,_ZN12_GLOBAL__N_123TransitionFunctionsTest5SetUpEv
FNDA:4,_ZN12_GLOBAL__N_123TransitionFunctionsTest8TearDownEv
FNDA:4,_ZN12_GLOBAL__N_123TransitionFunctionsTestC2Ev
FNDA:1,_ZN12_GLOBAL__N_135TransitionFunctionsTest_linear_TestD0Ev
FNDA:1,_ZN12_GLOBAL__N_135TransitionFunctionsTest_linear_TestD2Ev
FNDA:1,_ZN12_GLOBAL__N_135TransitionFunctionsTest_linear_Test8TestBodyEv
FNDA:1,_ZN12_GLOBAL__N_135TransitionFunctionsTest_linear_TestC2Ev
FNDA:1,_ZN12_GLOBAL__N_135TransitionFunctionsTest_easeIn_TestD0Ev
FNDA:1,_ZN12_GLOBAL__N_135TransitionFunctionsTest_easeIn_TestD2Ev
FNDA:1,_ZN12_GLOBAL__N_135TransitionFunctionsTest_easeIn_Test8TestBodyEv
FNDA:1,_ZN12_GLOBAL__N_135TransitionFunctionsTest_easeIn_TestC2Ev
FNDA:1,_ZN12_GLOBAL__N_136TransitionFunctionsTest_easeOut_TestD0Ev
FNDA:1,_ZN12_GLOBAL__N_136TransitionFunctionsTest_easeOut_TestD2Ev
FNDA:1,_ZN12_GLOBAL__N_136TransitionFunctionsTest_easeOut_Test8TestBodyEv
FNDA:1,_ZN12_GLOBAL__N_136TransitionFunctionsTest_easeOut_TestC2Ev
FNDA:1,_ZN12_GLOBAL__N_138TransitionFunctionsTest_easeInOut_TestD0Ev
FNDA:1,_ZN12_GLOBAL__N_138TransitionFunctionsTest_easeInOut_TestD2Ev
FNDA:1,_ZN12_GLOBAL__N_138TransitionFunctionsTest_easeInOut_Test8TestBodyEv
FNDA:1,_ZN12_GLOBAL__N_138TransitionFunctionsTest_easeInOut_TestC2Ev
FNDA:1,_GLOBAL__sub_I_transition_functions_test.cpp
FNDA:1,_Z41__static_initialization_and_destruction_0ii
FNF:22
FNH:22
BRDA:16,4294967295,5,1
BRDA:16,4294967295,6,0
BRDA:16,0,8,1
BRDA:16,0,9,0
BRDA:16,1,12,1
BRDA:16,1,13,0
BRDA:18,0,1,1
BRDA:18,0,2,0
BRDA:21,4294967295,1,1
BRDA:21,4294967295,2,0
BRDA:21,0,4,1
BRDA:21,0,5,0
BRDA:21,1,7,1
BRDA:21,1,8,0
BRDA:21,2,11,0
BRDA:21,2,12,1
BRDA:21,3,14,-
BRDA:21,3,15,-
BRDA:21,4,17,-
BRDA:21,4,18,-
BRDA:21,5,20,-
BRDA:21,5,21,-
BRDA:21,6,23,-
BRDA:21,6,24,-
BRDA:22,4294967295,1,1
BRDA:22,4294967295,2,0
BRDA:22,0,4,1
BRDA:22,0,5,0
BRDA:22,1,7,1
BRDA:22,1,8,0
BRDA:22,2,11,0
BRDA:22,2,12,1
BRDA:22,3,14,-
BRDA:22,3,15,-
BRDA:22,4,17,-
BRDA:22,4,18,-
BRDA:22,5,20,-
BRDA:22,5,21,-
BRDA:22,6,23,-
BRDA:22,6,24,-
BRDA:23,4294967295,1,1
BRDA:23,4294967295,2,0
BRDA:23,0,4,1
BRDA:23,0,5,0
BRDA:23,1,7,1
BRDA:23,1,8,0
BRDA:23,2,11,0
BRDA:23,2,12,1
BRDA:23,3,14,-
BRDA:23,3,15,-
BRDA:23,4,17,-
BRDA:23,4,18,-
BRDA:23,5,20,-
BRDA:23,5,21,-
BRDA:23,6,23,-
BRDA:23,6,24,-
BRDA:24,4294967295,1,1
BRDA:24,4294967295,2,0
BRDA:24,0,4,1
BRDA:24,0,5,0
BRDA:24,1,7,1
BRDA:24,1,8,0
BRDA:24,2,11,0
BRDA:24,2,12,1
BRDA:24,3,14,-
BRDA:24,3,15,-
BRDA:24,4,17,-
BRDA:24,4,18,-
BRDA:24,5,20,-
BRDA:24,5,21,-
BRDA:24,6,23,-
BRDA:24,6,24,-
BRDA:27,4294967295,5,1
BRDA:27,4294967295,6,0
BRDA:27,0,8,1
BRDA:27,0,9,0
BRDA:27,1,12,1
BRDA:27,1,13,0
BRDA:29,0,1,1
BRDA:29,0,2,0
BRDA:32,4294967295,1,1
BRDA:32,4294967295,2,0
BRDA:32,0,4,1
BRDA:32,0,5,0
BRDA:32,1,7,1
BRDA:32,1,8,0
BRDA:32,2,11,0
BRDA:32,2,12,1
BRDA:32,3,14,-
BRDA:32,3,15,-
BRDA:32,4,17,-
BRDA:32,4,18,-
BRDA:32,5,20,-
BRDA:32,5,21,-
BRDA:32,6,23,-
BRDA:32,6,24,-
BRDA:33,4294967295,1,1
BRDA:33,4294967295,2,0
BRDA:33,0,4,1
BRDA:33,0,5,0
BRDA:33,1,7,1
BRDA:33,1,8,0
BRDA:33,2,11,0
BRDA:33,2,12,1
BRDA:33,3,14,-
BRDA:33,3,15,-
BRDA:33,4,17,-
BRDA:33,4,18,-
BRDA:33,5,20,-
BRDA:33,5,21,-
BRDA:33,6,23,-
BRDA:33,6,24,-
BRDA:34,4294967295,1,1
BRDA:34,4294967295,2,0
BRDA:34,0,4,1
BRDA:34,0,5,0
BRDA:34,1,7,1
BRDA:34,1,8,0
BRDA:34,2,11,0
BRDA:34,2,12,1
BRDA:34,3,14,-
BRDA:34,3,15,-
BRDA:34,4,17,-
BRDA:34,4,18,-
BRDA:34,5,20,-
BRDA:34,5,21,-
BRDA:34,6,23,-
BRDA:34,6,24,-
BRDA:35,4294967295,1,1
BRDA:35,4294967295,2,0
BRDA:35,0,4,1
BRDA:35,0,5,0
BRDA:35,1,7,1
BRDA:35,1,8,0
BRDA:35,2,11,0
BRDA:35,2,12,1
BRDA:35,3,14,-
BRDA:35,3,15,-
BRDA:35,4,17,-
BRDA:35,4,18,-
BRDA:35,5,20,-
BRDA:35,5,21,-
BRDA:35,6,23,-
BRDA:35,6,24,-
BRDA:38,4294967295,5,1
BRDA:38,4294967295,6,0
BRDA:38,0,8,1
BRDA:38,0,9,0
BRDA:38,1,12,1
BRDA:38,1,13,0
BRDA:40,0,1,1
BRDA:40,0,2,0
BRDA:43,4294967295,1,1
BRDA:43,4294967295,2,0
BRDA:43,0,4,1
BRDA:43,0,5,0
BRDA:43,1,7,1
BRDA:43,1,8,0
BRDA:43,2,11,0
BRDA:43,2,12,1
BRDA:43,3,14,-
BRDA:43,3,15,-
BRDA:43,4,17,-
BRDA:43,4,18,-
BRDA:43,5,20,-
BRDA:43,5,21,-
BRDA:43,6,23,-
BRDA:43,6,24,-
BRDA:44,4294967295,1,1
BRDA:44,4294967295,2,0
BRDA:44,0,4,1
BRDA:44,0,5,0
BRDA:44,1,7,1
BRDA:44,1,8,0
BRDA:44,2,11,0
BRDA:44,2,12,1
BRDA:44,3,14,-
BRDA:44,3,15,-
BRDA:44,4,17,-
BRDA:44,4,18,-
BRDA:44,5,20,-
BRDA:44,5,21,-
BRDA:44,6,23,-
BRDA:44,6,24,-
BRDA:45,4294967295,1,1
BRDA:45,4294967295,2,0
BRDA:45,0,4,1
BRDA:45,0,5,0
BRDA:45,1,7,1
BRDA:45,1,8,0
BRDA:45,2,11,0
BRDA:45,2,12,1
BRDA:45,3,14,-
BRDA:45,3,15,-
BRDA:45,4,17,-
BRDA:45,4,18,-
BRDA:45,5,20,-
BRDA:45,5,21,-
BRDA:45,6,23,-
BRDA:45,6,24,-
BRDA:46,4294967295,1,1
BRDA:46,4294967295,2,0
BRDA:46,0,4,1
BRDA:46,0,5,0
BRDA:46,1,7,1
BRDA:46,1,8,0
BRDA:46,2,11,0
BRDA:46,2,12,1
BRDA:46,3,14,-
BRDA:46,3,15,-
BRDA:46,4,17,-
BRDA:46,4,18,-
BRDA:46,5,20,-
BRDA:46,5,21,-
BRDA:46,6,23,-
BRDA:46,6,24,-
BRDA:49,4294967295,5,1
BRDA:49,4294967295,6,0
BRDA:49,0,8,1
BRDA:49,0,9,0
BRDA:49,1,12,1
BRDA:49,1,13,0
BRDA:51,0,1,1
BRDA:51,0,2,0
BRDA:54,4294967295,1,1
BRDA:54,4294967295,2,0
BRDA:54,0,4,1
BRDA:54,0,5,0
BRDA:54,1,7,1
BRDA:54,1,8,0
BRDA:54,2,11,0
BRDA:54,2,12,1
BRDA:54,3,14,-
BRDA:54,3,15,-
BRDA:54,4,17,-
BRDA:54,4,18,-
BRDA:54,5,20,-
BRDA:54,5,21,-
BRDA:54,6,23,-
BRDA:54,6,24,-
BRDA:55,4294967295,1,1
BRDA:55,4294967295,2,0
BRDA:55,0,4,1
BRDA:55,0,5,0
BRDA:55,1,7,1
BRDA:55,1,8,0
BRDA:55,2,11,0
BRDA:55,2,12,1
BRDA:55,3,14,-
BRDA:55,3,15,-
BRDA:55,4,17,-
BRDA:55,4,18,-
BRDA:55,5,20,-
BRDA:55,5,21,-
BRDA:55,6,23,-
BRDA:55,6,24,-
BRDA:56,4294967295,1,1
BRDA:56,4294967295,2,0
BRDA:56,0,4,1
BRDA:56,0,5,0
BRDA:56,1,7,1
BRDA:56,1,8,0
BRDA:56,2,11,0
BRDA:56,2,12,1
BRDA:56,3,14,-
BRDA:56,3,15,-
BRDA:56,4,17,-
BRDA:56,4,18,-
BRDA:56,5,20,-
BRDA:56,5,21,-
BRDA:56,6,23,-
BRDA:56,6,24,-
BRDA:57,4294967295,1,1
BRDA:57,4294967295,2,0
BRDA:57,0,4,1
BRDA:57,0,5,0
BRDA:57,1,7,1
BRDA:57,1,8,0
BRDA:57,2,11,0
BRDA:57,2,12,1
BRDA:57,3,14,-
BRDA:57,3,15,-
BRDA:57,4,17,-
BRDA:57,4,18,-
BRDA:57,5,20,-
BRDA:57,5,21,-
BRDA:57,6,23,-
BRDA:57,6,24,-
BRDA:58,4294967295,1,1
BRDA:58,4294967295,2,0
BRDA:58,0,4,1
BRDA:58,0,5,0
BRDA:58,1,7,1
BRDA:58,1,8,0
BRDA:58,2,11,0
BRDA:58,2,12,1
BRDA:58,3,14,-
BRDA:58,3,15,-
BRDA:58,4,17,-
BRDA:58,4,18,-
BRDA:58,5,20,-
BRDA:58,5,21,-
BRDA:58,6,23,-
BRDA:58,6,24,-
BRDA:60,3,1,1
BRDA:60,3,2,0
BRDA:60,4,3,1
BRDA:60,4,4,0
BRF:308
BRH:86
DA:7,8
DA:10,4
DA:11,4
DA:13,8
DA:16,8
DA:18,2
DA:19,1
DA:21,1
DA:22,1
DA:23,1
DA:24,1
DA:25,1
DA:27,8
DA:29,2
DA:30,1
DA:32,1
DA:33,1
DA:34,1
DA:35,1
DA:36,1
DA:38,8
DA:40,2
DA:41,1
DA:43,1
DA:44,1
DA:45,1
DA:46,1
DA:47,1
DA:49,8
DA:51,2
DA:52,1
DA:54,1
DA:55,1
DA:56,1
DA:57,1
DA:58,1
DA:59,1
DA:60,4
LF:38
LH:38
end_of_record
TN:
SF:/SharedWithWindows/Projects/diginstrument/inc/ConsolidationMethods.h
FN:19,_ZN13Consolidation12AccumulationIfED0Ev
FN:19,_ZN13Consolidation12AccumulationIfED2Ev
FNDA:0,_ZN13Consolidation12AccumulationIfED0Ev
FNDA:0,_ZN13Consolidation12AccumulationIfED2Ev
FNF:2
FNH:0
DA:19,0
LF:1
LH:0
end_of_record
SF:/SharedWithWindows/Projects/diginstrument/inc/Consolidator.h
FN:20,_ZN8DataFlow12ConsolidatorIfN13Consolidation12AccumulationEED2Ev
FN:20,_ZN8DataFlow12ConsolidatorIfN13Consolidation12AccumulationEED0Ev
FN:60,_ZN8DataFlow12ConsolidatorIfN13Consolidation12AccumulationEE3getERKj
FNDA:0,_ZN8DataFlow12ConsolidatorIfN13Consolidation12AccumulationEED0Ev
FNDA:0,_ZN8DataFlow12ConsolidatorIfN13Consolidation12AccumulationEED2Ev
FNDA:0,_ZN8DataFlow12ConsolidatorIfN13Consolidation12AccumulationEE3getERKj
FNF:3
FNH:0
BRDA:61,0,4,-
BRDA:61,0,5,-
BRDA:62,0,1,-
BRDA:62,0,2,-
BRDA:63,0,4,-
BRDA:63,0,5,-
BRF:6
BRH:0
DA:20,0
DA:60,0
DA:61,0
DA:62,0
DA:63,0
DA:65,0
LF:6
LH:0
end_of_record
SF:/SharedWithWindows/Projects/diginstrument/inc/TriangleGenerator.h
FN:29,_ZN5Mixer17TriangleGeneratorIfED0Ev
FN:29,_ZN5Mixer17TriangleGeneratorIfED2Ev
FNDA:0,_ZN5Mixer17TriangleGeneratorIfED0Ev
FNDA:4,_ZN5Mixer17TriangleGeneratorIfED2Ev
FNF:2
FNH:1
DA:29,8
LF:1
LH:1
end_of_record
SF:/SharedWithWindows/Projects/diginstrument/inc/iConsolidationMethod.h
FN:41,_ZN8DataFlow20iConsolidationMethodIfED2Ev
FN:41,_ZN8DataFlow20iConsolidationMethodIfED0Ev
FNDA:0,_ZN8DataFlow20iConsolidationMethodIfED0Ev
FNDA:0,_ZN8DataFlow20iConsolidationMethodIfED2Ev
FNF:2
FNH:0
DA:41,0
LF:1
LH:0
end_of_record
SF:/SharedWithWindows/Projects/diginstrument/inc/iSource.h
FN:28,_ZN8DataFlow7iSourceIfED0Ev
FN:28,_ZN8DataFlow7iSourceIfED2Ev
FNDA:0,_ZN8DataFlow7iSourceIfED0Ev
FNDA:0,_ZN8DataFlow7iSourceIfED2Ev
FNF:2
FNH:0
DA:28,0
LF:1
LH:0
end_of_record
SF:/SharedWithWindows/Projects/diginstrument/inc/iWaveformGenerator.h
FN:67,_ZN5Mixer18iWaveformGeneratorIfED0Ev
FN:67,_ZN5Mixer18iWaveformGeneratorIfED2Ev
FNDA:0,_ZN5Mixer18iWaveformGeneratorIfED0Ev
FNDA:0,_ZN5Mixer18iWaveformGeneratorIfED2Ev
FNF:2
FNH:0
DA:67,0
LF:1
LH:0
end_of_record
SF:/SharedWithWindows/Projects/diginstrument/mixer_test/triangle_generator_test.cpp
FN:14,_ZN12_GLOBAL__N_121TriangleGeneratorTestD2Ev
FN:17,_ZN12_GLOBAL__N_121TriangleGeneratorTest5SetUpEv
FN:18,_ZN12_GLOBAL__N_121TriangleGeneratorTest8TearDownEv
FN:22,_ZN12_GLOBAL__N_121TriangleGeneratorTestC2Ev
FN:24,_ZN12_GLOBAL__N_139TriangleGeneratorTest_getFrequency_Test8TestBodyEv
FN:24,_ZN12_GLOBAL__N_139TriangleGeneratorTest_getFrequency_TestD0Ev
FN:24,_ZN12_GLOBAL__N_139TriangleGeneratorTest_getFrequency_TestD2Ev
FN:24,_ZN12_GLOBAL__N_139TriangleGeneratorTest_getFrequency_TestC2Ev
FN:29,_ZN12_GLOBAL__N_139TriangleGeneratorTest_setFrequency_TestD0Ev
FN:29,_ZN12_GLOBAL__N_139TriangleGeneratorTest_setFrequency_TestD2Ev
FN:29,_ZN12_GLOBAL__N_139TriangleGeneratorTest_setFrequency_TestC2Ev
FN:29,_ZN12_GLOBAL__N_139TriangleGeneratorTest_setFrequency_Test8TestBodyEv
FN:36,_ZN12_GLOBAL__N_153TriangleGeneratorTest_setFrequencyWithTransition_TestD0Ev
FN:36,_ZN12_GLOBAL__N_153TriangleGeneratorTest_setFrequencyWithTransition_Test8TestBodyEv
FN:36,_ZN12_GLOBAL__N_153TriangleGeneratorTest_setFrequencyWithTransition_TestC2Ev
FN:36,_ZN12_GLOBAL__N_153TriangleGeneratorTest_setFrequencyWithTransition_TestD2Ev
FN:45,_ZN12_GLOBAL__N_134TriangleGeneratorTest_getSize_TestD2Ev
FN:45,_ZN12_GLOBAL__N_134TriangleGeneratorTest_getSize_TestD0Ev
FN:45,_ZN12_GLOBAL__N_134TriangleGeneratorTest_getSize_TestC2Ev
FN:45,_ZN12_GLOBAL__N_134TriangleGeneratorTest_getSize_Test8TestBodyEv
FN:57,_Z41__static_initialization_and_destruction_0ii
FN:57,_GLOBAL__sub_I_triangle_generator_test.cpp
FNDA:4,_ZN12_GLOBAL__N_121TriangleGeneratorTestD2Ev
FNDA:4,_ZN12_GLOBAL__N_121TriangleGeneratorTest5SetUpEv
FNDA:4,_ZN12_GLOBAL__N_121TriangleGeneratorTest8TearDownEv
FNDA:4,_ZN12_GLOBAL__N_121TriangleGeneratorTestC2Ev
FNDA:1,_ZN12_GLOBAL__N_139TriangleGeneratorTest_getFrequency_TestD0Ev
FNDA:1,_ZN12_GLOBAL__N_139TriangleGeneratorTest_getFrequency_TestD2Ev
FNDA:1,_ZN12_GLOBAL__N_139TriangleGeneratorTest_getFrequency_Test8TestBodyEv
FNDA:1,_ZN12_GLOBAL__N_139TriangleGeneratorTest_getFrequency_TestC2Ev
FNDA:1,_ZN12_GLOBAL__N_139TriangleGeneratorTest_setFrequency_TestD0Ev
FNDA:1,_ZN12_GLOBAL__N_139TriangleGeneratorTest_setFrequency_TestD2Ev
FNDA:1,_ZN12_GLOBAL__N_139TriangleGeneratorTest_setFrequency_Test8TestBodyEv
FNDA:1,_ZN12_GLOBAL__N_139TriangleGeneratorTest_setFrequency_TestC2Ev
FNDA:1,_ZN12_GLOBAL__N_153TriangleGeneratorTest_setFrequencyWithTransition_TestD0Ev
FNDA:1,_ZN12_GLOBAL__N_153TriangleGeneratorTest_setFrequencyWithTransition_TestD2Ev
FNDA:1,_ZN12_GLOBAL__N_153TriangleGeneratorTest_setFrequencyWithTransition_Test8TestBodyEv
FNDA:1,_ZN12_GLOBAL__N_153TriangleGeneratorTest_setFrequencyWithTransition_TestC2Ev
FNDA:1,_ZN12_GLOBAL__N_134TriangleGeneratorTest_getSize_TestD0Ev
FNDA:1,_ZN12_GLOBAL__N_134TriangleGeneratorTest_getSize_TestD2Ev
FNDA:1,_ZN12_GLOBAL__N_134TriangleGeneratorTest_getSize_Test8TestBodyEv
FNDA:1,_ZN12_GLOBAL__N_134TriangleGeneratorTest_getSize_TestC2Ev
FNDA:1,_GLOBAL__sub_I_triangle_generator_test.cpp
FNDA:1,_Z41__static_initialization_and_destruction_0ii
FNF:22
FNH:22
BRDA:22,1,2,4
BRDA:22,1,3,0
BRDA:24,4294967295,5,1
BRDA:24,4294967295,6,0
BRDA:24,0,8,1
BRDA:24,0,9,0
BRDA:24,1,12,1
BRDA:24,1,13,0
BRDA:26,0,1,1
BRDA:26,0,2,0
BRDA:26,1,4,1
BRDA:26,1,5,0
BRDA:26,2,7,1
BRDA:26,2,8,0
BRDA:26,3,11,0
BRDA:26,3,12,1
BRDA:26,4,14,-
BRDA:26,4,15,-
BRDA:26,5,17,-
BRDA:26,5,18,-
BRDA:26,6,20,-
BRDA:26,6,21,-
BRDA:26,7,23,-
BRDA:26,7,24,-
BRDA:29,4294967295,5,1
BRDA:29,4294967295,6,0
BRDA:29,0,8,1
BRDA:29,0,9,0
BRDA:29,1,12,1
BRDA:29,1,13,0
BRDA:32,0,1,1
BRDA:32,0,2,0
BRDA:33,0,1,1
BRDA:33,0,2,0
BRDA:33,1,4,1
BRDA:33,1,5,0
BRDA:33,2,7,1
BRDA:33,2,8,0
BRDA:33,3,11,0
BRDA:33,3,12,1
BRDA:33,4,14,-
BRDA:33,4,15,-
BRDA:33,5,17,-
BRDA:33,5,18,-
BRDA:33,6,20,-
BRDA:33,6,21,-
BRDA:33,7,23,-
BRDA:33,7,24,-
BRDA:36,4294967295,5,1
BRDA:36,4294967295,6,0
BRDA:36,0,8,1
BRDA:36,0,9,0
BRDA:36,1,12,1
BRDA:36,1,13,0
BRDA:40,0,2,1
BRDA:40,0,3,0
BRDA:40,1,6,1
BRDA:40,1,7,0
BRDA:41,4294967295,1,1
BRDA:41,4294967295,2,0
BRDA:42,4294967295,1,1
BRDA:42,4294967295,2,0
BRDA:42,0,4,1
BRDA:42,0,5,0
BRDA:42,1,7,1
BRDA:42,1,8,0
BRDA:42,2,11,0
BRDA:42,2,12,1
BRDA:42,3,14,-
BRDA:42,3,15,-
BRDA:42,4,17,-
BRDA:42,4,18,-
BRDA:42,5,20,-
BRDA:42,5,21,-
BRDA:42,6,23,-
BRDA:42,6,24,-
BRDA:45,4294967295,5,1
BRDA:45,4294967295,6,0
BRDA:45,0,8,1
BRDA:45,0,9,0
BRDA:45,1,12,1
BRDA:45,1,13,0
BRDA:48,0,1,1
BRDA:48,0,2,0
BRDA:49,4294967295,2,1
BRDA:49,4294967295,3,0
BRDA:49,0,5,1
BRDA:49,0,6,0
BRDA:49,1,9,0
BRDA:49,1,10,1
BRDA:49,2,12,-
BRDA:49,2,13,-
BRDA:49,3,15,-
BRDA:49,3,16,-
BRDA:49,4,18,-
BRDA:49,4,19,-
BRDA:49,5,21,-
BRDA:49,5,22,-
BRDA:51,4294967295,1,1
BRDA:51,4294967295,2,0
BRDA:52,4294967295,2,1
BRDA:52,4294967295,3,0
BRDA:52,0,5,1
BRDA:52,0,6,0
BRDA:52,1,9,0
BRDA:52,1,10,1
BRDA:52,2,12,-
BRDA:52,2,13,-
BRDA:52,3,15,-
BRDA:52,3,16,-
BRDA:52,4,18,-
BRDA:52,4,19,-
BRDA:52,5,21,-
BRDA:52,5,22,-
BRDA:54,4294967295,1,1
BRDA:54,4294967295,2,0
BRDA:55,4294967295,2,1
BRDA:55,4294967295,3,0
BRDA:55,0,5,1
BRDA:55,0,6,0
BRDA:55,1,9,0
BRDA:55,1,10,1
BRDA:55,2,12,-
BRDA:55,2,13,-
BRDA:55,3,15,-
BRDA:55,3,16,-
BRDA:55,4,18,-
BRDA:55,4,19,-
BRDA:55,5,21,-
BRDA:55,5,22,-
BRDA:57,3,1,1
BRDA:57,3,2,0
BRDA:57,4,3,1
BRDA:57,4,4,0
BRF:134
BRH:43
DA:14,8
DA:17,4
DA:18,4
DA:22,4
DA:24,8
DA:26,1
DA:27,1
DA:29,8
DA:31,1
DA:32,1
DA:33,1
DA:34,1
DA:36,8
DA:38,1
DA:39,1
DA:40,1
DA:41,1
DA:42,1
DA:43,1
DA:45,8
DA:47,1
DA:48,2
DA:49,1
DA:50,1
DA:51,1
DA:52,1
DA:53,1
DA:54,1
DA:55,1
DA:56,1
DA:57,4
LF:31
LH:31
end_of_record
TN:
SF:/SharedWithWindows/Projects/diginstrument/inc/RepeatingBuffer.h
FN:15,_ZN8DataFlow15RepeatingBufferIfED0Ev
FN:15,_ZN8DataFlow15RepeatingBufferIfED2Ev
FNDA:0,_ZN8DataFlow15RepeatingBufferIfED0Ev
FNDA:0,_ZN8DataFlow15RepeatingBufferIfED2Ev
FNF:2
FNH:0
DA:15,0
LF:1
LH:0
end_of_record
SF:/SharedWithWindows/Projects/diginstrument/inc/TransitionFunction.h
FN:17,_ZN18TransitionFunctionIfEC2Ev
FN:43,_ZN18TransitionFunctionIfED2Ev
FN:43,_ZN18TransitionFunctionIfED0Ev
FNDA:0,_ZN18TransitionFunctionIfEC2Ev
FNDA:0,_ZN18TransitionFunctionIfED0Ev
FNDA:0,_ZN18TransitionFunctionIfED2Ev
FNF:3
FNH:0
DA:17,0
DA:43,0
LF:2
LH:0
end_of_record
SF:/SharedWithWindows/Projects/diginstrument/inc/TransitionFunctions.h
FN:19,_ZN10Transition6LinearIfEC2Ev
FN:19,_ZN10Transition6LinearIfED2Ev
FN:19,_ZN10Transition6LinearIfED0Ev
FN:21,_ZN10Transition6LinearIfE4initERKfS3_S3_S3_
FN:27,_ZN10Transition6LinearIfEclERKf
FN:42,_ZN10Transition6EaseIn9QuadraticIfED0Ev
FN:42,_ZN10Transition6EaseIn9QuadraticIfED2Ev
FN:42,_ZN10Transition6EaseIn9QuadraticIfEC2Ev
FN:44,_ZN10Transition6EaseIn9QuadraticIfE4initERKfS4_S4_S4_
FN:50,_ZN10Transition6EaseIn9QuadraticIfEclERKf
FN:58,_ZN10Transition6EaseIn5CubicIfEC2Ev
FN:58,_ZN10Transition6EaseIn5CubicIfED2Ev
FN:58,_ZN10Transition6EaseIn5CubicIfED0Ev
FN:60,_ZN10Transition6EaseIn5CubicIfE4initERKfS4_S4_S4_
FN:66,_ZN10Transition6EaseIn5CubicIfEclERKf
FN:74,_ZN10Transition6EaseIn7QuarticIfED0Ev
FN:74,_ZN10Transition6EaseIn7QuarticIfED2Ev
FN:74,_ZN10Transition6EaseIn7QuarticIfEC2Ev
FN:76,_ZN10Transition6EaseIn7QuarticIfE4initERKfS4_S4_S4_
FN:82,_ZN10Transition6EaseIn7QuarticIfEclERKf
FN:89,_ZN10Transition6EaseIn7QuinticIfED0Ev
FN:89,_ZN10Transition6EaseIn7QuinticIfEC2Ev
FN:89,_ZN10Transition6EaseIn7QuinticIfED2Ev
FN:91,_ZN10Transition6EaseIn7QuinticIfE4initERKfS4_S4_S4_
FN:97,_ZN10Transition6EaseIn7QuinticIfEclERKf
FN:114,_ZN10Transition7EaseOut9QuadraticIfEC2Ev
FN:114,_ZN10Transition7EaseOut9QuadraticIfED0Ev
FN:114,_ZN10Transition7EaseOut9QuadraticIfED2Ev
FN:116,_ZN10Transition7EaseOut9QuadraticIfE4initERKfS4_S4_S4_
FN:122,_ZN10Transition7EaseOut9QuadraticIfEclERKf
FN:130,_ZN10Transition7EaseOut5CubicIfED0Ev
FN:130,_ZN10Transition7EaseOut5CubicIfED2Ev
FN:130,_ZN10Transition7EaseOut5CubicIfEC2Ev
FN:132,_ZN10Transition7EaseOut5CubicIfE4initERKfS4_S4_S4_
FN:138,_ZN10Transition7EaseOut5CubicIfEclERKf
FN:146,_ZN10Transition7EaseOut7QuarticIfED0Ev
FN:146,_ZN10Transition7EaseOut7QuarticIfED2Ev
FN:146,_ZN10Transition7EaseOut7QuarticIfEC2Ev
FN:148,_ZN10Transition7EaseOut7QuarticIfE4initERKfS4_S4_S4_
FN:154,_ZN10Transition7EaseOut7QuarticIfEclERKf
FN:162,_ZN10Transition7EaseOut7QuinticIfEC2Ev
FN:162,_ZN10Transition7EaseOut7QuinticIfED2Ev
FN:162,_ZN10Transition7EaseOut7QuinticIfED0Ev
FN:164,_ZN10Transition7EaseOut7QuinticIfE4initERKfS4_S4_S4_
FN:170,_ZN10Transition7EaseOut7QuinticIfEclERKf
FN:186,_ZN10Transition9EaseInOut9QuadraticIfEC2Ev
FN:186,_ZN10Transition9EaseInOut9QuadraticIfED2Ev
FN:186,_ZN10Transition9EaseInOut9QuadraticIfED0Ev
FN:188,_ZN10Transition9EaseInOut9QuadraticIfE4initERKfS4_S4_S4_
FN:195,_ZN10Transition9EaseInOut9QuadraticIfEclERKf
FN:204,_ZN10Transition9EaseInOut5CubicIfEC2Ev
FN:204,_ZN10Transition9EaseInOut5CubicIfED2Ev
FN:204,_ZN10Transition9EaseInOut5CubicIfED0Ev
FN:206,_ZN10Transition9EaseInOut5CubicIfE4initERKfS4_S4_S4_
FN:213,_ZN10Transition9EaseInOut5CubicIfEclERKf
FN:222,_ZN10Transition9EaseInOut7QuarticIfEC2Ev
FN:222,_ZN10Transition9EaseInOut7QuarticIfED0Ev
FN:222,_ZN10Transition9EaseInOut7QuarticIfED2Ev
FN:224,_ZN10Transition9EaseInOut7QuarticIfE4initERKfS4_S4_S4_
FN:231,_ZN10Transition9EaseInOut7QuarticIfEclERKf
FN:240,_ZN10Transition9EaseInOut7QuinticIfED0Ev
FN:240,_ZN10Transition9EaseInOut7QuinticIfED2Ev
FN:240,_ZN10Transition9EaseInOut7QuinticIfEC2Ev
FN:242,_ZN10Transition9EaseInOut7QuinticIfE4initERKfS4_S4_S4_
FN:249,_ZN10Transition9EaseInOut7QuinticIfEclERKf
FNDA:0,_ZN10Transition6LinearIfED0Ev
FNDA:0,_ZN10Transition6LinearIfED2Ev
FNDA:0,_ZN10Transition6LinearIfEC2Ev
FNDA:0,_ZN10Transition6LinearIfE4initERKfS3_S3_S3_
FNDA:0,_ZN10Transition6LinearIfEclERKf
FNDA:0,_ZN10Transition6EaseIn9QuadraticIfED0Ev
FNDA:5,_ZN10Transition6EaseIn9QuadraticIfED2Ev
FNDA:5,_ZN10Transition6EaseIn9QuadraticIfEC2Ev
FNDA:5,_ZN10Transition6EaseIn9QuadraticIfE4initERKfS4_S4_S4_
FNDA:192055,_ZN10Transition6EaseIn9QuadraticIfEclERKf
FNDA:0,_ZN10Transition6EaseIn5CubicIfED0Ev
FNDA:0,_ZN10Transition6EaseIn5CubicIfED2Ev
FNDA:0,_ZN10Transition6EaseIn5CubicIfEC2Ev
FNDA:0,_ZN10Transition6EaseIn5CubicIfE4initERKfS4_S4_S4_
FNDA:0,_ZN10Transition6EaseIn5CubicIfEclERKf
FNDA:0,_ZN10Transition6EaseIn7QuarticIfED0Ev
FNDA:5,_ZN10Transition6EaseIn7QuarticIfED2Ev
FNDA:5,_ZN10Transition6EaseIn7QuarticIfEC2Ev
FNDA:5,_ZN10Transition6EaseIn7QuarticIfE4initERKfS4_S4_S4_
FNDA:192055,_ZN10Transition6EaseIn7QuarticIfEclERKf
FNDA:0,_ZN10Transition6EaseIn7QuinticIfED0Ev
FNDA:5,_ZN10Transition6EaseIn7QuinticIfED2Ev
FNDA:5,_ZN10Transition6EaseIn7QuinticIfEC2Ev
FNDA:5,_ZN10Transition6EaseIn7QuinticIfE4initERKfS4_S4_S4_
FNDA:192055,_ZN10Transition6EaseIn7QuinticIfEclERKf
FNDA:0,_ZN10Transition7EaseOut9QuadraticIfED0Ev
FNDA:5,_ZN10Transition7EaseOut9QuadraticIfED2Ev
FNDA:5,_ZN10Transition7EaseOut9QuadraticIfEC2Ev
FNDA:5,_ZN10Transition7EaseOut9QuadraticIfE4initERKfS4_S4_S4_
FNDA:192055,_ZN10Transition7EaseOut9QuadraticIfEclERKf
FNDA:0,_ZN10Transition7EaseOut5CubicIfED0Ev
FNDA:0,_ZN10Transition7EaseOut5CubicIfED2Ev
FNDA:0,_ZN10Transition7EaseOut5CubicIfEC2Ev
FNDA:0,_ZN10Transition7EaseOut5CubicIfE4initERKfS4_S4_S4_
FNDA:0,_ZN10Transition7EaseOut5CubicIfEclERKf
FNDA:0,_ZN10Transition7EaseOut7QuarticIfED0Ev
FNDA:5,_ZN10Transition7EaseOut7QuarticIfED2Ev
FNDA:5,_ZN10Transition7EaseOut7QuarticIfEC2Ev
FNDA:5,_ZN10Transition7EaseOut7QuarticIfE4initERKfS4_S4_S4_
FNDA:192055,_ZN10Transition7EaseOut7QuarticIfEclERKf
FNDA:0,_ZN10Transition7EaseOut7QuinticIfED0Ev
FNDA:5,_ZN10Transition7EaseOut7QuinticIfED2Ev
FNDA:5,_ZN10Transition7EaseOut7QuinticIfEC2Ev
FNDA:5,_ZN10Transition7EaseOut7QuinticIfE4initERKfS4_S4_S4_
FNDA:192055,_ZN10Transition7EaseOut7QuinticIfEclERKf
FNDA:0,_ZN10Transition9EaseInOut9QuadraticIfED0Ev
FNDA:5,_ZN10Transition9EaseInOut9QuadraticIfED2Ev
FNDA:5,_ZN10Transition9EaseInOut9QuadraticIfEC2Ev
FNDA:5,_ZN10Transition9EaseInOut9QuadraticIfE4initERKfS4_S4_S4_
FNDA:192055,_ZN10Transition9EaseInOut9QuadraticIfEclERKf
FNDA:0,_ZN10Transition9EaseInOut5CubicIfED0Ev
FNDA:0,_ZN10Transition9EaseInOut5CubicIfED2Ev
FNDA:0,_ZN10Transition9EaseInOut5CubicIfEC2Ev
FNDA:0,_ZN10Transition9EaseInOut5CubicIfE4initERKfS4_S4_S4_
FNDA:0,_ZN10Transition9EaseInOut5CubicIfEclERKf
FNDA:0,_ZN10Transition9EaseInOut7QuarticIfED0Ev
FNDA:5,_ZN10Transition9EaseInOut7QuarticIfED2Ev
FNDA:5,_ZN10Transition9EaseInOut7QuarticIfEC2Ev
FNDA:5,_ZN10Transition9EaseInOut7QuarticIfE4initERKfS4_S4_S4_
FNDA:192055,_ZN10Transition9EaseInOut7QuarticIfEclERKf
FNDA:0,_ZN10Transition9EaseInOut7QuinticIfED0Ev
FNDA:5,_ZN10Transition9EaseInOut7QuinticIfED2Ev
FNDA:5,_ZN10Transition9EaseInOut7QuinticIfEC2Ev
FNDA:5,_ZN10Transition9EaseInOut7QuinticIfE4initERKfS4_S4_S4_
FNDA:192055,_ZN10Transition9EaseInOut7QuinticIfEclERKf
FNF:65
FNH:36
DA:19,0
DA:21,0
DA:22,0
DA:23,0
DA:24,0
DA:25,0
DA:27,0
DA:28,0
DA:42,20
DA:44,5
DA:45,5
DA:46,5
DA:47,5
DA:48,5
DA:50,192055
DA:51,192055
DA:58,0
DA:60,0
DA:61,0
DA:62,0
DA:63,0
DA:64,0
DA:66,0
DA:67,0
DA:74,20
DA:76,5
DA:77,5
DA:78,5
DA:79,5
DA:80,5
DA:82,192055
DA:83,192055
DA:89,20
DA:91,5
DA:92,5
DA:93,5
DA:94,5
DA:95,5
DA:97,192055
DA:98,192055
DA:114,20
DA:116,5
DA:117,5
DA:118,5
DA:119,5
DA:120,5
DA:122,192055
DA:123,192055
DA:130,0
DA:132,0
DA:133,0
DA:134,0
DA:135,0
DA:136,0
DA:138,0
DA:139,0
DA:146,20
DA:148,5
DA:149,5
DA:150,5
DA:151,5
DA:152,5
DA:154,192055
DA:155,192055
DA:162,20
DA:164,5
DA:165,5
DA:166,5
DA:167,5
DA:168,5
DA:170,192055
DA:171,192055
DA:186,20
DA:188,5
DA:189,5
DA:190,5
DA:191,5
DA:192,5
DA:193,5
DA:195,192055
DA:196,192055
DA:197,192055
DA:204,0
DA:206,0
DA:207,0
DA:208,0
DA:209,0
DA:210,0
DA:211,0
DA:213,0
DA:214,0
DA:215,0
DA:222,20
DA:224,5
DA:225,5
DA:226,5
DA:227,5
DA:228,5
DA:229,5
DA:231,192055
DA:232,192055
DA:233,192055
DA:240,20
DA:242,5
DA:243,5
DA:244,5
DA:245,5
DA:246,5
DA:247,5
DA:249,192055
DA:250,192055
DA:251,192055
LF:112
LH:78
end_of_record
SF:/SharedWithWindows/Projects/diginstrument/inc/Transitioner.h
FN:20,_ZN12TransitionerIfN10Transition6EaseIn7QuarticEED0Ev
FN:20,_ZN12TransitionerIfN10Transition9EaseInOut5CubicEED2Ev
FN:20,_ZN12TransitionerIfN10Transition7EaseOut9QuadraticEED2Ev
FN:20,_ZN12TransitionerIfN10Transition7EaseOut7QuinticEED2Ev
FN:20,_ZN12TransitionerIfN10Transition6EaseIn7QuinticEED2Ev
FN:20,_ZN12TransitionerIfN10Transition6EaseIn9QuadraticEED2Ev
FN:20,_ZN12TransitionerIfN10Transition6EaseIn5CubicEED0Ev
FN:20,_ZN12TransitionerIfN10Transition7EaseOut7QuinticEED0Ev
FN:20,_ZN12TransitionerIfN10Transition9EaseInOut7QuarticEED2Ev
FN:20,_ZN12TransitionerIfN10Transition6LinearEED2Ev
FN:20,_ZN12TransitionerIfN10Transition6EaseIn5CubicEED2Ev
FN:20,_ZN12TransitionerIfN10Transition9EaseInOut5CubicEED0Ev
FN:20,_ZN12TransitionerIfN10Transition9EaseInOut7QuinticEED0Ev
FN:20,_ZN12TransitionerIfN10Transition6EaseIn7QuinticEED0Ev
FN:20,_ZN12TransitionerIfN10Transition9EaseInOut7QuarticEED0Ev
FN:20,_ZN12TransitionerIfN10Transition7EaseOut7QuarticEED2Ev
FN:20,_ZN12TransitionerIfN10Transition9EaseInOut9QuadraticEED2Ev
FN:20,_ZN12TransitionerIfN10Transition6EaseIn7QuarticEED2Ev
FN:20,_ZN12TransitionerIfN10Transition6LinearEED0Ev
FN:20,_ZN12TransitionerIfN10Transition7EaseOut9QuadraticEED0Ev
FN:20,_ZN12TransitionerIfN10Transition9EaseInOut9QuadraticEED0Ev
FN:20,_ZN12TransitionerIfN10Transition9EaseInOut7QuinticEED2Ev
FN:20,_ZN12TransitionerIfN10Transition7EaseOut5CubicEED2Ev
FN:20,_ZN12TransitionerIfN10Transition6EaseIn9QuadraticEED0Ev
FN:20,_ZN12TransitionerIfN10Transition7EaseOut5CubicEED0Ev
FN:20,_ZN12TransitionerIfN10Transition7EaseOut7QuarticEED0Ev
FN:30,_ZN12TransitionerIfN10Transition6EaseIn7QuarticEE4initERKfS5_S5_
FN:30,_ZN12TransitionerIfN10Transition7EaseOut7QuarticEE4initERKfS5_S5_
FN:30,_ZN12TransitionerIfN10Transition7EaseOut9QuadraticEE4initERKfS5_S5_
FN:30,_ZN12TransitionerIfN10Transition7EaseOut5CubicEE4initERKfS5_S5_
FN:30,_ZN12TransitionerIfN10Transition9EaseInOut7QuinticEE4initERKfS5_S5_
FN:30,_ZN12TransitionerIfN10Transition6EaseIn5CubicEE4initERKfS5_S5_
FN:30,_ZN12TransitionerIfN10Transition7EaseOut7QuinticEE4initERKfS5_S5_
FN:30,_ZN12TransitionerIfN10Transition6LinearEE4initERKfS4_S4_
FN:30,_ZN12TransitionerIfN10Transition9EaseInOut7QuarticEE4initERKfS5_S5_
FN:30,_ZN12TransitionerIfN10Transition9EaseInOut5CubicEE4initERKfS5_S5_
FN:30,_ZN12TransitionerIfN10Transition9EaseInOut9QuadraticEE4initERKfS5_S5_
FN:30,_ZN12TransitionerIfN10Transition6EaseIn7QuinticEE4initERKfS5_S5_
FN:30,_ZN12TransitionerIfN10Transition6EaseIn9QuadraticEE4initERKfS5_S5_
FN:38,_ZN12TransitionerIfN10Transition7EaseOut9QuadraticEE4stepERKf
FN:38,_ZN12TransitionerIfN10Transition7EaseOut7QuarticEE4stepERKf
FN:38,_ZN12TransitionerIfN10Transition6EaseIn5CubicEE4stepERKf
FN:38,_ZN12TransitionerIfN10Transition6EaseIn7QuarticEE4stepERKf
FN:38,_ZN12TransitionerIfN10Transition9EaseInOut7QuinticEE4stepERKf
FN:38,_ZN12TransitionerIfN10Transition9EaseInOut7QuarticEE4stepERKf
FN:38,_ZN12TransitionerIfN10Transition9EaseInOut5CubicEE4stepERKf
FN:38,_ZN12TransitionerIfN10Transition6EaseIn9QuadraticEE4stepERKf
FN:38,_ZN12TransitionerIfN10Transition7EaseOut7QuinticEE4stepERKf
FN:38,_ZN12TransitionerIfN10Transition6EaseIn7QuinticEE4stepERKf
FN:38,_ZN12TransitionerIfN10Transition7EaseOut5CubicEE4stepERKf
FN:38,_ZN12TransitionerIfN10Transition6LinearEE4stepERKf
FN:38,_ZN12TransitionerIfN10Transition9EaseInOut9QuadraticEE4stepERKf
FN:58,_ZN12TransitionerIfN10Transition6EaseIn5CubicEEC2ERf
FN:58,_ZN12TransitionerIfN10Transition6EaseIn7QuarticEEC2ERf
FN:58,_ZN12TransitionerIfN10Transition7EaseOut7QuinticEEC2ERf
FN:58,_ZN12TransitionerIfN10Transition6EaseIn7QuinticEEC2ERf
FN:58,_ZN12TransitionerIfN10Transition7EaseOut7QuarticEEC2ERf
FN:58,_ZN12TransitionerIfN10Transition7EaseOut9QuadraticEEC2ERf
FN:58,_ZN12TransitionerIfN10Transition7EaseOut5CubicEEC2ERf
FN:58,_ZN12TransitionerIfN10Transition9EaseInOut7QuarticEEC2ERf
FN:58,_ZN12TransitionerIfN10Transition9EaseInOut5CubicEEC2ERf
FN:58,_ZN12TransitionerIfN10Transition9EaseInOut9QuadraticEEC2ERf
FN:58,_ZN12TransitionerIfN10Transition9EaseInOut7QuinticEEC2ERf
FN:58,_ZN12TransitionerIfN10Transition6EaseIn9QuadraticEEC2ERf
FN:58,_ZN12TransitionerIfN10Transition6LinearEEC2ERf
FNDA:5,_ZN12TransitionerIfN10Transition7EaseOut7QuinticEED0Ev
FNDA:5,_ZN12TransitionerIfN10Transition7EaseOut7QuinticEED2Ev
FNDA:5,_ZN12TransitionerIfN10Transition6EaseIn7QuinticEED0Ev
FNDA:5,_ZN12TransitionerIfN10Transition6EaseIn7QuinticEED2Ev
FNDA:5,_ZN12TransitionerIfN10Transition9EaseInOut7QuinticEED0Ev
FNDA:5,_ZN12TransitionerIfN10Transition9EaseInOut7QuinticEED2Ev
FNDA:5,_ZN12TransitionerIfN10Transition7EaseOut7QuarticEED0Ev
FNDA:5,_ZN12TransitionerIfN10Transition7EaseOut7QuarticEED2Ev
FNDA:5,_ZN12TransitionerIfN10Transition6EaseIn7QuarticEED0Ev
FNDA:5,_ZN12TransitionerIfN10Transition6EaseIn7QuarticEED2Ev
FNDA:5,_ZN12TransitionerIfN10Transition9EaseInOut7QuarticEED0Ev
FNDA:5,_ZN12TransitionerIfN10Transition9EaseInOut7QuarticEED2Ev
FNDA:5,_ZN12TransitionerIfN10Transition7EaseOut5CubicEED0Ev
FNDA:5,_ZN12TransitionerIfN10Transition7EaseOut5CubicEED2Ev
FNDA:5,_ZN12TransitionerIfN10Transition6EaseIn5CubicEED0Ev
FNDA:5,_ZN12TransitionerIfN10Transition6EaseIn5CubicEED2Ev
FNDA:5,_ZN12TransitionerIfN10Transition9EaseInOut5CubicEED0Ev
FNDA:5,_ZN12TransitionerIfN10Transition9EaseInOut5CubicEED2Ev
FNDA:5,_ZN12TransitionerIfN10Transition7EaseOut9QuadraticEED0Ev
FNDA:5,_ZN12TransitionerIfN10Transition7EaseOut9QuadraticEED2Ev
FNDA:5,_ZN12TransitionerIfN10Transition6EaseIn9QuadraticEED0Ev
FNDA:5,_ZN12TransitionerIfN10Transition6EaseIn9QuadraticEED2Ev
FNDA:5,_ZN12TransitionerIfN10Transition9EaseInOut9QuadraticEED0Ev
FNDA:5,_ZN12TransitionerIfN10Transition9EaseInOut9QuadraticEED2Ev
FNDA:0,_ZN12TransitionerIfN10Transition6LinearEED0Ev
FNDA:0,_ZN12TransitionerIfN10Transition6LinearEED2Ev
FNDA:0,_ZN12TransitionerIfN10Transition6LinearEE4initERKfS4_S4_
FNDA:5,_ZN12TransitionerIfN10Transition9EaseInOut9QuadraticEE4initERKfS5_S5_
FNDA:5,_ZN12TransitionerIfN10Transition6EaseIn9QuadraticEE4initERKfS5_S5_
FNDA:5,_ZN12TransitionerIfN10Transition7EaseOut9QuadraticEE4initERKfS5_S5_
FNDA:5,_ZN12TransitionerIfN10Transition9EaseInOut5CubicEE4initERKfS5_S5_
FNDA:5,_ZN12TransitionerIfN10Transition6EaseIn5CubicEE4initERKfS5_S5_
FNDA:5,_ZN12TransitionerIfN10Transition7EaseOut5CubicEE4initERKfS5_S5_
FNDA:5,_ZN12TransitionerIfN10Transition9EaseInOut7QuarticEE4initERKfS5_S5_
FNDA:5,_ZN12TransitionerIfN10Transition6EaseIn7QuarticEE4initERKfS5_S5_
FNDA:5,_ZN12TransitionerIfN10Transition7EaseOut7QuarticEE4initERKfS5_S5_
FNDA:5,_ZN12TransitionerIfN10Transition9EaseInOut7QuinticEE4initERKfS5_S5_
FNDA:5,_ZN12TransitionerIfN10Transition6EaseIn7QuinticEE4initERKfS5_S5_
FNDA:5,_ZN12TransitionerIfN10Transition7EaseOut7QuinticEE4initERKfS5_S5_
FNDA:0,_ZN12TransitionerIfN10Transition6LinearEE4stepERKf
FNDA:192060,_ZN12TransitionerIfN10Transition9EaseInOut9QuadraticEE4stepERKf
FNDA:192060,_ZN12TransitionerIfN10Transition6EaseIn9QuadraticEE4stepERKf
FNDA:192060,_ZN12TransitionerIfN10Transition7EaseOut9QuadraticEE4stepERKf
FNDA:192060,_ZN12TransitionerIfN10Transition9EaseInOut5CubicEE4stepERKf
FNDA:192060,_ZN12TransitionerIfN10Transition6EaseIn5CubicEE4stepERKf
FNDA:192060,_ZN12TransitionerIfN10Transition7EaseOut5CubicEE4stepERKf
FNDA:192060,_ZN12TransitionerIfN10Transition9EaseInOut7QuarticEE4stepERKf
FNDA:192060,_ZN12TransitionerIfN10Transition6EaseIn7QuarticEE4stepERKf
FNDA:192060,_ZN12TransitionerIfN10Transition7EaseOut7QuarticEE4stepERKf
FNDA:192060,_ZN12TransitionerIfN10Transition9EaseInOut7QuinticEE4stepERKf
FNDA:192060,_ZN12TransitionerIfN10Transition6EaseIn7QuinticEE4stepERKf
FNDA:192060,_ZN12TransitionerIfN10Transition7EaseOut7QuinticEE4stepERKf
FNDA:5,_ZN12TransitionerIfN10Transition7EaseOut7QuinticEEC2ERf
FNDA:5,_ZN12TransitionerIfN10Transition6EaseIn7QuinticEEC2ERf
FNDA:5,_ZN12TransitionerIfN10Transition9EaseInOut7QuinticEEC2ERf
FNDA:5,_ZN12TransitionerIfN10Transition7EaseOut7QuarticEEC2ERf
FNDA:5,_ZN12TransitionerIfN10Transition6EaseIn7QuarticEEC2ERf
FNDA:5,_ZN12TransitionerIfN10Transition9EaseInOut7QuarticEEC2ERf
FNDA:5,_ZN12TransitionerIfN10Transition7EaseOut5CubicEEC2ERf
FNDA:5,_ZN12TransitionerIfN10Transition6EaseIn5CubicEEC2ERf
FNDA:5,_ZN12TransitionerIfN10Transition9EaseInOut5CubicEEC2ERf
FNDA:5,_ZN12TransitionerIfN10Transition7EaseOut9QuadraticEEC2ERf
FNDA:5,_ZN12TransitionerIfN10Transition6EaseIn9QuadraticEEC2ERf
FNDA:5,_ZN12TransitionerIfN10Transition9EaseInOut9QuadraticEEC2ERf
FNDA:0,_ZN12TransitionerIfN10Transition6LinearEEC2ERf
FNF:65
FNH:60
BRDA:40,0,0,-
BRDA:40,0,1,-
BRDA:40,1,2,5
BRDA:40,1,3,192055
BRDA:40,2,4,5
BRDA:40,2,5,192055
BRDA:40,3,6,5
BRDA:40,3,7,192055
BRDA:40,4,8,5
BRDA:40,4,9,192055
BRDA:40,5,10,5
BRDA:40,5,11,192055
BRDA:40,6,12,5
BRDA:40,6,13,192055
BRDA:40,7,14,5
BRDA:40,7,15,192055
BRDA:40,8,16,5
BRDA:40,8,17,192055
BRDA:40,9,18,5
BRDA:40,9,19,192055
BRDA:40,10,20,5
BRDA:40,10,21,192055
BRDA:40,11,22,5
BRDA:40,11,23,192055
BRDA:40,12,24,5
BRDA:40,12,25,192055
BRDA:44,0,0,-
BRDA:44,0,1,-
BRDA:44,1,2,0
BRDA:44,1,3,192055
BRDA:44,2,4,0
BRDA:44,2,5,192055
BRDA:44,3,6,0
BRDA:44,3,7,192055
BRDA:44,4,8,0
BRDA:44,4,9,192055
BRDA:44,5,10,0
BRDA:44,5,11,192055
BRDA:44,6,12,0
BRDA:44,6,13,192055
BRDA:44,7,14,0
BRDA:44,7,15,192055
BRDA:44,8,16,0
BRDA:44,8,17,192055
BRDA:44,9,18,0
BRDA:44,9,19,192055
BRDA:44,10,20,0
BRDA:44,10,21,192055
BRDA:44,11,22,0
BRDA:44,11,23,192055
BRDA:44,12,24,0
BRDA:44,12,25,192055
BRDA:58,1,2,5
BRDA:58,1,3,0
BRDA:58,5,7,5
BRDA:58,5,8,0
BRDA:58,9,12,5
BRDA:58,9,13,0
BRDA:58,13,17,5
BRDA:58,13,18,0
BRDA:58,17,22,5
BRDA:58,17,23,0
BRDA:58,21,27,5
BRDA:58,21,28,0
BRDA:58,25,32,5
BRDA:58,25,33,0
BRDA:58,29,37,5
BRDA:58,29,38,0
BRDA:58,33,42,5
BRDA:58,33,43,0
BRDA:58,37,47,5
BRDA:58,37,48,0
BRDA:58,41,52,5
BRDA:58,41,53,0
BRDA:58,45,57,5
BRDA:58,45,58,0
BRDA:58,49,62,-
BRDA:58,49,63,-
BRF:78
BRH:48
DA:20,240
DA:30,60
DA:31,60
DA:32,60
DA:33,60
DA:34,60
DA:35,60
DA:36,60
DA:38,2304720
DA:39,2304720
DA:40,2304720
DA:41,60
DA:42,60
DA:44,2304660
DA:45,0
DA:46,0
DA:48,2304660
DA:58,60
LF:18
LH:16
end_of_record
SF:/SharedWithWindows/Projects/diginstrument/inc/VolumeControl.h
FN:15,_ZN13VolumeControlIfED2Ev
FN:22,_ZN13VolumeControlIfE14stepTransitionERKi
FN:34,_ZN13VolumeControlIfE9getVolumeEv
FN:44,_ZN13VolumeControlIfE9setVolumeERKf
FN:49,_ZN13VolumeControlIfEclEf
FN:101,_ZN13VolumeControlIfE9setVolumeERKfS2_RKiNSt7__cxx1112basic_stringIcSt11char_traitsIcESaIcEEERKj
FN:183,_ZN13VolumeControlIfEC2Ev
FNDA:621,_ZN13VolumeControlIfED2Ev
FNDA:15126890,_ZN13VolumeControlIfE14stepTransitionERKi
FNDA:36,_ZN13VolumeControlIfE9getVolumeEv
FNDA:619,_ZN13VolumeControlIfE9setVolumeERKf
FNDA:780,_ZN13VolumeControlIfEclEf
FNDA:14,_ZN13VolumeControlIfE9setVolumeERKfS2_RKiNSt7__cxx1112basic_stringIcSt11char_traitsIcESaIcEEERKj
FNDA:621,_ZN13VolumeControlIfEC2Ev
FNF:7
FNH:7
BRDA:23,0,1,96782
BRDA:23,0,2,15030108
BRDA:24,0,2,96782
BRDA:24,0,3,0
BRDA:51,0,1,780
BRDA:51,0,2,0
BRDA:103,0,1,2
BRDA:103,0,2,12
BRDA:107,0,0,5
BRDA:107,0,1,3
BRDA:107,0,2,3
BRDA:107,0,3,3
BRDA:107,0,4,0
BRDA:110,0,1,1
BRDA:110,0,2,4
BRDA:115,0,1,1
BRDA:115,0,2,3
BRDA:120,0,1,1
BRDA:120,0,2,2
BRDA:127,0,1,1
BRDA:127,0,2,4
BRDA:132,0,1,1
BRDA:132,0,2,3
BRDA:137,0,1,1
BRDA:137,0,2,2
BRDA:144,0,1,1
BRDA:144,0,2,4
BRDA:149,0,1,1
BRDA:149,0,2,3
BRDA:154,0,1,1
BRDA:154,0,2,2
BRDA:161,0,1,1
BRDA:161,0,2,4
BRDA:166,0,1,1
BRDA:166,0,2,3
BRDA:171,0,1,1
BRDA:171,0,2,2
BRDA:180,0,3,14
BRDA:180,0,4,0
BRF:39
BRH:35
DA:15,1242
DA:22,15126890
DA:23,15126890
DA:24,96782
DA:26,15126890
DA:34,36
DA:36,36
DA:44,619
DA:46,619
DA:47,619
DA:49,780
DA:51,780
DA:52,780
DA:101,14
DA:102,14
DA:103,14
DA:105,2
DA:107,14
DA:110,5
DA:112,1
DA:113,1
DA:115,4
DA:117,1
DA:118,1
DA:120,3
DA:122,1
DA:123,1
DA:127,5
DA:129,1
DA:130,1
DA:132,4
DA:134,1
DA:135,1
DA:137,3
DA:139,1
DA:140,1
DA:144,5
DA:146,1
DA:147,1
DA:149,4
DA:151,1
DA:152,1
DA:154,3
DA:156,1
DA:157,1
DA:161,5
DA:163,1
DA:164,1
DA:166,4
DA:168,1
DA:169,1
DA:171,3
DA:173,1
DA:174,1
DA:177,2
DA:180,14
DA:181,14
DA:183,1242
LF:58
LH:58
end_of_record
SF:/SharedWithWindows/Projects/diginstrument/inc/iBuffer.h
FN:23,_ZN8DataFlow7iBufferIfED2Ev
FN:23,_ZN8DataFlow7iBufferIfED0Ev
FNDA:0,_ZN8DataFlow7iBufferIfED0Ev
FNDA:0,_ZN8DataFlow7iBufferIfED2Ev
FNF:2
FNH:0
DA:23,0
LF:1
LH:0
end_of_record
SF:/SharedWithWindows/Projects/diginstrument/inc/iSource.h
FN:28,_ZN8DataFlow7iSourceIfED2Ev
FN:28,_ZN8DataFlow7iSourceIfED0Ev
FNDA:0,_ZN8DataFlow7iSourceIfED0Ev
FNDA:0,_ZN8DataFlow7iSourceIfED2Ev
FNF:2
FNH:0
DA:28,0
LF:1
LH:0
end_of_record
SF:/SharedWithWindows/Projects/diginstrument/inc/iTransitioner.h
FN:11,_ZN13iTransitionerIfEC2Ev
FN:33,_ZN13iTransitionerIfED2Ev
FN:33,_ZN13iTransitionerIfED0Ev
FNDA:0,_ZN13iTransitionerIfEC2Ev
FNDA:0,_ZN13iTransitionerIfED0Ev
FNDA:0,_ZN13iTransitionerIfED2Ev
FNF:3
FNH:0
DA:11,0
DA:33,0
LF:2
LH:0
end_of_record
SF:/SharedWithWindows/Projects/diginstrument/mixer_test/volume_control_test.cpp
FN:8,_ZN12_GLOBAL__N_117VolumeControlTestD2Ev
FN:11,_ZN12_GLOBAL__N_117VolumeControlTest5SetUpEv
FN:12,_ZN12_GLOBAL__N_117VolumeControlTest8TearDownEv
FN:18,_ZN12_GLOBAL__N_117VolumeControlTestC2Ev
FN:20,_ZN12_GLOBAL__N_132VolumeControlTest_getVolume_TestD2Ev
FN:20,_ZN12_GLOBAL__N_132VolumeControlTest_getVolume_Test8TestBodyEv
FN:20,_ZN12_GLOBAL__N_132VolumeControlTest_getVolume_TestC2Ev
FN:20,_ZN12_GLOBAL__N_132VolumeControlTest_getVolume_TestD0Ev
FN:25,_ZN12_GLOBAL__N_132VolumeControlTest_setVolume_TestD2Ev
FN:25,_ZN12_GLOBAL__N_132VolumeControlTest_setVolume_TestC2Ev
FN:25,_ZN12_GLOBAL__N_132VolumeControlTest_setVolume_Test8TestBodyEv
FN:25,_ZN12_GLOBAL__N_132VolumeControlTest_setVolume_TestD0Ev
FN:31,_ZN12_GLOBAL__N_146VolumeControlTest_setVolumeWithTransition_TestD2Ev
FN:31,_ZN12_GLOBAL__N_146VolumeControlTest_setVolumeWithTransition_Test8TestBodyEv
FN:31,_ZN12_GLOBAL__N_146VolumeControlTest_setVolumeWithTransition_TestC2Ev
FN:31,_ZN12_GLOBAL__N_146VolumeControlTest_setVolumeWithTransition_TestD0Ev
FN:42,_ZN12_GLOBAL__N_149VolumeControlTest_differentTransitionMethods_Test8TestBodyEv
FN:42,_ZN12_GLOBAL__N_149VolumeControlTest_differentTransitionMethods_TestD2Ev
FN:42,_ZN12_GLOBAL__N_149VolumeControlTest_differentTransitionMethods_TestC2Ev
FN:42,_ZN12_GLOBAL__N_149VolumeControlTest_differentTransitionMethods_TestD0Ev
FN:99,_Z41__static_initialization_and_destruction_0ii
FN:99,_GLOBAL__sub_I_volume_control_test.cpp
FNDA:4,_ZN12_GLOBAL__N_117VolumeControlTestD2Ev
FNDA:4,_ZN12_GLOBAL__N_117VolumeControlTest5SetUpEv
FNDA:4,_ZN12_GLOBAL__N_117VolumeControlTest8TearDownEv
FNDA:4,_ZN12_GLOBAL__N_117VolumeControlTestC2Ev
FNDA:1,_ZN12_GLOBAL__N_132VolumeControlTest_getVolume_TestD0Ev
FNDA:1,_ZN12_GLOBAL__N_132VolumeControlTest_getVolume_TestD2Ev
FNDA:1,_ZN12_GLOBAL__N_132VolumeControlTest_getVolume_Test8TestBodyEv
FNDA:1,_ZN12_GLOBAL__N_132VolumeControlTest_getVolume_TestC2Ev
FNDA:1,_ZN12_GLOBAL__N_132VolumeControlTest_setVolume_TestD0Ev
FNDA:1,_ZN12_GLOBAL__N_132VolumeControlTest_setVolume_TestD2Ev
FNDA:1,_ZN12_GLOBAL__N_132VolumeControlTest_setVolume_Test8TestBodyEv
FNDA:1,_ZN12_GLOBAL__N_132VolumeControlTest_setVolume_TestC2Ev
FNDA:1,_ZN12_GLOBAL__N_146VolumeControlTest_setVolumeWithTransition_TestD0Ev
FNDA:1,_ZN12_GLOBAL__N_146VolumeControlTest_setVolumeWithTransition_TestD2Ev
FNDA:1,_ZN12_GLOBAL__N_146VolumeControlTest_setVolumeWithTransition_Test8TestBodyEv
FNDA:1,_ZN12_GLOBAL__N_146VolumeControlTest_setVolumeWithTransition_TestC2Ev
FNDA:1,_ZN12_GLOBAL__N_149VolumeControlTest_differentTransitionMethods_TestD0Ev
FNDA:1,_ZN12_GLOBAL__N_149VolumeControlTest_differentTransitionMethods_TestD2Ev
FNDA:1,_ZN12_GLOBAL__N_149VolumeControlTest_differentTransitionMethods_Test8TestBodyEv
FNDA:1,_ZN12_GLOBAL__N_149VolumeControlTest_differentTransitionMethods_TestC2Ev
FNDA:1,_GLOBAL__sub_I_volume_control_test.cpp
FNDA:1,_Z41__static_initialization_and_destruction_0ii
FNF:22
FNH:22
BRDA:18,1,4,4
BRDA:18,1,5,0
BRDA:18,2,8,4
BRDA:18,2,9,0
BRDA:18,3,15,4
BRDA:18,3,16,0
BRDA:18,4,19,4
BRDA:18,4,20,0
BRDA:20,4294967295,5,1
BRDA:20,4294967295,6,0
BRDA:20,0,8,1
BRDA:20,0,9,0
BRDA:20,1,12,1
BRDA:20,1,13,0
BRDA:22,0,2,1
BRDA:22,0,3,0
BRDA:22,1,5,1
BRDA:22,1,6,0
BRDA:22,2,9,0
BRDA:22,2,10,1
BRDA:22,3,12,-
BRDA:22,3,13,-
BRDA:22,4,15,-
BRDA:22,4,16,-
BRDA:22,5,18,-
BRDA:22,5,19,-
BRDA:22,6,21,-
BRDA:22,6,22,-
BRDA:25,4294967295,5,1
BRDA:25,4294967295,6,0
BRDA:25,0,8,1
BRDA:25,0,9,0
BRDA:25,1,12,1
BRDA:25,1,13,0
BRDA:28,4294967295,2,1
BRDA:28,4294967295,3,0
BRDA:28,0,5,1
BRDA:28,0,6,0
BRDA:28,1,9,0
BRDA:28,1,10,1
BRDA:28,2,12,-
BRDA:28,2,13,-
BRDA:28,3,15,-
BRDA:28,3,16,-
BRDA:28,4,18,-
BRDA:28,4,19,-
BRDA:28,5,21,-
BRDA:28,5,22,-
BRDA:31,4294967295,5,1
BRDA:31,4294967295,6,0
BRDA:31,0,8,1
BRDA:31,0,9,0
BRDA:31,1,12,1
BRDA:31,1,13,0
BRDA:36,0,2,1
BRDA:36,0,3,0
BRDA:36,1,6,1
BRDA:36,1,7,0
BRDA:37,4294967295,2,1
BRDA:37,4294967295,3,0
BRDA:37,0,5,1
BRDA:37,0,6,0
BRDA:37,1,9,0
BRDA:37,1,10,1
BRDA:37,2,12,-
BRDA:37,2,13,-
BRDA:37,3,15,-
BRDA:37,3,16,-
BRDA:37,4,18,-
BRDA:37,4,19,-
BRDA:37,5,21,-
BRDA:37,5,22,-
BRDA:38,0,0,60
BRDA:38,0,1,1
BRDA:38,1,3,60
BRDA:38,1,4,0
BRDA:39,0,2,1
BRDA:39,0,3,0
BRDA:39,1,5,1
BRDA:39,1,6,0
BRDA:39,2,9,0
BRDA:39,2,10,1
BRDA:39,3,12,-
BRDA:39,3,13,-
BRDA:39,4,15,-
BRDA:39,4,16,-
BRDA:39,5,18,-
BRDA:39,5,19,-
BRDA:39,6,21,-
BRDA:39,6,22,-
BRDA:42,4294967295,5,1
BRDA:42,4294967295,6,0
BRDA:42,0,8,1
BRDA:42,0,9,0
BRDA:42,1,12,1
BRDA:42,1,13,0
BRDA:49,0,2,1
BRDA:49,0,3,0
BRDA:49,1,6,1
BRDA:49,1,7,0
BRDA:50,0,0,60
BRDA:50,0,1,1
BRDA:50,1,3,60
BRDA:50,1,4,0
BRDA:51,0,2,1
BRDA:51,0,3,0
BRDA:51,1,5,1
BRDA:51,1,6,0
BRDA:51,2,9,0
BRDA:51,2,10,1
BRDA:51,3,12,-
BRDA:51,3,13,-
BRDA:51,4,15,-
BRDA:51,4,16,-
BRDA:51,5,18,-
BRDA:51,5,19,-
BRDA:51,6,21,-
BRDA:51,6,22,-
BRDA:53,4294967295,2,1
BRDA:53,4294967295,3,0
BRDA:53,0,6,1
BRDA:53,0,7,0
BRDA:54,0,0,60
BRDA:54,0,1,1
BRDA:54,1,3,60
BRDA:54,1,4,0
BRDA:55,0,2,1
BRDA:55,0,3,0
BRDA:55,1,5,1
BRDA:55,1,6,0
BRDA:55,2,9,0
BRDA:55,2,10,1
BRDA:55,3,12,-
BRDA:55,3,13,-
BRDA:55,4,15,-
BRDA:55,4,16,-
BRDA:55,5,18,-
BRDA:55,5,19,-
BRDA:55,6,21,-
BRDA:55,6,22,-
BRDA:57,4294967295,2,1
BRDA:57,4294967295,3,0
BRDA:57,0,6,1
BRDA:57,0,7,0
BRDA:58,0,0,60
BRDA:58,0,1,1
BRDA:58,1,3,60
BRDA:58,1,4,0
BRDA:59,0,2,1
BRDA:59,0,3,0
BRDA:59,1,5,1
BRDA:59,1,6,0
BRDA:59,2,9,0
BRDA:59,2,10,1
BRDA:59,3,12,-
BRDA:59,3,13,-
BRDA:59,4,15,-
BRDA:59,4,16,-
BRDA:59,5,18,-
BRDA:59,5,19,-
BRDA:59,6,21,-
BRDA:59,6,22,-
BRDA:61,4294967295,2,1
BRDA:61,4294967295,3,0
BRDA:61,0,6,1
BRDA:61,0,7,0
BRDA:62,0,0,60
BRDA:62,0,1,1
BRDA:62,1,3,60
BRDA:62,1,4,0
BRDA:63,0,2,1
BRDA:63,0,3,0
BRDA:63,1,5,1
BRDA:63,1,6,0
BRDA:63,2,9,0
BRDA:63,2,10,1
BRDA:63,3,12,-
BRDA:63,3,13,-
BRDA:63,4,15,-
BRDA:63,4,16,-
BRDA:63,5,18,-
BRDA:63,5,19,-
BRDA:63,6,21,-
BRDA:63,6,22,-
BRDA:66,4294967295,2,1
BRDA:66,4294967295,3,0
BRDA:66,0,6,1
BRDA:66,0,7,0
BRDA:67,0,0,60
BRDA:67,0,1,1
BRDA:67,1,3,60
BRDA:67,1,4,0
BRDA:68,0,2,1
BRDA:68,0,3,0
BRDA:68,1,5,1
BRDA:68,1,6,0
BRDA:68,2,9,0
BRDA:68,2,10,1
BRDA:68,3,12,-
BRDA:68,3,13,-
BRDA:68,4,15,-
BRDA:68,4,16,-
BRDA:68,5,18,-
BRDA:68,5,19,-
BRDA:68,6,21,-
BRDA:68,6,22,-
BRDA:70,4294967295,2,1
BRDA:70,4294967295,3,0
BRDA:70,0,6,1
BRDA:70,0,7,0
BRDA:71,0,0,60
BRDA:71,0,1,1
BRDA:71,1,3,60
BRDA:71,1,4,0
BRDA:72,0,2,1
BRDA:72,0,3,0
BRDA:72,1,5,1
BRDA:72,1,6,0
BRDA:72,2,9,0
BRDA:72,2,10,1
BRDA:72,3,12,-
BRDA:72,3,13,-
BRDA:72,4,15,-
BRDA:72,4,16,-
BRDA:72,5,18,-
BRDA:72,5,19,-
BRDA:72,6,21,-
BRDA:72,6,22,-
BRDA:74,4294967295,2,1
BRDA:74,4294967295,3,0
BRDA:74,0,6,1
BRDA:74,0,7,0
BRDA:75,0,0,60
BRDA:75,0,1,1
BRDA:75,1,3,60
BRDA:75,1,4,0
BRDA:76,0,2,1
BRDA:76,0,3,0
BRDA:76,1,5,1
BRDA:76,1,6,0
BRDA:76,2,9,0
BRDA:76,2,10,1
BRDA:76,3,12,-
BRDA:76,3,13,-
BRDA:76,4,15,-
BRDA:76,4,16,-
BRDA:76,5,18,-
BRDA:76,5,19,-
BRDA:76,6,21,-
BRDA:76,6,22,-
BRDA:78,4294967295,2,1
BRDA:78,4294967295,3,0
BRDA:78,0,6,1
BRDA:78,0,7,0
BRDA:79,0,0,60
BRDA:79,0,1,1
BRDA:79,1,3,60
BRDA:79,1,4,0
BRDA:80,0,2,1
BRDA:80,0,3,0
BRDA:80,1,5,1
BRDA:80,1,6,0
BRDA:80,2,9,0
BRDA:80,2,10,1
BRDA:80,3,12,-
BRDA:80,3,13,-
BRDA:80,4,15,-
BRDA:80,4,16,-
BRDA:80,5,18,-
BRDA:80,5,19,-
BRDA:80,6,21,-
BRDA:80,6,22,-
BRDA:83,4294967295,2,1
BRDA:83,4294967295,3,0
BRDA:83,0,6,1
BRDA:83,0,7,0
BRDA:84,0,0,60
BRDA:84,0,1,1
BRDA:84,1,3,60
BRDA:84,1,4,0
BRDA:85,0,2,1
BRDA:85,0,3,0
BRDA:85,1,5,1
BRDA:85,1,6,0
BRDA:85,2,9,0
BRDA:85,2,10,1
BRDA:85,3,12,-
BRDA:85,3,13,-
BRDA:85,4,15,-
BRDA:85,4,16,-
BRDA:85,5,18,-
BRDA:85,5,19,-
BRDA:85,6,21,-
BRDA:85,6,22,-
BRDA:87,4294967295,2,1
BRDA:87,4294967295,3,0
BRDA:87,0,6,1
BRDA:87,0,7,0
BRDA:88,0,0,60
BRDA:88,0,1,1
BRDA:88,1,3,60
BRDA:88,1,4,0
BRDA:89,0,2,1
BRDA:89,0,3,0
BRDA:89,1,5,1
BRDA:89,1,6,0
BRDA:89,2,9,0
BRDA:89,2,10,1
BRDA:89,3,12,-
BRDA:89,3,13,-
BRDA:89,4,15,-
BRDA:89,4,16,-
BRDA:89,5,18,-
BRDA:89,5,19,-
BRDA:89,6,21,-
BRDA:89,6,22,-
BRDA:91,4294967295,2,1
BRDA:91,4294967295,3,0
BRDA:91,0,6,1
BRDA:91,0,7,0
BRDA:92,0,0,60
BRDA:92,0,1,1
BRDA:92,1,3,60
BRDA:92,1,4,0
BRDA:93,0,2,1
BRDA:93,0,3,0
BRDA:93,1,5,1
BRDA:93,1,6,0
BRDA:93,2,9,0
BRDA:93,2,10,1
BRDA:93,3,12,-
BRDA:93,3,13,-
BRDA:93,4,15,-
BRDA:93,4,16,-
BRDA:93,5,18,-
BRDA:93,5,19,-
BRDA:93,6,21,-
BRDA:93,6,22,-
BRDA:95,4294967295,2,1
BRDA:95,4294967295,3,0
BRDA:95,0,6,1
BRDA:95,0,7,0
BRDA:96,0,0,60
BRDA:96,0,1,1
BRDA:96,1,3,60
BRDA:96,1,4,0
BRDA:97,0,2,1
BRDA:97,0,3,0
BRDA:97,1,5,1
BRDA:97,1,6,0
BRDA:97,2,9,0
BRDA:97,2,10,1
BRDA:97,3,12,-
BRDA:97,3,13,-
BRDA:97,4,15,-
BRDA:97,4,16,-
BRDA:97,5,18,-
BRDA:97,5,19,-
BRDA:97,6,21,-
BRDA:97,6,22,-
BRDA:99,3,1,1
BRDA:99,3,2,0
BRDA:99,4,3,1
BRDA:99,4,4,0
BRF:364
BRH:131
DA:8,8
DA:11,4
DA:12,4
DA:18,4
DA:20,8
DA:22,1
DA:23,1
DA:25,8
DA:27,1
DA:28,1
DA:29,1
DA:31,8
DA:33,1
DA:34,1
DA:35,1
DA:36,1
DA:37,1
DA:38,61
DA:39,1
DA:40,1
DA:42,8
DA:44,1
DA:45,1
DA:47,1
DA:49,1
DA:50,61
DA:51,1
DA:52,1
DA:53,1
DA:54,61
DA:55,1
DA:56,1
DA:57,1
DA:58,61
DA:59,1
DA:60,1
DA:61,1
DA:62,61
DA:63,1
DA:64,1
DA:66,1
DA:67,61
DA:68,1
DA:69,1
DA:70,1
DA:71,61
DA:72,1
DA:73,1
DA:74,1
DA:75,61
DA:76,1
DA:77,1
DA:78,1
DA:79,61
DA:80,1
DA:81,1
DA:83,1
DA:84,61
DA:85,1
DA:86,1
DA:87,1
DA:88,61
DA:89,1
DA:90,1
DA:91,1
DA:92,61
DA:93,1
DA:94,1
DA:95,1
DA:96,61
DA:97,1
DA:98,1
DA:99,4
LF:73
LH:73
end_of_record
TN:
SF:/SharedWithWindows/Projects/diginstrument/mixer_test/vorbis_encoder_test.cpp
FN:10,_ZN12_GLOBAL__N_117VorbisEncoderTestD2Ev
FN:13,_ZN12_GLOBAL__N_117VorbisEncoderTest5SetUpEv
FN:14,_ZN12_GLOBAL__N_117VorbisEncoderTest8TearDownEv
FN:16,_ZN12_GLOBAL__N_117VorbisEncoderTestC2Ev
FN:19,_ZN12_GLOBAL__N_140VorbisEncoderTest_QualityOutOfRange_TestD0Ev
FN:19,_ZN12_GLOBAL__N_140VorbisEncoderTest_QualityOutOfRange_TestC2Ev
FN:19,_ZN12_GLOBAL__N_140VorbisEncoderTest_QualityOutOfRange_Test8TestBodyEv
FN:19,_ZN12_GLOBAL__N_140VorbisEncoderTest_QualityOutOfRange_TestD2Ev
FN:24,_Z41__static_initialization_and_destruction_0ii
FN:24,_GLOBAL__sub_I_vorbis_encoder_test.cpp
FNDA:1,_ZN12_GLOBAL__N_117VorbisEncoderTestD2Ev
FNDA:1,_ZN12_GLOBAL__N_117VorbisEncoderTest5SetUpEv
FNDA:1,_ZN12_GLOBAL__N_117VorbisEncoderTest8TearDownEv
FNDA:1,_ZN12_GLOBAL__N_117VorbisEncoderTestC2Ev
FNDA:1,_ZN12_GLOBAL__N_140VorbisEncoderTest_QualityOutOfRange_TestD0Ev
FNDA:1,_ZN12_GLOBAL__N_140VorbisEncoderTest_QualityOutOfRange_TestD2Ev
FNDA:1,_ZN12_GLOBAL__N_140VorbisEncoderTest_QualityOutOfRange_Test8TestBodyEv
FNDA:1,_ZN12_GLOBAL__N_140VorbisEncoderTest_QualityOutOfRange_TestC2Ev
FNDA:1,_GLOBAL__sub_I_vorbis_encoder_test.cpp
FNDA:1,_Z41__static_initialization_and_destruction_0ii
FNF:10
FNH:10
BRDA:19,4294967295,5,1
BRDA:19,4294967295,6,0
BRDA:19,0,8,1
BRDA:19,0,9,0
BRDA:19,1,12,1
BRDA:19,1,13,0
BRDA:21,0,1,1
BRDA:21,0,2,0
BRDA:21,1,4,1
BRDA:21,1,5,0
BRDA:21,2,6,1
BRDA:21,2,7,0
BRDA:21,3,9,1
BRDA:21,3,10,0
BRDA:21,4,12,1
BRDA:21,4,13,0
BRDA:21,6,16,-
BRDA:21,6,17,-
BRDA:21,7,19,-
BRDA:21,7,20,-
BRDA:22,0,1,1
BRDA:22,0,2,0
BRDA:22,1,4,1
BRDA:22,1,5,0
BRDA:22,2,6,1
BRDA:22,2,7,0
BRDA:22,3,9,1
BRDA:22,3,10,0
BRDA:22,4,12,1
BRDA:22,4,13,0
BRDA:22,6,16,-
BRDA:22,6,17,-
BRDA:22,7,19,-
BRDA:22,7,20,-
BRDA:24,3,1,1
BRDA:24,3,2,0
BRDA:24,4,3,1
BRDA:24,4,4,0
BRF:38
BRH:15
DA:10,2
DA:13,1
DA:14,1
DA:16,2
DA:19,8
DA:21,1
DA:22,1
DA:23,1
DA:24,4
LF:9
LH:9
end_of_record
TN:
SF:/SharedWithWindows/Projects/diginstrument/inc/AudioSource.h
FN:23,_ZNK5Mixer11AudioSource11getChannelsEv
FN:30,_ZNK5Mixer11AudioSource13getSampleRateEv
FN:33,_ZN5Mixer11AudioSourceC2ERKjS2_
FNDA:39048469,_ZNK5Mixer11AudioSource11getChannelsEv
FNDA:959,_ZNK5Mixer11AudioSource13getSampleRateEv
FNDA:0,_ZN5Mixer11AudioSourceC2ERKjS2_
FNF:3
FNH:2
DA:23,78096938
DA:30,1918
DA:33,0
LF:3
LH:2
end_of_record
SF:/SharedWithWindows/Projects/diginstrument/inc/CheapSawtoothGenerator.h
FN:26,_ZN5Mixer22CheapSawtoothGeneratorIfED0Ev
FN:26,_ZN5Mixer22CheapSawtoothGeneratorIfED2Ev
FNDA:0,_ZN5Mixer22CheapSawtoothGeneratorIfED0Ev
FNDA:0,_ZN5Mixer22CheapSawtoothGeneratorIfED2Ev
FNF:2
FNH:0
DA:26,0
LF:1
LH:0
end_of_record
SF:/SharedWithWindows/Projects/diginstrument/inc/TransitionFunction.h
FN:17,_ZN18TransitionFunctionIfEC2Ev
FN:43,_ZN18TransitionFunctionIfED2Ev
FN:43,_ZN18TransitionFunctionIfED0Ev
FNDA:0,_ZN18TransitionFunctionIfEC2Ev
FNDA:0,_ZN18TransitionFunctionIfED0Ev
FNDA:0,_ZN18TransitionFunctionIfED2Ev
FNF:3
FNH:0
DA:17,0
DA:43,0
LF:2
LH:0
end_of_record
SF:/SharedWithWindows/Projects/diginstrument/inc/TransitionFunctions.h
FN:19,_ZN10Transition6LinearIfED0Ev
FN:19,_ZN10Transition6LinearIfEC2Ev
FN:19,_ZN10Transition6LinearIfED2Ev
FN:21,_ZN10Transition6LinearIfE4initERKfS3_S3_S3_
FN:27,_ZN10Transition6LinearIfEclERKf
FN:42,_ZN10Transition6EaseIn9QuadraticIfEC2Ev
FN:42,_ZN10Transition6EaseIn9QuadraticIfED0Ev
FN:42,_ZN10Transition6EaseIn9QuadraticIfED2Ev
FN:44,_ZN10Transition6EaseIn9QuadraticIfE4initERKfS4_S4_S4_
FN:50,_ZN10Transition6EaseIn9QuadraticIfEclERKf
FN:58,_ZN10Transition6EaseIn5CubicIfED0Ev
FN:58,_ZN10Transition6EaseIn5CubicIfED2Ev
FN:58,_ZN10Transition6EaseIn5CubicIfEC2Ev
FN:60,_ZN10Transition6EaseIn5CubicIfE4initERKfS4_S4_S4_
FN:66,_ZN10Transition6EaseIn5CubicIfEclERKf
FN:74,_ZN10Transition6EaseIn7QuarticIfEC2Ev
FN:74,_ZN10Transition6EaseIn7QuarticIfED2Ev
FN:74,_ZN10Transition6EaseIn7QuarticIfED0Ev
FN:76,_ZN10Transition6EaseIn7QuarticIfE4initERKfS4_S4_S4_
FN:82,_ZN10Transition6EaseIn7QuarticIfEclERKf
FN:89,_ZN10Transition6EaseIn7QuinticIfED2Ev
FN:89,_ZN10Transition6EaseIn7QuinticIfEC2Ev
FN:89,_ZN10Transition6EaseIn7QuinticIfED0Ev
FN:91,_ZN10Transition6EaseIn7QuinticIfE4initERKfS4_S4_S4_
FN:97,_ZN10Transition6EaseIn7QuinticIfEclERKf
FN:114,_ZN10Transition7EaseOut9QuadraticIfED0Ev
FN:114,_ZN10Transition7EaseOut9QuadraticIfED2Ev
FN:114,_ZN10Transition7EaseOut9QuadraticIfEC2Ev
FN:116,_ZN10Transition7EaseOut9QuadraticIfE4initERKfS4_S4_S4_
FN:122,_ZN10Transition7EaseOut9QuadraticIfEclERKf
FN:130,_ZN10Transition7EaseOut5CubicIfED2Ev
FN:130,_ZN10Transition7EaseOut5CubicIfEC2Ev
FN:130,_ZN10Transition7EaseOut5CubicIfED0Ev
FN:132,_ZN10Transition7EaseOut5CubicIfE4initERKfS4_S4_S4_
FN:138,_ZN10Transition7EaseOut5CubicIfEclERKf
FN:146,_ZN10Transition7EaseOut7QuarticIfED0Ev
FN:146,_ZN10Transition7EaseOut7QuarticIfEC2Ev
FN:146,_ZN10Transition7EaseOut7QuarticIfED2Ev
FN:148,_ZN10Transition7EaseOut7QuarticIfE4initERKfS4_S4_S4_
FN:154,_ZN10Transition7EaseOut7QuarticIfEclERKf
FN:162,_ZN10Transition7EaseOut7QuinticIfED2Ev
FN:162,_ZN10Transition7EaseOut7QuinticIfEC2Ev
FN:162,_ZN10Transition7EaseOut7QuinticIfED0Ev
FN:164,_ZN10Transition7EaseOut7QuinticIfE4initERKfS4_S4_S4_
FN:170,_ZN10Transition7EaseOut7QuinticIfEclERKf
FN:186,_ZN10Transition9EaseInOut9QuadraticIfED0Ev
FN:186,_ZN10Transition9EaseInOut9QuadraticIfEC2Ev
FN:186,_ZN10Transition9EaseInOut9QuadraticIfED2Ev
FN:188,_ZN10Transition9EaseInOut9QuadraticIfE4initERKfS4_S4_S4_
FN:195,_ZN10Transition9EaseInOut9QuadraticIfEclERKf
FN:204,_ZN10Transition9EaseInOut5CubicIfED0Ev
FN:204,_ZN10Transition9EaseInOut5CubicIfED2Ev
FN:204,_ZN10Transition9EaseInOut5CubicIfEC2Ev
FN:206,_ZN10Transition9EaseInOut5CubicIfE4initERKfS4_S4_S4_
FN:213,_ZN10Transition9EaseInOut5CubicIfEclERKf
FN:222,_ZN10Transition9EaseInOut7QuarticIfED0Ev
FN:222,_ZN10Transition9EaseInOut7QuarticIfED2Ev
FN:222,_ZN10Transition9EaseInOut7QuarticIfEC2Ev
FN:224,_ZN10Transition9EaseInOut7QuarticIfE4initERKfS4_S4_S4_
FN:231,_ZN10Transition9EaseInOut7QuarticIfEclERKf
FN:240,_ZN10Transition9EaseInOut7QuinticIfED2Ev
FN:240,_ZN10Transition9EaseInOut7QuinticIfEC2Ev
FN:240,_ZN10Transition9EaseInOut7QuinticIfED0Ev
FN:242,_ZN10Transition9EaseInOut7QuinticIfE4initERKfS4_S4_S4_
FN:249,_ZN10Transition9EaseInOut7QuinticIfEclERKf
FNDA:0,_ZN10Transition6LinearIfED0Ev
FNDA:0,_ZN10Transition6LinearIfED2Ev
FNDA:0,_ZN10Transition6LinearIfEC2Ev
FNDA:0,_ZN10Transition6LinearIfE4initERKfS3_S3_S3_
FNDA:0,_ZN10Transition6LinearIfEclERKf
FNDA:0,_ZN10Transition6EaseIn9QuadraticIfED0Ev
FNDA:0,_ZN10Transition6EaseIn9QuadraticIfED2Ev
FNDA:0,_ZN10Transition6EaseIn9QuadraticIfEC2Ev
FNDA:0,_ZN10Transition6EaseIn9QuadraticIfE4initERKfS4_S4_S4_
FNDA:0,_ZN10Transition6EaseIn9QuadraticIfEclERKf
FNDA:0,_ZN10Transition6EaseIn5CubicIfED0Ev
FNDA:0,_ZN10Transition6EaseIn5CubicIfED2Ev
FNDA:0,_ZN10Transition6EaseIn5CubicIfEC2Ev
FNDA:0,_ZN10Transition6EaseIn5CubicIfE4initERKfS4_S4_S4_
FNDA:0,_ZN10Transition6EaseIn5CubicIfEclERKf
FNDA:0,_ZN10Transition6EaseIn7QuarticIfED0Ev
FNDA:0,_ZN10Transition6EaseIn7QuarticIfED2Ev
FNDA:0,_ZN10Transition6EaseIn7QuarticIfEC2Ev
FNDA:0,_ZN10Transition6EaseIn7QuarticIfE4initERKfS4_S4_S4_
FNDA:0,_ZN10Transition6EaseIn7QuarticIfEclERKf
FNDA:0,_ZN10Transition6EaseIn7QuinticIfED0Ev
FNDA:0,_ZN10Transition6EaseIn7QuinticIfED2Ev
FNDA:0,_ZN10Transition6EaseIn7QuinticIfEC2Ev
FNDA:0,_ZN10Transition6EaseIn7QuinticIfE4initERKfS4_S4_S4_
FNDA:0,_ZN10Transition6EaseIn7QuinticIfEclERKf
FNDA:0,_ZN10Transition7EaseOut9QuadraticIfED0Ev
FNDA:0,_ZN10Transition7EaseOut9QuadraticIfED2Ev
FNDA:0,_ZN10Transition7EaseOut9QuadraticIfEC2Ev
FNDA:0,_ZN10Transition7EaseOut9QuadraticIfE4initERKfS4_S4_S4_
FNDA:0,_ZN10Transition7EaseOut9QuadraticIfEclERKf
FNDA:0,_ZN10Transition7EaseOut5CubicIfED0Ev
FNDA:0,_ZN10Transition7EaseOut5CubicIfED2Ev
FNDA:0,_ZN10Transition7EaseOut5CubicIfEC2Ev
FNDA:0,_ZN10Transition7EaseOut5CubicIfE4initERKfS4_S4_S4_
FNDA:0,_ZN10Transition7EaseOut5CubicIfEclERKf
FNDA:0,_ZN10Transition7EaseOut7QuarticIfED0Ev
FNDA:0,_ZN10Transition7EaseOut7QuarticIfED2Ev
FNDA:0,_ZN10Transition7EaseOut7QuarticIfEC2Ev
FNDA:0,_ZN10Transition7EaseOut7QuarticIfE4initERKfS4_S4_S4_
FNDA:0,_ZN10Transition7EaseOut7QuarticIfEclERKf
FNDA:0,_ZN10Transition7EaseOut7QuinticIfED0Ev
FNDA:0,_ZN10Transition7EaseOut7QuinticIfED2Ev
FNDA:0,_ZN10Transition7EaseOut7QuinticIfEC2Ev
FNDA:0,_ZN10Transition7EaseOut7QuinticIfE4initERKfS4_S4_S4_
FNDA:0,_ZN10Transition7EaseOut7QuinticIfEclERKf
FNDA:0,_ZN10Transition9EaseInOut9QuadraticIfED0Ev
FNDA:0,_ZN10Transition9EaseInOut9QuadraticIfED2Ev
FNDA:0,_ZN10Transition9EaseInOut9QuadraticIfEC2Ev
FNDA:0,_ZN10Transition9EaseInOut9QuadraticIfE4initERKfS4_S4_S4_
FNDA:0,_ZN10Transition9EaseInOut9QuadraticIfEclERKf
FNDA:0,_ZN10Transition9EaseInOut5CubicIfED0Ev
FNDA:0,_ZN10Transition9EaseInOut5CubicIfED2Ev
FNDA:0,_ZN10Transition9EaseInOut5CubicIfEC2Ev
FNDA:0,_ZN10Transition9EaseInOut5CubicIfE4initERKfS4_S4_S4_
FNDA:0,_ZN10Transition9EaseInOut5CubicIfEclERKf
FNDA:0,_ZN10Transition9EaseInOut7QuarticIfED0Ev
FNDA:0,_ZN10Transition9EaseInOut7QuarticIfED2Ev
FNDA:0,_ZN10Transition9EaseInOut7QuarticIfEC2Ev
FNDA:0,_ZN10Transition9EaseInOut7QuarticIfE4initERKfS4_S4_S4_
FNDA:0,_ZN10Transition9EaseInOut7QuarticIfEclERKf
FNDA:0,_ZN10Transition9EaseInOut7QuinticIfED0Ev
FNDA:0,_ZN10Transition9EaseInOut7QuinticIfED2Ev
FNDA:0,_ZN10Transition9EaseInOut7QuinticIfEC2Ev
FNDA:0,_ZN10Transition9EaseInOut7QuinticIfE4initERKfS4_S4_S4_
FNDA:0,_ZN10Transition9EaseInOut7QuinticIfEclERKf
FNF:65
FNH:0
DA:19,0
DA:21,0
DA:22,0
DA:23,0
DA:24,0
DA:25,0
DA:27,0
DA:28,0
DA:42,0
DA:44,0
DA:45,0
DA:46,0
DA:47,0
DA:48,0
DA:50,0
DA:51,0
DA:58,0
DA:60,0
DA:61,0
DA:62,0
DA:63,0
DA:64,0
DA:66,0
DA:67,0
DA:74,0
DA:76,0
DA:77,0
DA:78,0
DA:79,0
DA:80,0
DA:82,0
DA:83,0
DA:89,0
DA:91,0
DA:92,0
DA:93,0
DA:94,0
DA:95,0
DA:97,0
DA:98,0
DA:114,0
DA:116,0
DA:117,0
DA:118,0
DA:119,0
DA:120,0
DA:122,0
DA:123,0
DA:130,0
DA:132,0
DA:133,0
DA:134,0
DA:135,0
DA:136,0
DA:138,0
DA:139,0
DA:146,0
DA:148,0
DA:149,0
DA:150,0
DA:151,0
DA:152,0
DA:154,0
DA:155,0
DA:162,0
DA:164,0
DA:165,0
DA:166,0
DA:167,0
DA:168,0
DA:170,0
DA:171,0
DA:186,0
DA:188,0
DA:189,0
DA:190,0
DA:191,0
DA:192,0
DA:193,0
DA:195,0
DA:196,0
DA:197,0
DA:204,0
DA:206,0
DA:207,0
DA:208,0
DA:209,0
DA:210,0
DA:211,0
DA:213,0
DA:214,0
DA:215,0
DA:222,0
DA:224,0
DA:225,0
DA:226,0
DA:227,0
DA:228,0
DA:229,0
DA:231,0
DA:232,0
DA:233,0
DA:240,0
DA:242,0
DA:243,0
DA:244,0
DA:245,0
DA:246,0
DA:247,0
DA:249,0
DA:250,0
DA:251,0
LF:112
LH:0
end_of_record
SF:/SharedWithWindows/Projects/diginstrument/inc/Transitioner.h
FN:20,_ZN12TransitionerIfN10Transition6LinearEED2Ev
FN:20,_ZN12TransitionerIfN10Transition6EaseIn5CubicEED2Ev
FN:20,_ZN12TransitionerIfN10Transition9EaseInOut5CubicEED0Ev
FN:20,_ZN12TransitionerIfN10Transition9EaseInOut7QuarticEED2Ev
FN:20,_ZN12TransitionerIfN10Transition9EaseInOut7QuinticEED0Ev
FN:20,_ZN12TransitionerIfN10Transition6EaseIn7QuinticEED0Ev
FN:20,_ZN12TransitionerIfN10Transition7EaseOut9QuadraticEED2Ev
FN:20,_ZN12TransitionerIfN10Transition7EaseOut7QuinticEED2Ev
FN:20,_ZN12TransitionerIfN10Transition6EaseIn7QuinticEED2Ev
FN:20,_ZN12TransitionerIfN10Transition9EaseInOut5CubicEED2Ev
FN:20,_ZN12TransitionerIfN10Transition6EaseIn7QuarticEED0Ev
FN:20,_ZN12TransitionerIfN10Transition7EaseOut7QuinticEED0Ev
FN:20,_ZN12TransitionerIfN10Transition6EaseIn9QuadraticEED2Ev
FN:20,_ZN12TransitionerIfN10Transition6EaseIn5CubicEED0Ev
FN:20,_ZN12TransitionerIfN10Transition6EaseIn7QuarticEED2Ev
FN:20,_ZN12TransitionerIfN10Transition6LinearEED0Ev
FN:20,_ZN12TransitionerIfN10Transition7EaseOut9QuadraticEED0Ev
FN:20,_ZN12TransitionerIfN10Transition9EaseInOut9QuadraticEED0Ev
FN:20,_ZN12TransitionerIfN10Transition9EaseInOut7QuinticEED2Ev
FN:20,_ZN12TransitionerIfN10Transition7EaseOut5CubicEED2Ev
FN:20,_ZN12TransitionerIfN10Transition6EaseIn9QuadraticEED0Ev
FN:20,_ZN12TransitionerIfN10Transition7EaseOut5CubicEED0Ev
FN:20,_ZN12TransitionerIfN10Transition7EaseOut7QuarticEED0Ev
FN:20,_ZN12TransitionerIfN10Transition9EaseInOut9QuadraticEED2Ev
FN:20,_ZN12TransitionerIfN10Transition9EaseInOut7QuarticEED0Ev
FN:20,_ZN12TransitionerIfN10Transition7EaseOut7QuarticEED2Ev
FN:30,_ZN12TransitionerIfN10Transition6EaseIn5CubicEE4initERKfS5_S5_
FN:30,_ZN12TransitionerIfN10Transition7EaseOut9QuadraticEE4initERKfS5_S5_
FN:30,_ZN12TransitionerIfN10Transition6EaseIn7QuarticEE4initERKfS5_S5_
FN:30,_ZN12TransitionerIfN10Transition7EaseOut7QuarticEE4initERKfS5_S5_
FN:30,_ZN12TransitionerIfN10Transition9EaseInOut7QuinticEE4initERKfS5_S5_
FN:30,_ZN12TransitionerIfN10Transition7EaseOut5CubicEE4initERKfS5_S5_
FN:30,_ZN12TransitionerIfN10Transition6EaseIn9QuadraticEE4initERKfS5_S5_
FN:30,_ZN12TransitionerIfN10Transition6LinearEE4initERKfS4_S4_
FN:30,_ZN12TransitionerIfN10Transition9EaseInOut7QuarticEE4initERKfS5_S5_
FN:30,_ZN12TransitionerIfN10Transition7EaseOut7QuinticEE4initERKfS5_S5_
FN:30,_ZN12TransitionerIfN10Transition6EaseIn7QuinticEE4initERKfS5_S5_
FN:30,_ZN12TransitionerIfN10Transition9EaseInOut5CubicEE4initERKfS5_S5_
FN:30,_ZN12TransitionerIfN10Transition9EaseInOut9QuadraticEE4initERKfS5_S5_
FN:38,_ZN12TransitionerIfN10Transition6EaseIn7QuarticEE4stepERKf
FN:38,_ZN12TransitionerIfN10Transition6EaseIn5CubicEE4stepERKf
FN:38,_ZN12TransitionerIfN10Transition9EaseInOut7QuinticEE4stepERKf
FN:38,_ZN12TransitionerIfN10Transition7EaseOut7QuarticEE4stepERKf
FN:38,_ZN12TransitionerIfN10Transition7EaseOut9QuadraticEE4stepERKf
FN:38,_ZN12TransitionerIfN10Transition7EaseOut5CubicEE4stepERKf
FN:38,_ZN12TransitionerIfN10Transition6LinearEE4stepERKf
FN:38,_ZN12TransitionerIfN10Transition9EaseInOut9QuadraticEE4stepERKf
FN:38,_ZN12TransitionerIfN10Transition6EaseIn9QuadraticEE4stepERKf
FN:38,_ZN12TransitionerIfN10Transition7EaseOut7QuinticEE4stepERKf
FN:38,_ZN12TransitionerIfN10Transition9EaseInOut7QuarticEE4stepERKf
FN:38,_ZN12TransitionerIfN10Transition9EaseInOut5CubicEE4stepERKf
FN:38,_ZN12TransitionerIfN10Transition6EaseIn7QuinticEE4stepERKf
FN:58,_ZN12TransitionerIfN10Transition6EaseIn7QuinticEEC2ERf
FN:58,_ZN12TransitionerIfN10Transition7EaseOut7QuarticEEC2ERf
FN:58,_ZN12TransitionerIfN10Transition7EaseOut9QuadraticEEC2ERf
FN:58,_ZN12TransitionerIfN10Transition7EaseOut5CubicEEC2ERf
FN:58,_ZN12TransitionerIfN10Transition6EaseIn5CubicEEC2ERf
FN:58,_ZN12TransitionerIfN10Transition6EaseIn7QuarticEEC2ERf
FN:58,_ZN12TransitionerIfN10Transition7EaseOut7QuinticEEC2ERf
FN:58,_ZN12TransitionerIfN10Transition6LinearEEC2ERf
FN:58,_ZN12TransitionerIfN10Transition9EaseInOut5CubicEEC2ERf
FN:58,_ZN12TransitionerIfN10Transition9EaseInOut9QuadraticEEC2ERf
FN:58,_ZN12TransitionerIfN10Transition9EaseInOut7QuarticEEC2ERf
FN:58,_ZN12TransitionerIfN10Transition6EaseIn9QuadraticEEC2ERf
FN:58,_ZN12TransitionerIfN10Transition9EaseInOut7QuinticEEC2ERf
FNDA:0,_ZN12TransitionerIfN10Transition7EaseOut7QuinticEED0Ev
FNDA:0,_ZN12TransitionerIfN10Transition7EaseOut7QuinticEED2Ev
FNDA:0,_ZN12TransitionerIfN10Transition6EaseIn7QuinticEED0Ev
FNDA:0,_ZN12TransitionerIfN10Transition6EaseIn7QuinticEED2Ev
FNDA:0,_ZN12TransitionerIfN10Transition9EaseInOut7QuinticEED0Ev
FNDA:0,_ZN12TransitionerIfN10Transition9EaseInOut7QuinticEED2Ev
FNDA:0,_ZN12TransitionerIfN10Transition7EaseOut7QuarticEED0Ev
FNDA:0,_ZN12TransitionerIfN10Transition7EaseOut7QuarticEED2Ev
FNDA:0,_ZN12TransitionerIfN10Transition6EaseIn7QuarticEED0Ev
FNDA:0,_ZN12TransitionerIfN10Transition6EaseIn7QuarticEED2Ev
FNDA:0,_ZN12TransitionerIfN10Transition9EaseInOut7QuarticEED0Ev
FNDA:0,_ZN12TransitionerIfN10Transition9EaseInOut7QuarticEED2Ev
FNDA:0,_ZN12TransitionerIfN10Transition7EaseOut5CubicEED0Ev
FNDA:0,_ZN12TransitionerIfN10Transition7EaseOut5CubicEED2Ev
FNDA:0,_ZN12TransitionerIfN10Transition6EaseIn5CubicEED0Ev
FNDA:0,_ZN12TransitionerIfN10Transition6EaseIn5CubicEED2Ev
FNDA:0,_ZN12TransitionerIfN10Transition9EaseInOut5CubicEED0Ev
FNDA:0,_ZN12TransitionerIfN10Transition9EaseInOut5CubicEED2Ev
FNDA:0,_ZN12TransitionerIfN10Transition7EaseOut9QuadraticEED0Ev
FNDA:0,_ZN12TransitionerIfN10Transition7EaseOut9QuadraticEED2Ev
FNDA:0,_ZN12TransitionerIfN10Transition6EaseIn9QuadraticEED0Ev
FNDA:0,_ZN12TransitionerIfN10Transition6EaseIn9QuadraticEED2Ev
FNDA:0,_ZN12TransitionerIfN10Transition9EaseInOut9QuadraticEED0Ev
FNDA:0,_ZN12TransitionerIfN10Transition9EaseInOut9QuadraticEED2Ev
FNDA:0,_ZN12TransitionerIfN10Transition6LinearEED0Ev
FNDA:0,_ZN12TransitionerIfN10Transition6LinearEED2Ev
FNDA:0,_ZN12TransitionerIfN10Transition6LinearEE4initERKfS4_S4_
FNDA:0,_ZN12TransitionerIfN10Transition9EaseInOut9QuadraticEE4initERKfS5_S5_
FNDA:0,_ZN12TransitionerIfN10Transition6EaseIn9QuadraticEE4initERKfS5_S5_
FNDA:0,_ZN12TransitionerIfN10Transition7EaseOut9QuadraticEE4initERKfS5_S5_
FNDA:0,_ZN12TransitionerIfN10Transition9EaseInOut5CubicEE4initERKfS5_S5_
FNDA:0,_ZN12TransitionerIfN10Transition6EaseIn5CubicEE4initERKfS5_S5_
FNDA:0,_ZN12TransitionerIfN10Transition7EaseOut5CubicEE4initERKfS5_S5_
FNDA:0,_ZN12TransitionerIfN10Transition9EaseInOut7QuarticEE4initERKfS5_S5_
FNDA:0,_ZN12TransitionerIfN10Transition6EaseIn7QuarticEE4initERKfS5_S5_
FNDA:0,_ZN12TransitionerIfN10Transition7EaseOut7QuarticEE4initERKfS5_S5_
FNDA:0,_ZN12TransitionerIfN10Transition9EaseInOut7QuinticEE4initERKfS5_S5_
FNDA:0,_ZN12TransitionerIfN10Transition6EaseIn7QuinticEE4initERKfS5_S5_
FNDA:0,_ZN12TransitionerIfN10Transition7EaseOut7QuinticEE4initERKfS5_S5_
FNDA:0,_ZN12TransitionerIfN10Transition6LinearEE4stepERKf
FNDA:0,_ZN12TransitionerIfN10Transition9EaseInOut9QuadraticEE4stepERKf
FNDA:0,_ZN12TransitionerIfN10Transition6EaseIn9QuadraticEE4stepERKf
FNDA:0,_ZN12TransitionerIfN10Transition7EaseOut9QuadraticEE4stepERKf
FNDA:0,_ZN12TransitionerIfN10Transition9EaseInOut5CubicEE4stepERKf
FNDA:0,_ZN12TransitionerIfN10Transition6EaseIn5CubicEE4stepERKf
FNDA:0,_ZN12TransitionerIfN10Transition7EaseOut5CubicEE4stepERKf
FNDA:0,_ZN12TransitionerIfN10Transition9EaseInOut7QuarticEE4stepERKf
FNDA:0,_ZN12TransitionerIfN10Transition6EaseIn7QuarticEE4stepERKf
FNDA:0,_ZN12TransitionerIfN10Transition7EaseOut7QuarticEE4stepERKf
FNDA:0,_ZN12TransitionerIfN10Transition9EaseInOut7QuinticEE4stepERKf
FNDA:0,_ZN12TransitionerIfN10Transition6EaseIn7QuinticEE4stepERKf
FNDA:0,_ZN12TransitionerIfN10Transition7EaseOut7QuinticEE4stepERKf
FNDA:0,_ZN12TransitionerIfN10Transition7EaseOut7QuinticEEC2ERf
FNDA:0,_ZN12TransitionerIfN10Transition6EaseIn7QuinticEEC2ERf
FNDA:0,_ZN12TransitionerIfN10Transition9EaseInOut7QuinticEEC2ERf
FNDA:0,_ZN12TransitionerIfN10Transition7EaseOut7QuarticEEC2ERf
FNDA:0,_ZN12TransitionerIfN10Transition6EaseIn7QuarticEEC2ERf
FNDA:0,_ZN12TransitionerIfN10Transition9EaseInOut7QuarticEEC2ERf
FNDA:0,_ZN12TransitionerIfN10Transition7EaseOut5CubicEEC2ERf
FNDA:0,_ZN12TransitionerIfN10Transition6EaseIn5CubicEEC2ERf
FNDA:0,_ZN12TransitionerIfN10Transition9EaseInOut5CubicEEC2ERf
FNDA:0,_ZN12TransitionerIfN10Transition7EaseOut9QuadraticEEC2ERf
FNDA:0,_ZN12TransitionerIfN10Transition6EaseIn9QuadraticEEC2ERf
FNDA:0,_ZN12TransitionerIfN10Transition9EaseInOut9QuadraticEEC2ERf
FNDA:0,_ZN12TransitionerIfN10Transition6LinearEEC2ERf
FNF:65
FNH:0
BRDA:40,0,0,-
BRDA:40,0,1,-
BRDA:40,1,2,-
BRDA:40,1,3,-
BRDA:40,2,4,-
BRDA:40,2,5,-
BRDA:40,3,6,-
BRDA:40,3,7,-
BRDA:40,4,8,-
BRDA:40,4,9,-
BRDA:40,5,10,-
BRDA:40,5,11,-
BRDA:40,6,12,-
BRDA:40,6,13,-
BRDA:40,7,14,-
BRDA:40,7,15,-
BRDA:40,8,16,-
BRDA:40,8,17,-
BRDA:40,9,18,-
BRDA:40,9,19,-
BRDA:40,10,20,-
BRDA:40,10,21,-
BRDA:40,11,22,-
BRDA:40,11,23,-
BRDA:40,12,24,-
BRDA:40,12,25,-
BRDA:44,0,0,-
BRDA:44,0,1,-
BRDA:44,1,2,-
BRDA:44,1,3,-
BRDA:44,2,4,-
BRDA:44,2,5,-
BRDA:44,3,6,-
BRDA:44,3,7,-
BRDA:44,4,8,-
BRDA:44,4,9,-
BRDA:44,5,10,-
BRDA:44,5,11,-
BRDA:44,6,12,-
BRDA:44,6,13,-
BRDA:44,7,14,-
BRDA:44,7,15,-
BRDA:44,8,16,-
BRDA:44,8,17,-
BRDA:44,9,18,-
BRDA:44,9,19,-
BRDA:44,10,20,-
BRDA:44,10,21,-
BRDA:44,11,22,-
BRDA:44,11,23,-
BRDA:44,12,24,-
BRDA:44,12,25,-
BRDA:58,1,2,-
BRDA:58,1,3,-
BRDA:58,5,7,-
BRDA:58,5,8,-
BRDA:58,9,12,-
BRDA:58,9,13,-
BRDA:58,13,17,-
BRDA:58,13,18,-
BRDA:58,17,22,-
BRDA:58,17,23,-
BRDA:58,21,27,-
BRDA:58,21,28,-
BRDA:58,25,32,-
BRDA:58,25,33,-
BRDA:58,29,37,-
BRDA:58,29,38,-
BRDA:58,33,42,-
BRDA:58,33,43,-
BRDA:58,37,47,-
BRDA:58,37,48,-
BRDA:58,41,52,-
BRDA:58,41,53,-
BRDA:58,45,57,-
BRDA:58,45,58,-
BRDA:58,49,62,-
BRDA:58,49,63,-
BRF:78
BRH:0
DA:20,0
DA:30,0
DA:31,0
DA:32,0
DA:33,0
DA:34,0
DA:35,0
DA:36,0
DA:38,0
DA:39,0
DA:40,0
DA:41,0
DA:42,0
DA:44,0
DA:45,0
DA:46,0
DA:48,0
DA:58,0
LF:18
LH:0
end_of_record
SF:/SharedWithWindows/Projects/diginstrument/inc/iSource.h
FN:15,_ZN8DataFlow7iSourceIfEC2Ev
FN:28,_ZN8DataFlow7iSourceIfED2Ev
FN:28,_ZN8DataFlow7iSourceIfED0Ev
FNDA:0,_ZN8DataFlow7iSourceIfEC2Ev
FNDA:0,_ZN8DataFlow7iSourceIfED0Ev
FNDA:0,_ZN8DataFlow7iSourceIfED2Ev
FNF:3
FNH:0
DA:15,0
DA:28,0
LF:2
LH:0
end_of_record
SF:/SharedWithWindows/Projects/diginstrument/inc/iTransitioner.h
FN:11,_ZN13iTransitionerIfEC2Ev
FN:33,_ZN13iTransitionerIfED2Ev
FN:33,_ZN13iTransitionerIfED0Ev
FNDA:0,_ZN13iTransitionerIfEC2Ev
FNDA:0,_ZN13iTransitionerIfED0Ev
FNDA:0,_ZN13iTransitionerIfED2Ev
FNF:3
FNH:0
DA:11,0
DA:33,0
LF:2
LH:0
end_of_record
SF:/SharedWithWindows/Projects/diginstrument/inc/iWaveformGenerator.h
FN:10,_ZN5Mixer18iWaveformGeneratorIfEC2Ev
FN:67,_ZN5Mixer18iWaveformGeneratorIfED2Ev
FN:67,_ZN5Mixer18iWaveformGeneratorIfED0Ev
FNDA:644,_ZN5Mixer18iWaveformGeneratorIfEC2Ev
FNDA:0,_ZN5Mixer18iWaveformGeneratorIfED0Ev
FNDA:0,_ZN5Mixer18iWaveformGeneratorIfED2Ev
FNF:3
FNH:1
DA:10,1288
DA:67,0
LF:2
LH:1
end_of_record
SF:/SharedWithWindows/Projects/diginstrument/src/cheap_sawtooth_generator.cpp
FN:4,_ZN5Mixer22CheapSawtoothGeneratorIfEC2ERKfRKjS5_
FN:11,_ZN5Mixer22CheapSawtoothGeneratorIfE3getERKj
FN:34,_ZNK5Mixer22CheapSawtoothGeneratorIfE12getFrequencyEv
FN:40,_ZN5Mixer22CheapSawtoothGeneratorIfE12setFrequencyERKf
FN:48,_ZN5Mixer22CheapSawtoothGeneratorIfE12setFrequencyERKfS3_NSt7__cxx1112basic_stringIcSt11char_traitsIcESaIcEEERKj
FNDA:5,_ZN5Mixer22CheapSawtoothGeneratorIfEC2ERKfRKjS5_
FNDA:16,_ZN5Mixer22CheapSawtoothGeneratorIfE3getERKj
FNDA:15,_ZNK5Mixer22CheapSawtoothGeneratorIfE12getFrequencyEv
FNDA:1,_ZN5Mixer22CheapSawtoothGeneratorIfE12setFrequencyERKf
FNDA:13,_ZN5Mixer22CheapSawtoothGeneratorIfE12setFrequencyERKfS3_NSt7__cxx1112basic_stringIcSt11char_traitsIcESaIcEEERKj
FNF:5
FNH:5
BRDA:13,0,2,16
BRDA:13,0,3,0
BRDA:14,0,0,625118
BRDA:14,0,1,16
BRDA:15,1,1,1250236
BRDA:15,1,2,625118
BRDA:20,0,0,896
BRDA:20,0,1,624222
BRDA:23,0,1,624000
BRDA:23,0,2,1118
BRDA:23,1,4,624000
BRDA:23,1,5,0
BRDA:23,4,6,624000
BRDA:23,4,7,1118
BRDA:25,0,2,624000
BRDA:25,0,3,0
BRDA:26,0,2,624000
BRDA:26,0,3,0
BRDA:55,4294967295,1,13
BRDA:55,4294967295,2,0
BRDA:55,0,3,1
BRDA:55,0,4,12
BRDA:57,0,1,1
BRDA:57,0,2,0
BRDA:58,4294967295,1,1
BRDA:58,4294967295,2,0
BRDA:60,0,0,4
BRDA:60,0,1,3
BRDA:60,0,2,3
BRDA:60,0,3,3
BRDA:60,0,4,0
BRDA:63,0,1,4
BRDA:63,0,2,0
BRDA:63,1,3,1
BRDA:63,1,4,3
BRDA:65,0,1,1
BRDA:65,0,2,0
BRDA:66,4294967295,1,1
BRDA:66,4294967295,2,0
BRDA:69,0,1,3
BRDA:69,0,2,0
BRDA:69,1,3,1
BRDA:69,1,4,2
BRDA:71,0,1,1
BRDA:71,0,2,0
BRDA:72,4294967295,1,1
BRDA:72,4294967295,2,0
BRDA:75,0,1,2
BRDA:75,0,2,0
BRDA:75,1,3,1
BRDA:75,1,4,1
BRDA:77,0,1,1
BRDA:77,0,2,0
BRDA:78,4294967295,1,1
BRDA:78,4294967295,2,0
BRDA:83,0,1,4
BRDA:83,0,2,0
BRDA:83,1,3,1
BRDA:83,1,4,3
BRDA:85,0,1,1
BRDA:85,0,2,0
BRDA:86,4294967295,1,1
BRDA:86,4294967295,2,0
BRDA:89,0,1,3
BRDA:89,0,2,0
BRDA:89,1,3,1
BRDA:89,1,4,2
BRDA:91,0,1,1
BRDA:91,0,2,0
BRDA:92,4294967295,1,1
BRDA:92,4294967295,2,0
BRDA:95,0,1,2
BRDA:95,0,2,0
BRDA:95,1,3,1
BRDA:95,1,4,1
BRDA:97,0,1,1
BRDA:97,0,2,0
BRDA:98,4294967295,1,1
BRDA:98,4294967295,2,0
BRDA:103,0,1,4
BRDA:103,0,2,0
BRDA:103,1,3,1
BRDA:103,1,4,3
BRDA:105,0,1,1
BRDA:105,0,2,0
BRDA:106,4294967295,1,1
BRDA:106,4294967295,2,0
BRDA:109,0,1,3
BRDA:109,0,2,0
BRDA:109,1,3,1
BRDA:109,1,4,2
BRDA:111,0,1,1
BRDA:111,0,2,0
BRDA:112,4294967295,1,1
BRDA:112,4294967295,2,0
BRDA:115,0,1,2
BRDA:115,0,2,0
BRDA:115,1,3,1
BRDA:115,1,4,1
BRDA:117,0,1,1
BRDA:117,0,2,0
BRDA:118,4294967295,1,1
BRDA:118,4294967295,2,0
BRDA:123,0,1,4
BRDA:123,0,2,0
BRDA:123,1,3,1
BRDA:123,1,4,3
BRDA:125,0,1,1
BRDA:125,0,2,0
BRDA:126,4294967295,1,1
BRDA:126,4294967295,2,0
BRDA:129,0,1,3
BRDA:129,0,2,0
BRDA:129,1,3,1
BRDA:129,1,4,2
BRDA:131,0,1,1
BRDA:131,0,2,0
BRDA:132,4294967295,1,1
BRDA:132,4294967295,2,0
BRDA:135,0,1,2
BRDA:135,0,2,0
BRDA:135,1,3,1
BRDA:135,1,4,1
BRDA:137,0,1,1
BRDA:137,0,2,0
BRDA:138,4294967295,1,1
BRDA:138,4294967295,2,0
BRDA:142,0,1,1
BRDA:142,0,2,0
BRDA:143,4294967295,1,1
BRDA:143,4294967295,2,0
BRDA:146,0,2,13
BRDA:146,0,3,0
BRDA:147,0,2,13
BRDA:147,0,3,0
BRF:135
BRH:87
DA:4,10
DA:6,5
DA:7,5
DA:8,5
DA:11,16
DA:13,32
DA:14,625134
DA:15,1875354
DA:17,1250236
DA:19,625118
DA:20,625118
DA:21,896
DA:23,625118
DA:25,624000
DA:26,624000
DA:30,32
DA:34,15
DA:36,15
DA:40,1
DA:42,1
DA:43,1
DA:44,1
DA:45,1
DA:48,13
DA:50,13
DA:51,13
DA:52,13
DA:53,13
DA:55,13
DA:57,1
DA:58,1
DA:60,13
DA:63,4
DA:65,1
DA:66,1
DA:67,1
DA:69,3
DA:71,1
DA:72,1
DA:73,1
DA:75,2
DA:77,1
DA:78,1
DA:79,1
DA:83,4
DA:85,1
DA:86,1
DA:87,1
DA:89,3
DA:91,1
DA:92,1
DA:93,1
DA:95,2
DA:97,1
DA:98,1
DA:99,1
DA:103,4
DA:105,1
DA:106,1
DA:107,1
DA:109,3
DA:111,1
DA:112,1
DA:113,1
DA:115,2
DA:117,1
DA:118,1
DA:119,1
DA:123,4
DA:125,1
DA:126,1
DA:127,1
DA:129,3
DA:131,1
DA:132,1
DA:133,1
DA:135,2
DA:137,1
DA:138,1
DA:139,1
DA:142,1
DA:143,1
DA:146,13
DA:147,13
DA:148,13
LF:85
LH:85
end_of_record
TN:
SF:/SharedWithWindows/Projects/diginstrument/inc/AudioSource.h
FN:23,_ZNK5Mixer11AudioSource11getChannelsEv
FN:30,_ZNK5Mixer11AudioSource13getSampleRateEv
FN:33,_ZN5Mixer11AudioSourceC2ERKjS2_
FNDA:0,_ZNK5Mixer11AudioSource11getChannelsEv
FNDA:0,_ZNK5Mixer11AudioSource13getSampleRateEv
FNDA:0,_ZN5Mixer11AudioSourceC2ERKjS2_
FNF:3
FNH:0
DA:23,0
DA:30,0
DA:33,0
LF:3
LH:0
end_of_record
SF:/SharedWithWindows/Projects/diginstrument/inc/CheapSquareGenerator.h
FN:25,_ZN5Mixer20CheapSquareGeneratorIfED0Ev
FN:25,_ZN5Mixer20CheapSquareGeneratorIfED2Ev
FNDA:0,_ZN5Mixer20CheapSquareGeneratorIfED0Ev
FNDA:0,_ZN5Mixer20CheapSquareGeneratorIfED2Ev
FNF:2
FNH:0
DA:25,0
LF:1
LH:0
end_of_record
SF:/SharedWithWindows/Projects/diginstrument/inc/TransitionFunction.h
FN:17,_ZN18TransitionFunctionIfEC2Ev
FN:43,_ZN18TransitionFunctionIfED2Ev
FN:43,_ZN18TransitionFunctionIfED0Ev
FNDA:0,_ZN18TransitionFunctionIfEC2Ev
FNDA:0,_ZN18TransitionFunctionIfED0Ev
FNDA:0,_ZN18TransitionFunctionIfED2Ev
FNF:3
FNH:0
DA:17,0
DA:43,0
LF:2
LH:0
end_of_record
SF:/SharedWithWindows/Projects/diginstrument/inc/TransitionFunctions.h
FN:19,_ZN10Transition6LinearIfEC2Ev
FN:19,_ZN10Transition6LinearIfED2Ev
FN:19,_ZN10Transition6LinearIfED0Ev
FN:21,_ZN10Transition6LinearIfE4initERKfS3_S3_S3_
FN:27,_ZN10Transition6LinearIfEclERKf
FN:42,_ZN10Transition6EaseIn9QuadraticIfED0Ev
FN:42,_ZN10Transition6EaseIn9QuadraticIfED2Ev
FN:42,_ZN10Transition6EaseIn9QuadraticIfEC2Ev
FN:44,_ZN10Transition6EaseIn9QuadraticIfE4initERKfS4_S4_S4_
FN:50,_ZN10Transition6EaseIn9QuadraticIfEclERKf
FN:58,_ZN10Transition6EaseIn5CubicIfED2Ev
FN:58,_ZN10Transition6EaseIn5CubicIfEC2Ev
FN:58,_ZN10Transition6EaseIn5CubicIfED0Ev
FN:60,_ZN10Transition6EaseIn5CubicIfE4initERKfS4_S4_S4_
FN:66,_ZN10Transition6EaseIn5CubicIfEclERKf
FN:74,_ZN10Transition6EaseIn7QuarticIfED0Ev
FN:74,_ZN10Transition6EaseIn7QuarticIfED2Ev
FN:74,_ZN10Transition6EaseIn7QuarticIfEC2Ev
FN:76,_ZN10Transition6EaseIn7QuarticIfE4initERKfS4_S4_S4_
FN:82,_ZN10Transition6EaseIn7QuarticIfEclERKf
FN:89,_ZN10Transition6EaseIn7QuinticIfEC2Ev
FN:89,_ZN10Transition6EaseIn7QuinticIfED0Ev
FN:89,_ZN10Transition6EaseIn7QuinticIfED2Ev
FN:91,_ZN10Transition6EaseIn7QuinticIfE4initERKfS4_S4_S4_
FN:97,_ZN10Transition6EaseIn7QuinticIfEclERKf
FN:114,_ZN10Transition7EaseOut9QuadraticIfEC2Ev
FN:114,_ZN10Transition7EaseOut9QuadraticIfED0Ev
FN:114,_ZN10Transition7EaseOut9QuadraticIfED2Ev
FN:116,_ZN10Transition7EaseOut9QuadraticIfE4initERKfS4_S4_S4_
FN:122,_ZN10Transition7EaseOut9QuadraticIfEclERKf
FN:130,_ZN10Transition7EaseOut5CubicIfED0Ev
FN:130,_ZN10Transition7EaseOut5CubicIfED2Ev
FN:130,_ZN10Transition7EaseOut5CubicIfEC2Ev
FN:132,_ZN10Transition7EaseOut5CubicIfE4initERKfS4_S4_S4_
FN:138,_ZN10Transition7EaseOut5CubicIfEclERKf
FN:146,_ZN10Transition7EaseOut7QuarticIfED0Ev
FN:146,_ZN10Transition7EaseOut7QuarticIfED2Ev
FN:146,_ZN10Transition7EaseOut7QuarticIfEC2Ev
FN:148,_ZN10Transition7EaseOut7QuarticIfE4initERKfS4_S4_S4_
FN:154,_ZN10Transition7EaseOut7QuarticIfEclERKf
FN:162,_ZN10Transition7EaseOut7QuinticIfEC2Ev
FN:162,_ZN10Transition7EaseOut7QuinticIfED2Ev
FN:162,_ZN10Transition7EaseOut7QuinticIfED0Ev
FN:164,_ZN10Transition7EaseOut7QuinticIfE4initERKfS4_S4_S4_
FN:170,_ZN10Transition7EaseOut7QuinticIfEclERKf
FN:186,_ZN10Transition9EaseInOut9QuadraticIfEC2Ev
FN:186,_ZN10Transition9EaseInOut9QuadraticIfED2Ev
FN:186,_ZN10Transition9EaseInOut9QuadraticIfED0Ev
FN:188,_ZN10Transition9EaseInOut9QuadraticIfE4initERKfS4_S4_S4_
FN:195,_ZN10Transition9EaseInOut9QuadraticIfEclERKf
FN:204,_ZN10Transition9EaseInOut5CubicIfEC2Ev
FN:204,_ZN10Transition9EaseInOut5CubicIfED0Ev
FN:204,_ZN10Transition9EaseInOut5CubicIfED2Ev
FN:206,_ZN10Transition9EaseInOut5CubicIfE4initERKfS4_S4_S4_
FN:213,_ZN10Transition9EaseInOut5CubicIfEclERKf
FN:222,_ZN10Transition9EaseInOut7QuarticIfEC2Ev
FN:222,_ZN10Transition9EaseInOut7QuarticIfED0Ev
FN:222,_ZN10Transition9EaseInOut7QuarticIfED2Ev
FN:224,_ZN10Transition9EaseInOut7QuarticIfE4initERKfS4_S4_S4_
FN:231,_ZN10Transition9EaseInOut7QuarticIfEclERKf
FN:240,_ZN10Transition9EaseInOut7QuinticIfED0Ev
FN:240,_ZN10Transition9EaseInOut7QuinticIfED2Ev
FN:240,_ZN10Transition9EaseInOut7QuinticIfEC2Ev
FN:242,_ZN10Transition9EaseInOut7QuinticIfE4initERKfS4_S4_S4_
FN:249,_ZN10Transition9EaseInOut7QuinticIfEclERKf
FNDA:0,_ZN10Transition6LinearIfED0Ev
FNDA:0,_ZN10Transition6LinearIfED2Ev
FNDA:0,_ZN10Transition6LinearIfEC2Ev
FNDA:0,_ZN10Transition6LinearIfE4initERKfS3_S3_S3_
FNDA:0,_ZN10Transition6LinearIfEclERKf
FNDA:0,_ZN10Transition6EaseIn9QuadraticIfED0Ev
FNDA:0,_ZN10Transition6EaseIn9QuadraticIfED2Ev
FNDA:0,_ZN10Transition6EaseIn9QuadraticIfEC2Ev
FNDA:0,_ZN10Transition6EaseIn9QuadraticIfE4initERKfS4_S4_S4_
FNDA:0,_ZN10Transition6EaseIn9QuadraticIfEclERKf
FNDA:0,_ZN10Transition6EaseIn5CubicIfED0Ev
FNDA:0,_ZN10Transition6EaseIn5CubicIfED2Ev
FNDA:0,_ZN10Transition6EaseIn5CubicIfEC2Ev
FNDA:0,_ZN10Transition6EaseIn5CubicIfE4initERKfS4_S4_S4_
FNDA:0,_ZN10Transition6EaseIn5CubicIfEclERKf
FNDA:0,_ZN10Transition6EaseIn7QuarticIfED0Ev
FNDA:0,_ZN10Transition6EaseIn7QuarticIfED2Ev
FNDA:0,_ZN10Transition6EaseIn7QuarticIfEC2Ev
FNDA:0,_ZN10Transition6EaseIn7QuarticIfE4initERKfS4_S4_S4_
FNDA:0,_ZN10Transition6EaseIn7QuarticIfEclERKf
FNDA:0,_ZN10Transition6EaseIn7QuinticIfED0Ev
FNDA:0,_ZN10Transition6EaseIn7QuinticIfED2Ev
FNDA:0,_ZN10Transition6EaseIn7QuinticIfEC2Ev
FNDA:0,_ZN10Transition6EaseIn7QuinticIfE4initERKfS4_S4_S4_
FNDA:0,_ZN10Transition6EaseIn7QuinticIfEclERKf
FNDA:0,_ZN10Transition7EaseOut9QuadraticIfED0Ev
FNDA:0,_ZN10Transition7EaseOut9QuadraticIfED2Ev
FNDA:0,_ZN10Transition7EaseOut9QuadraticIfEC2Ev
FNDA:0,_ZN10Transition7EaseOut9QuadraticIfE4initERKfS4_S4_S4_
FNDA:0,_ZN10Transition7EaseOut9QuadraticIfEclERKf
FNDA:0,_ZN10Transition7EaseOut5CubicIfED0Ev
FNDA:0,_ZN10Transition7EaseOut5CubicIfED2Ev
FNDA:0,_ZN10Transition7EaseOut5CubicIfEC2Ev
FNDA:0,_ZN10Transition7EaseOut5CubicIfE4initERKfS4_S4_S4_
FNDA:0,_ZN10Transition7EaseOut5CubicIfEclERKf
FNDA:0,_ZN10Transition7EaseOut7QuarticIfED0Ev
FNDA:0,_ZN10Transition7EaseOut7QuarticIfED2Ev
FNDA:0,_ZN10Transition7EaseOut7QuarticIfEC2Ev
FNDA:0,_ZN10Transition7EaseOut7QuarticIfE4initERKfS4_S4_S4_
FNDA:0,_ZN10Transition7EaseOut7QuarticIfEclERKf
FNDA:0,_ZN10Transition7EaseOut7QuinticIfED0Ev
FNDA:0,_ZN10Transition7EaseOut7QuinticIfED2Ev
FNDA:0,_ZN10Transition7EaseOut7QuinticIfEC2Ev
FNDA:0,_ZN10Transition7EaseOut7QuinticIfE4initERKfS4_S4_S4_
FNDA:0,_ZN10Transition7EaseOut7QuinticIfEclERKf
FNDA:0,_ZN10Transition9EaseInOut9QuadraticIfED0Ev
FNDA:0,_ZN10Transition9EaseInOut9QuadraticIfED2Ev
FNDA:0,_ZN10Transition9EaseInOut9QuadraticIfEC2Ev
FNDA:0,_ZN10Transition9EaseInOut9QuadraticIfE4initERKfS4_S4_S4_
FNDA:0,_ZN10Transition9EaseInOut9QuadraticIfEclERKf
FNDA:0,_ZN10Transition9EaseInOut5CubicIfED0Ev
FNDA:0,_ZN10Transition9EaseInOut5CubicIfED2Ev
FNDA:0,_ZN10Transition9EaseInOut5CubicIfEC2Ev
FNDA:0,_ZN10Transition9EaseInOut5CubicIfE4initERKfS4_S4_S4_
FNDA:0,_ZN10Transition9EaseInOut5CubicIfEclERKf
FNDA:0,_ZN10Transition9EaseInOut7QuarticIfED0Ev
FNDA:0,_ZN10Transition9EaseInOut7QuarticIfED2Ev
FNDA:0,_ZN10Transition9EaseInOut7QuarticIfEC2Ev
FNDA:0,_ZN10Transition9EaseInOut7QuarticIfE4initERKfS4_S4_S4_
FNDA:0,_ZN10Transition9EaseInOut7QuarticIfEclERKf
FNDA:0,_ZN10Transition9EaseInOut7QuinticIfED0Ev
FNDA:0,_ZN10Transition9EaseInOut7QuinticIfED2Ev
FNDA:0,_ZN10Transition9EaseInOut7QuinticIfEC2Ev
FNDA:0,_ZN10Transition9EaseInOut7QuinticIfE4initERKfS4_S4_S4_
FNDA:0,_ZN10Transition9EaseInOut7QuinticIfEclERKf
FNF:65
FNH:0
DA:19,0
DA:21,0
DA:22,0
DA:23,0
DA:24,0
DA:25,0
DA:27,0
DA:28,0
DA:42,0
DA:44,0
DA:45,0
DA:46,0
DA:47,0
DA:48,0
DA:50,0
DA:51,0
DA:58,0
DA:60,0
DA:61,0
DA:62,0
DA:63,0
DA:64,0
DA:66,0
DA:67,0
DA:74,0
DA:76,0
DA:77,0
DA:78,0
DA:79,0
DA:80,0
DA:82,0
DA:83,0
DA:89,0
DA:91,0
DA:92,0
DA:93,0
DA:94,0
DA:95,0
DA:97,0
DA:98,0
DA:114,0
DA:116,0
DA:117,0
DA:118,0
DA:119,0
DA:120,0
DA:122,0
DA:123,0
DA:130,0
DA:132,0
DA:133,0
DA:134,0
DA:135,0
DA:136,0
DA:138,0
DA:139,0
DA:146,0
DA:148,0
DA:149,0
DA:150,0
DA:151,0
DA:152,0
DA:154,0
DA:155,0
DA:162,0
DA:164,0
DA:165,0
DA:166,0
DA:167,0
DA:168,0
DA:170,0
DA:171,0
DA:186,0
DA:188,0
DA:189,0
DA:190,0
DA:191,0
DA:192,0
DA:193,0
DA:195,0
DA:196,0
DA:197,0
DA:204,0
DA:206,0
DA:207,0
DA:208,0
DA:209,0
DA:210,0
DA:211,0
DA:213,0
DA:214,0
DA:215,0
DA:222,0
DA:224,0
DA:225,0
DA:226,0
DA:227,0
DA:228,0
DA:229,0
DA:231,0
DA:232,0
DA:233,0
DA:240,0
DA:242,0
DA:243,0
DA:244,0
DA:245,0
DA:246,0
DA:247,0
DA:249,0
DA:250,0
DA:251,0
LF:112
LH:0
end_of_record
SF:/SharedWithWindows/Projects/diginstrument/inc/Transitioner.h
FN:20,_ZN12TransitionerIfN10Transition9EaseInOut7QuarticEED0Ev
FN:20,_ZN12TransitionerIfN10Transition7EaseOut7QuarticEED2Ev
FN:20,_ZN12TransitionerIfN10Transition9EaseInOut9QuadraticEED2Ev
FN:20,_ZN12TransitionerIfN10Transition6EaseIn7QuarticEED2Ev
FN:20,_ZN12TransitionerIfN10Transition6LinearEED0Ev
FN:20,_ZN12TransitionerIfN10Transition7EaseOut9QuadraticEED0Ev
FN:20,_ZN12TransitionerIfN10Transition9EaseInOut9QuadraticEED0Ev
FN:20,_ZN12TransitionerIfN10Transition9EaseInOut7QuinticEED2Ev
FN:20,_ZN12TransitionerIfN10Transition7EaseOut5CubicEED2Ev
FN:20,_ZN12TransitionerIfN10Transition7EaseOut7QuarticEED0Ev
FN:20,_ZN12TransitionerIfN10Transition7EaseOut5CubicEED0Ev
FN:20,_ZN12TransitionerIfN10Transition6EaseIn9QuadraticEED0Ev
FN:20,_ZN12TransitionerIfN10Transition9EaseInOut5CubicEED2Ev
FN:20,_ZN12TransitionerIfN10Transition6EaseIn7QuarticEED0Ev
FN:20,_ZN12TransitionerIfN10Transition7EaseOut9QuadraticEED2Ev
FN:20,_ZN12TransitionerIfN10Transition7EaseOut7QuinticEED2Ev
FN:20,_ZN12TransitionerIfN10Transition6EaseIn7QuinticEED2Ev
FN:20,_ZN12TransitionerIfN10Transition6EaseIn9QuadraticEED2Ev
FN:20,_ZN12TransitionerIfN10Transition6EaseIn5CubicEED0Ev
FN:20,_ZN12TransitionerIfN10Transition7EaseOut7QuinticEED0Ev
FN:20,_ZN12TransitionerIfN10Transition9EaseInOut7QuarticEED2Ev
FN:20,_ZN12TransitionerIfN10Transition6EaseIn5CubicEED2Ev
FN:20,_ZN12TransitionerIfN10Transition6LinearEED2Ev
FN:20,_ZN12TransitionerIfN10Transition9EaseInOut5CubicEED0Ev
FN:20,_ZN12TransitionerIfN10Transition9EaseInOut7QuinticEED0Ev
FN:20,_ZN12TransitionerIfN10Transition6EaseIn7QuinticEED0Ev
FN:30,_ZN12TransitionerIfN10Transition7EaseOut7QuinticEE4initERKfS5_S5_
FN:30,_ZN12TransitionerIfN10Transition9EaseInOut7QuarticEE4initERKfS5_S5_
FN:30,_ZN12TransitionerIfN10Transition6LinearEE4initERKfS4_S4_
FN:30,_ZN12TransitionerIfN10Transition9EaseInOut5CubicEE4initERKfS5_S5_
FN:30,_ZN12TransitionerIfN10Transition9EaseInOut9QuadraticEE4initERKfS5_S5_
FN:30,_ZN12TransitionerIfN10Transition6EaseIn7QuinticEE4initERKfS5_S5_
FN:30,_ZN12TransitionerIfN10Transition6EaseIn9QuadraticEE4initERKfS5_S5_
FN:30,_ZN12TransitionerIfN10Transition6EaseIn7QuarticEE4initERKfS5_S5_
FN:30,_ZN12TransitionerIfN10Transition7EaseOut7QuarticEE4initERKfS5_S5_
FN:30,_ZN12TransitionerIfN10Transition7EaseOut9QuadraticEE4initERKfS5_S5_
FN:30,_ZN12TransitionerIfN10Transition7EaseOut5CubicEE4initERKfS5_S5_
FN:30,_ZN12TransitionerIfN10Transition9EaseInOut7QuinticEE4initERKfS5_S5_
FN:30,_ZN12TransitionerIfN10Transition6EaseIn5CubicEE4initERKfS5_S5_
FN:38,_ZN12TransitionerIfN10Transition9EaseInOut7QuarticEE4stepERKf
FN:38,_ZN12TransitionerIfN10Transition9EaseInOut5CubicEE4stepERKf
FN:38,_ZN12TransitionerIfN10Transition6EaseIn9QuadraticEE4stepERKf
FN:38,_ZN12TransitionerIfN10Transition7EaseOut7QuinticEE4stepERKf
FN:38,_ZN12TransitionerIfN10Transition6EaseIn7QuinticEE4stepERKf
FN:38,_ZN12TransitionerIfN10Transition7EaseOut5CubicEE4stepERKf
FN:38,_ZN12TransitionerIfN10Transition6LinearEE4stepERKf
FN:38,_ZN12TransitionerIfN10Transition9EaseInOut9QuadraticEE4stepERKf
FN:38,_ZN12TransitionerIfN10Transition7EaseOut9QuadraticEE4stepERKf
FN:38,_ZN12TransitionerIfN10Transition7EaseOut7QuarticEE4stepERKf
FN:38,_ZN12TransitionerIfN10Transition6EaseIn5CubicEE4stepERKf
FN:38,_ZN12TransitionerIfN10Transition6EaseIn7QuarticEE4stepERKf
FN:38,_ZN12TransitionerIfN10Transition9EaseInOut7QuinticEE4stepERKf
FN:58,_ZN12TransitionerIfN10Transition9EaseInOut7QuarticEEC2ERf
FN:58,_ZN12TransitionerIfN10Transition9EaseInOut9QuadraticEEC2ERf
FN:58,_ZN12TransitionerIfN10Transition9EaseInOut5CubicEEC2ERf
FN:58,_ZN12TransitionerIfN10Transition9EaseInOut7QuinticEEC2ERf
FN:58,_ZN12TransitionerIfN10Transition6EaseIn9QuadraticEEC2ERf
FN:58,_ZN12TransitionerIfN10Transition6LinearEEC2ERf
FN:58,_ZN12TransitionerIfN10Transition6EaseIn5CubicEEC2ERf
FN:58,_ZN12TransitionerIfN10Transition6EaseIn7QuarticEEC2ERf
FN:58,_ZN12TransitionerIfN10Transition7EaseOut7QuinticEEC2ERf
FN:58,_ZN12TransitionerIfN10Transition6EaseIn7QuinticEEC2ERf
FN:58,_ZN12TransitionerIfN10Transition7EaseOut7QuarticEEC2ERf
FN:58,_ZN12TransitionerIfN10Transition7EaseOut9QuadraticEEC2ERf
FN:58,_ZN12TransitionerIfN10Transition7EaseOut5CubicEEC2ERf
FNDA:0,_ZN12TransitionerIfN10Transition7EaseOut7QuinticEED0Ev
FNDA:0,_ZN12TransitionerIfN10Transition7EaseOut7QuinticEED2Ev
FNDA:0,_ZN12TransitionerIfN10Transition6EaseIn7QuinticEED0Ev
FNDA:0,_ZN12TransitionerIfN10Transition6EaseIn7QuinticEED2Ev
FNDA:0,_ZN12TransitionerIfN10Transition9EaseInOut7QuinticEED0Ev
FNDA:0,_ZN12TransitionerIfN10Transition9EaseInOut7QuinticEED2Ev
FNDA:0,_ZN12TransitionerIfN10Transition7EaseOut7QuarticEED0Ev
FNDA:0,_ZN12TransitionerIfN10Transition7EaseOut7QuarticEED2Ev
FNDA:0,_ZN12TransitionerIfN10Transition6EaseIn7QuarticEED0Ev
FNDA:0,_ZN12TransitionerIfN10Transition6EaseIn7QuarticEED2Ev
FNDA:0,_ZN12TransitionerIfN10Transition9EaseInOut7QuarticEED0Ev
FNDA:0,_ZN12TransitionerIfN10Transition9EaseInOut7QuarticEED2Ev
FNDA:0,_ZN12TransitionerIfN10Transition7EaseOut5CubicEED0Ev
FNDA:0,_ZN12TransitionerIfN10Transition7EaseOut5CubicEED2Ev
FNDA:0,_ZN12TransitionerIfN10Transition6EaseIn5CubicEED0Ev
FNDA:0,_ZN12TransitionerIfN10Transition6EaseIn5CubicEED2Ev
FNDA:0,_ZN12TransitionerIfN10Transition9EaseInOut5CubicEED0Ev
FNDA:0,_ZN12TransitionerIfN10Transition9EaseInOut5CubicEED2Ev
FNDA:0,_ZN12TransitionerIfN10Transition7EaseOut9QuadraticEED0Ev
FNDA:0,_ZN12TransitionerIfN10Transition7EaseOut9QuadraticEED2Ev
FNDA:0,_ZN12TransitionerIfN10Transition6EaseIn9QuadraticEED0Ev
FNDA:0,_ZN12TransitionerIfN10Transition6EaseIn9QuadraticEED2Ev
FNDA:0,_ZN12TransitionerIfN10Transition9EaseInOut9QuadraticEED0Ev
FNDA:0,_ZN12TransitionerIfN10Transition9EaseInOut9QuadraticEED2Ev
FNDA:0,_ZN12TransitionerIfN10Transition6LinearEED0Ev
FNDA:0,_ZN12TransitionerIfN10Transition6LinearEED2Ev
FNDA:0,_ZN12TransitionerIfN10Transition6LinearEE4initERKfS4_S4_
FNDA:0,_ZN12TransitionerIfN10Transition9EaseInOut9QuadraticEE4initERKfS5_S5_
FNDA:0,_ZN12TransitionerIfN10Transition6EaseIn9QuadraticEE4initERKfS5_S5_
FNDA:0,_ZN12TransitionerIfN10Transition7EaseOut9QuadraticEE4initERKfS5_S5_
FNDA:0,_ZN12TransitionerIfN10Transition9EaseInOut5CubicEE4initERKfS5_S5_
FNDA:0,_ZN12TransitionerIfN10Transition6EaseIn5CubicEE4initERKfS5_S5_
FNDA:0,_ZN12TransitionerIfN10Transition7EaseOut5CubicEE4initERKfS5_S5_
FNDA:0,_ZN12TransitionerIfN10Transition9EaseInOut7QuarticEE4initERKfS5_S5_
FNDA:0,_ZN12TransitionerIfN10Transition6EaseIn7QuarticEE4initERKfS5_S5_
FNDA:0,_ZN12TransitionerIfN10Transition7EaseOut7QuarticEE4initERKfS5_S5_
FNDA:0,_ZN12TransitionerIfN10Transition9EaseInOut7QuinticEE4initERKfS5_S5_
FNDA:0,_ZN12TransitionerIfN10Transition6EaseIn7QuinticEE4initERKfS5_S5_
FNDA:0,_ZN12TransitionerIfN10Transition7EaseOut7QuinticEE4initERKfS5_S5_
FNDA:0,_ZN12TransitionerIfN10Transition6LinearEE4stepERKf
FNDA:0,_ZN12TransitionerIfN10Transition9EaseInOut9QuadraticEE4stepERKf
FNDA:0,_ZN12TransitionerIfN10Transition6EaseIn9QuadraticEE4stepERKf
FNDA:0,_ZN12TransitionerIfN10Transition7EaseOut9QuadraticEE4stepERKf
FNDA:0,_ZN12TransitionerIfN10Transition9EaseInOut5CubicEE4stepERKf
FNDA:0,_ZN12TransitionerIfN10Transition6EaseIn5CubicEE4stepERKf
FNDA:0,_ZN12TransitionerIfN10Transition7EaseOut5CubicEE4stepERKf
FNDA:0,_ZN12TransitionerIfN10Transition9EaseInOut7QuarticEE4stepERKf
FNDA:0,_ZN12TransitionerIfN10Transition6EaseIn7QuarticEE4stepERKf
FNDA:0,_ZN12TransitionerIfN10Transition7EaseOut7QuarticEE4stepERKf
FNDA:0,_ZN12TransitionerIfN10Transition9EaseInOut7QuinticEE4stepERKf
FNDA:0,_ZN12TransitionerIfN10Transition6EaseIn7QuinticEE4stepERKf
FNDA:0,_ZN12TransitionerIfN10Transition7EaseOut7QuinticEE4stepERKf
FNDA:0,_ZN12TransitionerIfN10Transition7EaseOut7QuinticEEC2ERf
FNDA:0,_ZN12TransitionerIfN10Transition6EaseIn7QuinticEEC2ERf
FNDA:0,_ZN12TransitionerIfN10Transition9EaseInOut7QuinticEEC2ERf
FNDA:0,_ZN12TransitionerIfN10Transition7EaseOut7QuarticEEC2ERf
FNDA:0,_ZN12TransitionerIfN10Transition6EaseIn7QuarticEEC2ERf
FNDA:0,_ZN12TransitionerIfN10Transition9EaseInOut7QuarticEEC2ERf
FNDA:0,_ZN12TransitionerIfN10Transition7EaseOut5CubicEEC2ERf
FNDA:0,_ZN12TransitionerIfN10Transition6EaseIn5CubicEEC2ERf
FNDA:0,_ZN12TransitionerIfN10Transition9EaseInOut5CubicEEC2ERf
FNDA:0,_ZN12TransitionerIfN10Transition7EaseOut9QuadraticEEC2ERf
FNDA:0,_ZN12TransitionerIfN10Transition6EaseIn9QuadraticEEC2ERf
FNDA:0,_ZN12TransitionerIfN10Transition9EaseInOut9QuadraticEEC2ERf
FNDA:0,_ZN12TransitionerIfN10Transition6LinearEEC2ERf
FNF:65
FNH:0
BRDA:40,0,0,-
BRDA:40,0,1,-
BRDA:40,1,2,-
BRDA:40,1,3,-
BRDA:40,2,4,-
BRDA:40,2,5,-
BRDA:40,3,6,-
BRDA:40,3,7,-
BRDA:40,4,8,-
BRDA:40,4,9,-
BRDA:40,5,10,-
BRDA:40,5,11,-
BRDA:40,6,12,-
BRDA:40,6,13,-
BRDA:40,7,14,-
BRDA:40,7,15,-
BRDA:40,8,16,-
BRDA:40,8,17,-
BRDA:40,9,18,-
BRDA:40,9,19,-
BRDA:40,10,20,-
BRDA:40,10,21,-
BRDA:40,11,22,-
BRDA:40,11,23,-
BRDA:40,12,24,-
BRDA:40,12,25,-
BRDA:44,0,0,-
BRDA:44,0,1,-
BRDA:44,1,2,-
BRDA:44,1,3,-
BRDA:44,2,4,-
BRDA:44,2,5,-
BRDA:44,3,6,-
BRDA:44,3,7,-
BRDA:44,4,8,-
BRDA:44,4,9,-
BRDA:44,5,10,-
BRDA:44,5,11,-
BRDA:44,6,12,-
BRDA:44,6,13,-
BRDA:44,7,14,-
BRDA:44,7,15,-
BRDA:44,8,16,-
BRDA:44,8,17,-
BRDA:44,9,18,-
BRDA:44,9,19,-
BRDA:44,10,20,-
BRDA:44,10,21,-
BRDA:44,11,22,-
BRDA:44,11,23,-
BRDA:44,12,24,-
BRDA:44,12,25,-
BRDA:58,1,2,-
BRDA:58,1,3,-
BRDA:58,5,7,-
BRDA:58,5,8,-
BRDA:58,9,12,-
BRDA:58,9,13,-
BRDA:58,13,17,-
BRDA:58,13,18,-
BRDA:58,17,22,-
BRDA:58,17,23,-
BRDA:58,21,27,-
BRDA:58,21,28,-
BRDA:58,25,32,-
BRDA:58,25,33,-
BRDA:58,29,37,-
BRDA:58,29,38,-
BRDA:58,33,42,-
BRDA:58,33,43,-
BRDA:58,37,47,-
BRDA:58,37,48,-
BRDA:58,41,52,-
BRDA:58,41,53,-
BRDA:58,45,57,-
BRDA:58,45,58,-
BRDA:58,49,62,-
BRDA:58,49,63,-
BRF:78
BRH:0
DA:20,0
DA:30,0
DA:31,0
DA:32,0
DA:33,0
DA:34,0
DA:35,0
DA:36,0
DA:38,0
DA:39,0
DA:40,0
DA:41,0
DA:42,0
DA:44,0
DA:45,0
DA:46,0
DA:48,0
DA:58,0
LF:18
LH:0
end_of_record
SF:/SharedWithWindows/Projects/diginstrument/inc/iSource.h
FN:15,_ZN8DataFlow7iSourceIfEC2Ev
FN:28,_ZN8DataFlow7iSourceIfED0Ev
FN:28,_ZN8DataFlow7iSourceIfED2Ev
FNDA:0,_ZN8DataFlow7iSourceIfEC2Ev
FNDA:0,_ZN8DataFlow7iSourceIfED0Ev
FNDA:0,_ZN8DataFlow7iSourceIfED2Ev
FNF:3
FNH:0
DA:15,0
DA:28,0
LF:2
LH:0
end_of_record
SF:/SharedWithWindows/Projects/diginstrument/inc/iTransitioner.h
FN:11,_ZN13iTransitionerIfEC2Ev
FN:33,_ZN13iTransitionerIfED2Ev
FN:33,_ZN13iTransitionerIfED0Ev
FNDA:0,_ZN13iTransitionerIfEC2Ev
FNDA:0,_ZN13iTransitionerIfED0Ev
FNDA:0,_ZN13iTransitionerIfED2Ev
FNF:3
FNH:0
DA:11,0
DA:33,0
LF:2
LH:0
end_of_record
SF:/SharedWithWindows/Projects/diginstrument/inc/iWaveformGenerator.h
FN:10,_ZN5Mixer18iWaveformGeneratorIfEC2Ev
FN:67,_ZN5Mixer18iWaveformGeneratorIfED2Ev
FN:67,_ZN5Mixer18iWaveformGeneratorIfED0Ev
FNDA:0,_ZN5Mixer18iWaveformGeneratorIfEC2Ev
FNDA:0,_ZN5Mixer18iWaveformGeneratorIfED0Ev
FNDA:0,_ZN5Mixer18iWaveformGeneratorIfED2Ev
FNF:3
FNH:0
DA:10,0
DA:67,0
LF:2
LH:0
end_of_record
SF:/SharedWithWindows/Projects/diginstrument/src/cheap_square_generator.cpp
FN:4,_ZN5Mixer20CheapSquareGeneratorIfEC2ERKfRKjS5_
FN:10,_ZN5Mixer20CheapSquareGeneratorIfE3getERKj
FN:41,_ZNK5Mixer20CheapSquareGeneratorIfE12getFrequencyEv
FN:47,_ZN5Mixer20CheapSquareGeneratorIfE12setFrequencyERKf
FN:54,_ZN5Mixer20CheapSquareGeneratorIfE12setFrequencyERKfS3_NSt7__cxx1112basic_stringIcSt11char_traitsIcESaIcEEERKj
FNDA:5,_ZN5Mixer20CheapSquareGeneratorIfEC2ERKfRKjS5_
FNDA:16,_ZN5Mixer20CheapSquareGeneratorIfE3getERKj
FNDA:15,_ZNK5Mixer20CheapSquareGeneratorIfE12getFrequencyEv
FNDA:1,_ZN5Mixer20CheapSquareGeneratorIfE12setFrequencyERKf
FNDA:13,_ZN5Mixer20CheapSquareGeneratorIfE12setFrequencyERKfS3_NSt7__cxx1112basic_stringIcSt11char_traitsIcESaIcEEERKj
FNF:5
FNH:5
BRDA:12,0,2,16
BRDA:12,0,3,0
BRDA:13,0,0,625118
BRDA:13,0,1,16
BRDA:14,0,0,312464
BRDA:14,0,1,312654
BRDA:15,1,1,624928
BRDA:15,1,2,312464
BRDA:21,1,1,625308
BRDA:21,1,2,312654
BRDA:27,4294967295,1,624000
BRDA:27,4294967295,2,1118
BRDA:29,0,2,624000
BRDA:29,0,3,0
BRDA:31,0,1,1786
BRDA:31,0,2,623332
BRDA:60,4294967295,1,13
BRDA:60,4294967295,2,0
BRDA:60,0,3,1
BRDA:60,0,4,12
BRDA:62,0,1,1
BRDA:62,0,2,0
BRDA:64,0,0,4
BRDA:64,0,1,3
BRDA:64,0,2,3
BRDA:64,0,3,3
BRDA:64,0,4,0
BRDA:67,0,1,4
BRDA:67,0,2,0
BRDA:67,1,3,1
BRDA:67,1,4,3
BRDA:69,0,1,1
BRDA:69,0,2,0
BRDA:72,0,1,3
BRDA:72,0,2,0
BRDA:72,1,3,1
BRDA:72,1,4,2
BRDA:74,0,1,1
BRDA:74,0,2,0
BRDA:77,0,1,2
BRDA:77,0,2,0
BRDA:77,1,3,1
BRDA:77,1,4,1
BRDA:79,0,1,1
BRDA:79,0,2,0
BRDA:84,0,1,4
BRDA:84,0,2,0
BRDA:84,1,3,1
BRDA:84,1,4,3
BRDA:86,0,1,1
BRDA:86,0,2,0
BRDA:89,0,1,3
BRDA:89,0,2,0
BRDA:89,1,3,1
BRDA:89,1,4,2
BRDA:91,0,1,1
BRDA:91,0,2,0
BRDA:94,0,1,2
BRDA:94,0,2,0
BRDA:94,1,3,1
BRDA:94,1,4,1
BRDA:96,0,1,1
BRDA:96,0,2,0
BRDA:101,0,1,4
BRDA:101,0,2,0
BRDA:101,1,3,1
BRDA:101,1,4,3
BRDA:103,0,1,1
BRDA:103,0,2,0
BRDA:106,0,1,3
BRDA:106,0,2,0
BRDA:106,1,3,1
BRDA:106,1,4,2
BRDA:108,0,1,1
BRDA:108,0,2,0
BRDA:111,0,1,2
BRDA:111,0,2,0
BRDA:111,1,3,1
BRDA:111,1,4,1
BRDA:113,0,1,1
BRDA:113,0,2,0
BRDA:118,0,1,4
BRDA:118,0,2,0
BRDA:118,1,3,1
BRDA:118,1,4,3
BRDA:120,0,1,1
BRDA:120,0,2,0
BRDA:123,0,1,3
BRDA:123,0,2,0
BRDA:123,1,3,1
BRDA:123,1,4,2
BRDA:125,0,1,1
BRDA:125,0,2,0
BRDA:128,0,1,2
BRDA:128,0,2,0
BRDA:128,1,3,1
BRDA:128,1,4,1
BRDA:130,0,1,1
BRDA:130,0,2,0
BRDA:134,0,1,1
BRDA:134,0,2,0
BRDA:137,0,2,13
BRDA:137,0,3,0
BRF:103
BRH:72
DA:4,10
DA:6,5
DA:7,5
DA:10,16
DA:12,32
DA:13,625134
DA:14,625118
DA:15,937392
DA:17,624928
DA:21,937962
DA:23,625308
DA:26,625118
DA:27,625118
DA:29,624000
DA:31,625118
DA:32,1786
DA:33,1786
DA:37,32
DA:41,15
DA:43,15
DA:47,1
DA:49,1
DA:50,1
DA:51,1
DA:54,13
DA:56,13
DA:57,13
DA:58,13
DA:60,13
DA:62,1
DA:64,13
DA:67,4
DA:69,1
DA:70,1
DA:72,3
DA:74,1
DA:75,1
DA:77,2
DA:79,1
DA:80,1
DA:84,4
DA:86,1
DA:87,1
DA:89,3
DA:91,1
DA:92,1
DA:94,2
DA:96,1
DA:97,1
DA:101,4
DA:103,1
DA:104,1
DA:106,3
DA:108,1
DA:109,1
DA:111,2
DA:113,1
DA:114,1
DA:118,4
DA:120,1
DA:121,1
DA:123,3
DA:125,1
DA:126,1
DA:128,2
DA:130,1
DA:131,1
DA:134,1
DA:137,13
DA:138,13
LF:70
LH:70
end_of_record
TN:
SF:/SharedWithWindows/Projects/diginstrument/inc/Applicator.h
FN:23,_ZN8DataFlow10ApplicatorIf13VolumeControlED0Ev
FN:23,_ZN8DataFlow10ApplicatorIf13VolumeControlED2Ev
FN:23,_ZN8DataFlow10ApplicatorIf13VolumeControlEC2Ev
FN:29,_ZN8DataFlow10ApplicatorIf13VolumeControlE3getERKj
FN:41,_ZN8DataFlow10ApplicatorIf13VolumeControlE9getMethodEv
FN:51,_ZN8DataFlow10ApplicatorIf13VolumeControlE6attachERNS_7iSourceIfEE
FNDA:617,_ZN8DataFlow10ApplicatorIf13VolumeControlED0Ev
FNDA:617,_ZN8DataFlow10ApplicatorIf13VolumeControlED2Ev
FNDA:617,_ZN8DataFlow10ApplicatorIf13VolumeControlEC2Ev
FNDA:613,_ZN8DataFlow10ApplicatorIf13VolumeControlE3getERKj
FNDA:625,_ZN8DataFlow10ApplicatorIf13VolumeControlE9getMethodEv
FNDA:617,_ZN8DataFlow10ApplicatorIf13VolumeControlE6attachERNS_7iSourceIfEE
FNF:6
FNH:6
BRDA:31,0,1,613
BRDA:31,0,2,0
BRDA:32,4294967295,1,613
BRDA:32,4294967295,2,0
BRF:4
BRH:2
DA:23,3702
DA:29,613
DA:31,1226
DA:32,613
DA:33,1226
DA:41,625
DA:42,625
DA:51,617
DA:53,617
DA:54,617
LF:10
LH:10
end_of_record
SF:/SharedWithWindows/Projects/diginstrument/inc/AudioSource.h
FN:23,_ZNK5Mixer11AudioSource11getChannelsEv
FN:30,_ZNK5Mixer11AudioSource13getSampleRateEv
FN:33,_ZN5Mixer11AudioSourceC2ERKjS2_
FNDA:0,_ZNK5Mixer11AudioSource11getChannelsEv
FNDA:0,_ZNK5Mixer11AudioSource13getSampleRateEv
FNDA:0,_ZN5Mixer11AudioSourceC2ERKjS2_
FNF:3
FNH:0
DA:23,0
DA:30,0
DA:33,0
LF:3
LH:0
end_of_record
SF:/SharedWithWindows/Projects/diginstrument/inc/ComplexWaveformGenerator.h
FN:35,_ZN5Mixer24ComplexWaveformGeneratorIfED0Ev
FN:35,_ZN5Mixer24ComplexWaveformGeneratorIfED2Ev
FNDA:0,_ZN5Mixer24ComplexWaveformGeneratorIfED0Ev
FNDA:0,_ZN5Mixer24ComplexWaveformGeneratorIfED2Ev
FNF:2
FNH:0
DA:35,0
LF:1
LH:0
end_of_record
SF:/SharedWithWindows/Projects/diginstrument/inc/ConsolidationMethods.h
FN:19,_ZN13Consolidation12AccumulationIfEC2Ev
FN:19,_ZN13Consolidation12AccumulationIfED2Ev
FN:19,_ZN13Consolidation12AccumulationIfED0Ev
FNDA:0,_ZN13Consolidation12AccumulationIfED0Ev
FNDA:0,_ZN13Consolidation12AccumulationIfED2Ev
FNDA:0,_ZN13Consolidation12AccumulationIfEC2Ev
FNF:3
FNH:0
DA:19,0
LF:1
LH:0
end_of_record
SF:/SharedWithWindows/Projects/diginstrument/inc/Consolidator.h
FN:20,_ZN8DataFlow12ConsolidatorIfN13Consolidation12AccumulationEED2Ev
FN:20,_ZN8DataFlow12ConsolidatorIfN13Consolidation12AccumulationEEC2Ev
FN:20,_ZN8DataFlow12ConsolidatorIfN13Consolidation12AccumulationEED0Ev
FN:31,_ZN8DataFlow12ConsolidatorIfN13Consolidation12AccumulationEE6attachERNS_7iSourceIfEE
FN:60,_ZN8DataFlow12ConsolidatorIfN13Consolidation12AccumulationEE3getERKj
FNDA:0,_ZN8DataFlow12ConsolidatorIfN13Consolidation12AccumulationEED0Ev
FNDA:0,_ZN8DataFlow12ConsolidatorIfN13Consolidation12AccumulationEED2Ev
FNDA:0,_ZN8DataFlow12ConsolidatorIfN13Consolidation12AccumulationEEC2Ev
FNDA:0,_ZN8DataFlow12ConsolidatorIfN13Consolidation12AccumulationEE6attachERNS_7iSourceIfEE
FNDA:0,_ZN8DataFlow12ConsolidatorIfN13Consolidation12AccumulationEE3getERKj
FNF:5
FNH:0
BRDA:32,0,2,-
BRDA:32,0,3,-
BRDA:61,0,4,-
BRDA:61,0,5,-
BRDA:62,0,1,-
BRDA:62,0,2,-
BRDA:63,0,4,-
BRDA:63,0,5,-
BRF:8
BRH:0
DA:20,0
DA:31,0
DA:32,0
DA:33,0
DA:60,0
DA:61,0
DA:62,0
DA:63,0
DA:65,0
LF:9
LH:0
end_of_record
SF:/SharedWithWindows/Projects/diginstrument/inc/TransitionFunction.h
FN:17,_ZN18TransitionFunctionIfEC2Ev
FN:43,_ZN18TransitionFunctionIfED0Ev
FN:43,_ZN18TransitionFunctionIfED2Ev
FNDA:0,_ZN18TransitionFunctionIfEC2Ev
FNDA:0,_ZN18TransitionFunctionIfED0Ev
FNDA:0,_ZN18TransitionFunctionIfED2Ev
FNF:3
FNH:0
DA:17,0
DA:43,0
LF:2
LH:0
end_of_record
SF:/SharedWithWindows/Projects/diginstrument/inc/TransitionFunctions.h
FN:19,_ZN10Transition6LinearIfED0Ev
FN:19,_ZN10Transition6LinearIfEC2Ev
FN:19,_ZN10Transition6LinearIfED2Ev
FN:21,_ZN10Transition6LinearIfE4initERKfS3_S3_S3_
FN:27,_ZN10Transition6LinearIfEclERKf
FN:42,_ZN10Transition6EaseIn9QuadraticIfEC2Ev
FN:42,_ZN10Transition6EaseIn9QuadraticIfED0Ev
FN:42,_ZN10Transition6EaseIn9QuadraticIfED2Ev
FN:44,_ZN10Transition6EaseIn9QuadraticIfE4initERKfS4_S4_S4_
FN:50,_ZN10Transition6EaseIn9QuadraticIfEclERKf
FN:58,_ZN10Transition6EaseIn5CubicIfED0Ev
FN:58,_ZN10Transition6EaseIn5CubicIfED2Ev
FN:58,_ZN10Transition6EaseIn5CubicIfEC2Ev
FN:60,_ZN10Transition6EaseIn5CubicIfE4initERKfS4_S4_S4_
FN:66,_ZN10Transition6EaseIn5CubicIfEclERKf
FN:74,_ZN10Transition6EaseIn7QuarticIfEC2Ev
FN:74,_ZN10Transition6EaseIn7QuarticIfED2Ev
FN:74,_ZN10Transition6EaseIn7QuarticIfED0Ev
FN:76,_ZN10Transition6EaseIn7QuarticIfE4initERKfS4_S4_S4_
FN:82,_ZN10Transition6EaseIn7QuarticIfEclERKf
FN:89,_ZN10Transition6EaseIn7QuinticIfED2Ev
FN:89,_ZN10Transition6EaseIn7QuinticIfEC2Ev
FN:89,_ZN10Transition6EaseIn7QuinticIfED0Ev
FN:91,_ZN10Transition6EaseIn7QuinticIfE4initERKfS4_S4_S4_
FN:97,_ZN10Transition6EaseIn7QuinticIfEclERKf
FN:114,_ZN10Transition7EaseOut9QuadraticIfED0Ev
FN:114,_ZN10Transition7EaseOut9QuadraticIfED2Ev
FN:114,_ZN10Transition7EaseOut9QuadraticIfEC2Ev
FN:116,_ZN10Transition7EaseOut9QuadraticIfE4initERKfS4_S4_S4_
FN:122,_ZN10Transition7EaseOut9QuadraticIfEclERKf
FN:130,_ZN10Transition7EaseOut5CubicIfED2Ev
FN:130,_ZN10Transition7EaseOut5CubicIfEC2Ev
FN:130,_ZN10Transition7EaseOut5CubicIfED0Ev
FN:132,_ZN10Transition7EaseOut5CubicIfE4initERKfS4_S4_S4_
FN:138,_ZN10Transition7EaseOut5CubicIfEclERKf
FN:146,_ZN10Transition7EaseOut7QuarticIfED0Ev
FN:146,_ZN10Transition7EaseOut7QuarticIfEC2Ev
FN:146,_ZN10Transition7EaseOut7QuarticIfED2Ev
FN:148,_ZN10Transition7EaseOut7QuarticIfE4initERKfS4_S4_S4_
FN:154,_ZN10Transition7EaseOut7QuarticIfEclERKf
FN:162,_ZN10Transition7EaseOut7QuinticIfED2Ev
FN:162,_ZN10Transition7EaseOut7QuinticIfEC2Ev
FN:162,_ZN10Transition7EaseOut7QuinticIfED0Ev
FN:164,_ZN10Transition7EaseOut7QuinticIfE4initERKfS4_S4_S4_
FN:170,_ZN10Transition7EaseOut7QuinticIfEclERKf
FN:186,_ZN10Transition9EaseInOut9QuadraticIfED0Ev
FN:186,_ZN10Transition9EaseInOut9QuadraticIfEC2Ev
FN:186,_ZN10Transition9EaseInOut9QuadraticIfED2Ev
FN:188,_ZN10Transition9EaseInOut9QuadraticIfE4initERKfS4_S4_S4_
FN:195,_ZN10Transition9EaseInOut9QuadraticIfEclERKf
FN:204,_ZN10Transition9EaseInOut5CubicIfED0Ev
FN:204,_ZN10Transition9EaseInOut5CubicIfED2Ev
FN:204,_ZN10Transition9EaseInOut5CubicIfEC2Ev
FN:206,_ZN10Transition9EaseInOut5CubicIfE4initERKfS4_S4_S4_
FN:213,_ZN10Transition9EaseInOut5CubicIfEclERKf
FN:222,_ZN10Transition9EaseInOut7QuarticIfED0Ev
FN:222,_ZN10Transition9EaseInOut7QuarticIfED2Ev
FN:222,_ZN10Transition9EaseInOut7QuarticIfEC2Ev
FN:224,_ZN10Transition9EaseInOut7QuarticIfE4initERKfS4_S4_S4_
FN:231,_ZN10Transition9EaseInOut7QuarticIfEclERKf
FN:240,_ZN10Transition9EaseInOut7QuinticIfED2Ev
FN:240,_ZN10Transition9EaseInOut7QuinticIfEC2Ev
FN:240,_ZN10Transition9EaseInOut7QuinticIfED0Ev
FN:242,_ZN10Transition9EaseInOut7QuinticIfE4initERKfS4_S4_S4_
FN:249,_ZN10Transition9EaseInOut7QuinticIfEclERKf
FNDA:0,_ZN10Transition6LinearIfED0Ev
FNDA:0,_ZN10Transition6LinearIfED2Ev
FNDA:0,_ZN10Transition6LinearIfEC2Ev
FNDA:0,_ZN10Transition6LinearIfE4initERKfS3_S3_S3_
FNDA:0,_ZN10Transition6LinearIfEclERKf
FNDA:0,_ZN10Transition6EaseIn9QuadraticIfED0Ev
FNDA:0,_ZN10Transition6EaseIn9QuadraticIfED2Ev
FNDA:0,_ZN10Transition6EaseIn9QuadraticIfEC2Ev
FNDA:0,_ZN10Transition6EaseIn9QuadraticIfE4initERKfS4_S4_S4_
FNDA:0,_ZN10Transition6EaseIn9QuadraticIfEclERKf
FNDA:0,_ZN10Transition6EaseIn5CubicIfED0Ev
FNDA:0,_ZN10Transition6EaseIn5CubicIfED2Ev
FNDA:0,_ZN10Transition6EaseIn5CubicIfEC2Ev
FNDA:0,_ZN10Transition6EaseIn5CubicIfE4initERKfS4_S4_S4_
FNDA:0,_ZN10Transition6EaseIn5CubicIfEclERKf
FNDA:0,_ZN10Transition6EaseIn7QuarticIfED0Ev
FNDA:0,_ZN10Transition6EaseIn7QuarticIfED2Ev
FNDA:0,_ZN10Transition6EaseIn7QuarticIfEC2Ev
FNDA:0,_ZN10Transition6EaseIn7QuarticIfE4initERKfS4_S4_S4_
FNDA:0,_ZN10Transition6EaseIn7QuarticIfEclERKf
FNDA:0,_ZN10Transition6EaseIn7QuinticIfED0Ev
FNDA:0,_ZN10Transition6EaseIn7QuinticIfED2Ev
FNDA:0,_ZN10Transition6EaseIn7QuinticIfEC2Ev
FNDA:0,_ZN10Transition6EaseIn7QuinticIfE4initERKfS4_S4_S4_
FNDA:0,_ZN10Transition6EaseIn7QuinticIfEclERKf
FNDA:0,_ZN10Transition7EaseOut9QuadraticIfED0Ev
FNDA:0,_ZN10Transition7EaseOut9QuadraticIfED2Ev
FNDA:0,_ZN10Transition7EaseOut9QuadraticIfEC2Ev
FNDA:0,_ZN10Transition7EaseOut9QuadraticIfE4initERKfS4_S4_S4_
FNDA:0,_ZN10Transition7EaseOut9QuadraticIfEclERKf
FNDA:0,_ZN10Transition7EaseOut5CubicIfED0Ev
FNDA:0,_ZN10Transition7EaseOut5CubicIfED2Ev
FNDA:0,_ZN10Transition7EaseOut5CubicIfEC2Ev
FNDA:0,_ZN10Transition7EaseOut5CubicIfE4initERKfS4_S4_S4_
FNDA:0,_ZN10Transition7EaseOut5CubicIfEclERKf
FNDA:0,_ZN10Transition7EaseOut7QuarticIfED0Ev
FNDA:0,_ZN10Transition7EaseOut7QuarticIfED2Ev
FNDA:0,_ZN10Transition7EaseOut7QuarticIfEC2Ev
FNDA:0,_ZN10Transition7EaseOut7QuarticIfE4initERKfS4_S4_S4_
FNDA:0,_ZN10Transition7EaseOut7QuarticIfEclERKf
FNDA:0,_ZN10Transition7EaseOut7QuinticIfED0Ev
FNDA:0,_ZN10Transition7EaseOut7QuinticIfED2Ev
FNDA:0,_ZN10Transition7EaseOut7QuinticIfEC2Ev
FNDA:0,_ZN10Transition7EaseOut7QuinticIfE4initERKfS4_S4_S4_
FNDA:0,_ZN10Transition7EaseOut7QuinticIfEclERKf
FNDA:0,_ZN10Transition9EaseInOut9QuadraticIfED0Ev
FNDA:0,_ZN10Transition9EaseInOut9QuadraticIfED2Ev
FNDA:0,_ZN10Transition9EaseInOut9QuadraticIfEC2Ev
FNDA:0,_ZN10Transition9EaseInOut9QuadraticIfE4initERKfS4_S4_S4_
FNDA:0,_ZN10Transition9EaseInOut9QuadraticIfEclERKf
FNDA:0,_ZN10Transition9EaseInOut5CubicIfED0Ev
FNDA:0,_ZN10Transition9EaseInOut5CubicIfED2Ev
FNDA:0,_ZN10Transition9EaseInOut5CubicIfEC2Ev
FNDA:0,_ZN10Transition9EaseInOut5CubicIfE4initERKfS4_S4_S4_
FNDA:0,_ZN10Transition9EaseInOut5CubicIfEclERKf
FNDA:0,_ZN10Transition9EaseInOut7QuarticIfED0Ev
FNDA:0,_ZN10Transition9EaseInOut7QuarticIfED2Ev
FNDA:0,_ZN10Transition9EaseInOut7QuarticIfEC2Ev
FNDA:0,_ZN10Transition9EaseInOut7QuarticIfE4initERKfS4_S4_S4_
FNDA:0,_ZN10Transition9EaseInOut7QuarticIfEclERKf
FNDA:0,_ZN10Transition9EaseInOut7QuinticIfED0Ev
FNDA:0,_ZN10Transition9EaseInOut7QuinticIfED2Ev
FNDA:0,_ZN10Transition9EaseInOut7QuinticIfEC2Ev
FNDA:0,_ZN10Transition9EaseInOut7QuinticIfE4initERKfS4_S4_S4_
FNDA:0,_ZN10Transition9EaseInOut7QuinticIfEclERKf
FNF:65
FNH:0
DA:19,0
DA:21,0
DA:22,0
DA:23,0
DA:24,0
DA:25,0
DA:27,0
DA:28,0
DA:42,0
DA:44,0
DA:45,0
DA:46,0
DA:47,0
DA:48,0
DA:50,0
DA:51,0
DA:58,0
DA:60,0
DA:61,0
DA:62,0
DA:63,0
DA:64,0
DA:66,0
DA:67,0
DA:74,0
DA:76,0
DA:77,0
DA:78,0
DA:79,0
DA:80,0
DA:82,0
DA:83,0
DA:89,0
DA:91,0
DA:92,0
DA:93,0
DA:94,0
DA:95,0
DA:97,0
DA:98,0
DA:114,0
DA:116,0
DA:117,0
DA:118,0
DA:119,0
DA:120,0
DA:122,0
DA:123,0
DA:130,0
DA:132,0
DA:133,0
DA:134,0
DA:135,0
DA:136,0
DA:138,0
DA:139,0
DA:146,0
DA:148,0
DA:149,0
DA:150,0
DA:151,0
DA:152,0
DA:154,0
DA:155,0
DA:162,0
DA:164,0
DA:165,0
DA:166,0
DA:167,0
DA:168,0
DA:170,0
DA:171,0
DA:186,0
DA:188,0
DA:189,0
DA:190,0
DA:191,0
DA:192,0
DA:193,0
DA:195,0
DA:196,0
DA:197,0
DA:204,0
DA:206,0
DA:207,0
DA:208,0
DA:209,0
DA:210,0
DA:211,0
DA:213,0
DA:214,0
DA:215,0
DA:222,0
DA:224,0
DA:225,0
DA:226,0
DA:227,0
DA:228,0
DA:229,0
DA:231,0
DA:232,0
DA:233,0
DA:240,0
DA:242,0
DA:243,0
DA:244,0
DA:245,0
DA:246,0
DA:247,0
DA:249,0
DA:250,0
DA:251,0
LF:112
LH:0
end_of_record
SF:/SharedWithWindows/Projects/diginstrument/inc/Transitioner.h
FN:20,_ZN12TransitionerIfN10Transition9EaseInOut7QuarticEED2Ev
FN:20,_ZN12TransitionerIfN10Transition9EaseInOut5CubicEED0Ev
FN:20,_ZN12TransitionerIfN10Transition6LinearEED2Ev
FN:20,_ZN12TransitionerIfN10Transition6EaseIn5CubicEED2Ev
FN:20,_ZN12TransitionerIfN10Transition6EaseIn7QuinticEED0Ev
FN:20,_ZN12TransitionerIfN10Transition9EaseInOut7QuinticEED0Ev
FN:20,_ZN12TransitionerIfN10Transition6EaseIn7QuarticEED0Ev
FN:20,_ZN12TransitionerIfN10Transition9EaseInOut5CubicEED2Ev
FN:20,_ZN12TransitionerIfN10Transition6EaseIn7QuinticEED2Ev
FN:20,_ZN12TransitionerIfN10Transition7EaseOut7QuinticEED2Ev
FN:20,_ZN12TransitionerIfN10Transition7EaseOut9QuadraticEED2Ev
FN:20,_ZN12TransitionerIfN10Transition6EaseIn5CubicEED0Ev
FN:20,_ZN12TransitionerIfN10Transition6EaseIn9QuadraticEED2Ev
FN:20,_ZN12TransitionerIfN10Transition7EaseOut7QuinticEED0Ev
FN:20,_ZN12TransitionerIfN10Transition9EaseInOut9QuadraticEED0Ev
FN:20,_ZN12TransitionerIfN10Transition7EaseOut9QuadraticEED0Ev
FN:20,_ZN12TransitionerIfN10Transition6LinearEED0Ev
FN:20,_ZN12TransitionerIfN10Transition6EaseIn7QuarticEED2Ev
FN:20,_ZN12TransitionerIfN10Transition7EaseOut5CubicEED0Ev
FN:20,_ZN12TransitionerIfN10Transition6EaseIn9QuadraticEED0Ev
FN:20,_ZN12TransitionerIfN10Transition7EaseOut7QuarticEED0Ev
FN:20,_ZN12TransitionerIfN10Transition7EaseOut5CubicEED2Ev
FN:20,_ZN12TransitionerIfN10Transition9EaseInOut7QuinticEED2Ev
FN:20,_ZN12TransitionerIfN10Transition7EaseOut7QuarticEED2Ev
FN:20,_ZN12TransitionerIfN10Transition9EaseInOut7QuarticEED0Ev
FN:20,_ZN12TransitionerIfN10Transition9EaseInOut9QuadraticEED2Ev
FN:30,_ZN12TransitionerIfN10Transition6EaseIn5CubicEE4initERKfS5_S5_
FN:30,_ZN12TransitionerIfN10Transition7EaseOut7QuarticEE4initERKfS5_S5_
FN:30,_ZN12TransitionerIfN10Transition6EaseIn7QuarticEE4initERKfS5_S5_
FN:30,_ZN12TransitionerIfN10Transition7EaseOut9QuadraticEE4initERKfS5_S5_
FN:30,_ZN12TransitionerIfN10Transition7EaseOut5CubicEE4initERKfS5_S5_
FN:30,_ZN12TransitionerIfN10Transition9EaseInOut7QuinticEE4initERKfS5_S5_
FN:30,_ZN12TransitionerIfN10Transition6EaseIn9QuadraticEE4initERKfS5_S5_
FN:30,_ZN12TransitionerIfN10Transition7EaseOut7QuinticEE4initERKfS5_S5_
FN:30,_ZN12TransitionerIfN10Transition6LinearEE4initERKfS4_S4_
FN:30,_ZN12TransitionerIfN10Transition9EaseInOut7QuarticEE4initERKfS5_S5_
FN:30,_ZN12TransitionerIfN10Transition9EaseInOut9QuadraticEE4initERKfS5_S5_
FN:30,_ZN12TransitionerIfN10Transition9EaseInOut5CubicEE4initERKfS5_S5_
FN:30,_ZN12TransitionerIfN10Transition6EaseIn7QuinticEE4initERKfS5_S5_
FN:38,_ZN12TransitionerIfN10Transition6EaseIn5CubicEE4stepERKf
FN:38,_ZN12TransitionerIfN10Transition6EaseIn7QuarticEE4stepERKf
FN:38,_ZN12TransitionerIfN10Transition9EaseInOut7QuinticEE4stepERKf
FN:38,_ZN12TransitionerIfN10Transition7EaseOut9QuadraticEE4stepERKf
FN:38,_ZN12TransitionerIfN10Transition7EaseOut7QuarticEE4stepERKf
FN:38,_ZN12TransitionerIfN10Transition6LinearEE4stepERKf
FN:38,_ZN12TransitionerIfN10Transition7EaseOut5CubicEE4stepERKf
FN:38,_ZN12TransitionerIfN10Transition9EaseInOut9QuadraticEE4stepERKf
FN:38,_ZN12TransitionerIfN10Transition9EaseInOut5CubicEE4stepERKf
FN:38,_ZN12TransitionerIfN10Transition9EaseInOut7QuarticEE4stepERKf
FN:38,_ZN12TransitionerIfN10Transition7EaseOut7QuinticEE4stepERKf
FN:38,_ZN12TransitionerIfN10Transition6EaseIn9QuadraticEE4stepERKf
FN:38,_ZN12TransitionerIfN10Transition6EaseIn7QuinticEE4stepERKf
FN:58,_ZN12TransitionerIfN10Transition7EaseOut9QuadraticEEC2ERf
FN:58,_ZN12TransitionerIfN10Transition7EaseOut7QuarticEEC2ERf
FN:58,_ZN12TransitionerIfN10Transition6EaseIn7QuinticEEC2ERf
FN:58,_ZN12TransitionerIfN10Transition7EaseOut5CubicEEC2ERf
FN:58,_ZN12TransitionerIfN10Transition6EaseIn7QuarticEEC2ERf
FN:58,_ZN12TransitionerIfN10Transition6EaseIn5CubicEEC2ERf
FN:58,_ZN12TransitionerIfN10Transition7EaseOut7QuinticEEC2ERf
FN:58,_ZN12TransitionerIfN10Transition6LinearEEC2ERf
FN:58,_ZN12TransitionerIfN10Transition9EaseInOut7QuarticEEC2ERf
FN:58,_ZN12TransitionerIfN10Transition9EaseInOut5CubicEEC2ERf
FN:58,_ZN12TransitionerIfN10Transition9EaseInOut9QuadraticEEC2ERf
FN:58,_ZN12TransitionerIfN10Transition9EaseInOut7QuinticEEC2ERf
FN:58,_ZN12TransitionerIfN10Transition6EaseIn9QuadraticEEC2ERf
FNDA:0,_ZN12TransitionerIfN10Transition7EaseOut7QuinticEED0Ev
FNDA:0,_ZN12TransitionerIfN10Transition7EaseOut7QuinticEED2Ev
FNDA:0,_ZN12TransitionerIfN10Transition6EaseIn7QuinticEED0Ev
FNDA:0,_ZN12TransitionerIfN10Transition6EaseIn7QuinticEED2Ev
FNDA:0,_ZN12TransitionerIfN10Transition9EaseInOut7QuinticEED0Ev
FNDA:0,_ZN12TransitionerIfN10Transition9EaseInOut7QuinticEED2Ev
FNDA:0,_ZN12TransitionerIfN10Transition7EaseOut7QuarticEED0Ev
FNDA:0,_ZN12TransitionerIfN10Transition7EaseOut7QuarticEED2Ev
FNDA:0,_ZN12TransitionerIfN10Transition6EaseIn7QuarticEED0Ev
FNDA:0,_ZN12TransitionerIfN10Transition6EaseIn7QuarticEED2Ev
FNDA:0,_ZN12TransitionerIfN10Transition9EaseInOut7QuarticEED0Ev
FNDA:0,_ZN12TransitionerIfN10Transition9EaseInOut7QuarticEED2Ev
FNDA:0,_ZN12TransitionerIfN10Transition7EaseOut5CubicEED0Ev
FNDA:0,_ZN12TransitionerIfN10Transition7EaseOut5CubicEED2Ev
FNDA:0,_ZN12TransitionerIfN10Transition6EaseIn5CubicEED0Ev
FNDA:0,_ZN12TransitionerIfN10Transition6EaseIn5CubicEED2Ev
FNDA:0,_ZN12TransitionerIfN10Transition9EaseInOut5CubicEED0Ev
FNDA:0,_ZN12TransitionerIfN10Transition9EaseInOut5CubicEED2Ev
FNDA:0,_ZN12TransitionerIfN10Transition7EaseOut9QuadraticEED0Ev
FNDA:0,_ZN12TransitionerIfN10Transition7EaseOut9QuadraticEED2Ev
FNDA:0,_ZN12TransitionerIfN10Transition6EaseIn9QuadraticEED0Ev
FNDA:0,_ZN12TransitionerIfN10Transition6EaseIn9QuadraticEED2Ev
FNDA:0,_ZN12TransitionerIfN10Transition9EaseInOut9QuadraticEED0Ev
FNDA:0,_ZN12TransitionerIfN10Transition9EaseInOut9QuadraticEED2Ev
FNDA:0,_ZN12TransitionerIfN10Transition6LinearEED0Ev
FNDA:0,_ZN12TransitionerIfN10Transition6LinearEED2Ev
FNDA:0,_ZN12TransitionerIfN10Transition6LinearEE4initERKfS4_S4_
FNDA:0,_ZN12TransitionerIfN10Transition9EaseInOut9QuadraticEE4initERKfS5_S5_
FNDA:0,_ZN12TransitionerIfN10Transition6EaseIn9QuadraticEE4initERKfS5_S5_
FNDA:0,_ZN12TransitionerIfN10Transition7EaseOut9QuadraticEE4initERKfS5_S5_
FNDA:0,_ZN12TransitionerIfN10Transition9EaseInOut5CubicEE4initERKfS5_S5_
FNDA:0,_ZN12TransitionerIfN10Transition6EaseIn5CubicEE4initERKfS5_S5_
FNDA:0,_ZN12TransitionerIfN10Transition7EaseOut5CubicEE4initERKfS5_S5_
FNDA:0,_ZN12TransitionerIfN10Transition9EaseInOut7QuarticEE4initERKfS5_S5_
FNDA:0,_ZN12TransitionerIfN10Transition6EaseIn7QuarticEE4initERKfS5_S5_
FNDA:0,_ZN12TransitionerIfN10Transition7EaseOut7QuarticEE4initERKfS5_S5_
FNDA:0,_ZN12TransitionerIfN10Transition9EaseInOut7QuinticEE4initERKfS5_S5_
FNDA:0,_ZN12TransitionerIfN10Transition6EaseIn7QuinticEE4initERKfS5_S5_
FNDA:0,_ZN12TransitionerIfN10Transition7EaseOut7QuinticEE4initERKfS5_S5_
FNDA:0,_ZN12TransitionerIfN10Transition6LinearEE4stepERKf
FNDA:0,_ZN12TransitionerIfN10Transition9EaseInOut9QuadraticEE4stepERKf
FNDA:0,_ZN12TransitionerIfN10Transition6EaseIn9QuadraticEE4stepERKf
FNDA:0,_ZN12TransitionerIfN10Transition7EaseOut9QuadraticEE4stepERKf
FNDA:0,_ZN12TransitionerIfN10Transition9EaseInOut5CubicEE4stepERKf
FNDA:0,_ZN12TransitionerIfN10Transition6EaseIn5CubicEE4stepERKf
FNDA:0,_ZN12TransitionerIfN10Transition7EaseOut5CubicEE4stepERKf
FNDA:0,_ZN12TransitionerIfN10Transition9EaseInOut7QuarticEE4stepERKf
FNDA:0,_ZN12TransitionerIfN10Transition6EaseIn7QuarticEE4stepERKf
FNDA:0,_ZN12TransitionerIfN10Transition7EaseOut7QuarticEE4stepERKf
FNDA:0,_ZN12TransitionerIfN10Transition9EaseInOut7QuinticEE4stepERKf
FNDA:0,_ZN12TransitionerIfN10Transition6EaseIn7QuinticEE4stepERKf
FNDA:0,_ZN12TransitionerIfN10Transition7EaseOut7QuinticEE4stepERKf
FNDA:0,_ZN12TransitionerIfN10Transition7EaseOut7QuinticEEC2ERf
FNDA:0,_ZN12TransitionerIfN10Transition6EaseIn7QuinticEEC2ERf
FNDA:0,_ZN12TransitionerIfN10Transition9EaseInOut7QuinticEEC2ERf
FNDA:0,_ZN12TransitionerIfN10Transition7EaseOut7QuarticEEC2ERf
FNDA:0,_ZN12TransitionerIfN10Transition6EaseIn7QuarticEEC2ERf
FNDA:0,_ZN12TransitionerIfN10Transition9EaseInOut7QuarticEEC2ERf
FNDA:0,_ZN12TransitionerIfN10Transition7EaseOut5CubicEEC2ERf
FNDA:0,_ZN12TransitionerIfN10Transition6EaseIn5CubicEEC2ERf
FNDA:0,_ZN12TransitionerIfN10Transition9EaseInOut5CubicEEC2ERf
FNDA:0,_ZN12TransitionerIfN10Transition7EaseOut9QuadraticEEC2ERf
FNDA:0,_ZN12TransitionerIfN10Transition6EaseIn9QuadraticEEC2ERf
FNDA:0,_ZN12TransitionerIfN10Transition9EaseInOut9QuadraticEEC2ERf
FNDA:0,_ZN12TransitionerIfN10Transition6LinearEEC2ERf
FNF:65
FNH:0
BRDA:40,0,0,-
BRDA:40,0,1,-
BRDA:40,1,2,-
BRDA:40,1,3,-
BRDA:40,2,4,-
BRDA:40,2,5,-
BRDA:40,3,6,-
BRDA:40,3,7,-
BRDA:40,4,8,-
BRDA:40,4,9,-
BRDA:40,5,10,-
BRDA:40,5,11,-
BRDA:40,6,12,-
BRDA:40,6,13,-
BRDA:40,7,14,-
BRDA:40,7,15,-
BRDA:40,8,16,-
BRDA:40,8,17,-
BRDA:40,9,18,-
BRDA:40,9,19,-
BRDA:40,10,20,-
BRDA:40,10,21,-
BRDA:40,11,22,-
BRDA:40,11,23,-
BRDA:40,12,24,-
BRDA:40,12,25,-
BRDA:44,0,0,-
BRDA:44,0,1,-
BRDA:44,1,2,-
BRDA:44,1,3,-
BRDA:44,2,4,-
BRDA:44,2,5,-
BRDA:44,3,6,-
BRDA:44,3,7,-
BRDA:44,4,8,-
BRDA:44,4,9,-
BRDA:44,5,10,-
BRDA:44,5,11,-
BRDA:44,6,12,-
BRDA:44,6,13,-
BRDA:44,7,14,-
BRDA:44,7,15,-
BRDA:44,8,16,-
BRDA:44,8,17,-
BRDA:44,9,18,-
BRDA:44,9,19,-
BRDA:44,10,20,-
BRDA:44,10,21,-
BRDA:44,11,22,-
BRDA:44,11,23,-
BRDA:44,12,24,-
BRDA:44,12,25,-
BRDA:58,1,2,-
BRDA:58,1,3,-
BRDA:58,5,7,-
BRDA:58,5,8,-
BRDA:58,9,12,-
BRDA:58,9,13,-
BRDA:58,13,17,-
BRDA:58,13,18,-
BRDA:58,17,22,-
BRDA:58,17,23,-
BRDA:58,21,27,-
BRDA:58,21,28,-
BRDA:58,25,32,-
BRDA:58,25,33,-
BRDA:58,29,37,-
BRDA:58,29,38,-
BRDA:58,33,42,-
BRDA:58,33,43,-
BRDA:58,37,47,-
BRDA:58,37,48,-
BRDA:58,41,52,-
BRDA:58,41,53,-
BRDA:58,45,57,-
BRDA:58,45,58,-
BRDA:58,49,62,-
BRDA:58,49,63,-
BRF:78
BRH:0
DA:20,0
DA:30,0
DA:31,0
DA:32,0
DA:33,0
DA:34,0
DA:35,0
DA:36,0
DA:38,0
DA:39,0
DA:40,0
DA:41,0
DA:42,0
DA:44,0
DA:45,0
DA:46,0
DA:48,0
DA:58,0
LF:18
LH:0
end_of_record
SF:/SharedWithWindows/Projects/diginstrument/inc/VolumeControl.h
FN:15,_ZN13VolumeControlIfED2Ev
FN:22,_ZN13VolumeControlIfE14stepTransitionERKi
FN:34,_ZN13VolumeControlIfE9getVolumeEv
FN:44,_ZN13VolumeControlIfE9setVolumeERKf
FN:55,_ZN13VolumeControlIfEclERSt6vectorIfSaIfEE
FN:101,_ZN13VolumeControlIfE9setVolumeERKfS2_RKiNSt7__cxx1112basic_stringIcSt11char_traitsIcESaIcEEERKj
FN:183,_ZN13VolumeControlIfEC2Ev
FNDA:0,_ZN13VolumeControlIfED2Ev
FNDA:0,_ZN13VolumeControlIfE14stepTransitionERKi
FNDA:0,_ZN13VolumeControlIfE9getVolumeEv
FNDA:0,_ZN13VolumeControlIfE9setVolumeERKf
FNDA:613,_ZN13VolumeControlIfEclERSt6vectorIfSaIfEE
FNDA:0,_ZN13VolumeControlIfE9setVolumeERKfS2_RKiNSt7__cxx1112basic_stringIcSt11char_traitsIcESaIcEEERKj
FNDA:0,_ZN13VolumeControlIfEC2Ev
FNF:7
FNH:1
BRDA:23,0,1,-
BRDA:23,0,2,-
BRDA:24,0,2,-
BRDA:24,0,3,-
BRDA:57,1,5,15126110
BRDA:57,1,6,613
BRDA:60,4294967295,1,15126110
BRDA:60,4294967295,2,0
BRDA:103,0,1,-
BRDA:103,0,2,-
BRDA:107,0,0,-
BRDA:107,0,1,-
BRDA:107,0,2,-
BRDA:107,0,3,-
BRDA:107,0,4,-
BRDA:110,0,1,-
BRDA:110,0,2,-
BRDA:115,0,1,-
BRDA:115,0,2,-
BRDA:120,0,1,-
BRDA:120,0,2,-
BRDA:127,0,1,-
BRDA:127,0,2,-
BRDA:132,0,1,-
BRDA:132,0,2,-
BRDA:137,0,1,-
BRDA:137,0,2,-
BRDA:144,0,1,-
BRDA:144,0,2,-
BRDA:149,0,1,-
BRDA:149,0,2,-
BRDA:154,0,1,-
BRDA:154,0,2,-
BRDA:161,0,1,-
BRDA:161,0,2,-
BRDA:166,0,1,-
BRDA:166,0,2,-
BRDA:171,0,1,-
BRDA:171,0,2,-
BRDA:180,0,3,-
BRDA:180,0,4,-
BRF:41
BRH:3
DA:15,0
DA:22,0
DA:23,0
DA:24,0
DA:26,0
DA:34,0
DA:36,0
DA:44,0
DA:46,0
DA:47,0
DA:55,613
DA:57,15126723
DA:59,15126110
DA:60,15126110
DA:62,613
DA:101,0
DA:102,0
DA:103,0
DA:105,0
DA:107,0
DA:110,0
DA:112,0
DA:113,0
DA:115,0
DA:117,0
DA:118,0
DA:120,0
DA:122,0
DA:123,0
DA:127,0
DA:129,0
DA:130,0
DA:132,0
DA:134,0
DA:135,0
DA:137,0
DA:139,0
DA:140,0
DA:144,0
DA:146,0
DA:147,0
DA:149,0
DA:151,0
DA:152,0
DA:154,0
DA:156,0
DA:157,0
DA:161,0
DA:163,0
DA:164,0
DA:166,0
DA:168,0
DA:169,0
DA:171,0
DA:173,0
DA:174,0
DA:177,0
DA:180,0
DA:181,0
DA:183,0
LF:60
LH:5
end_of_record
SF:/SharedWithWindows/Projects/diginstrument/inc/iConsolidationMethod.h
FN:13,_ZN8DataFlow20iConsolidationMethodIfEC2Ev
FN:41,_ZN8DataFlow20iConsolidationMethodIfED2Ev
FN:41,_ZN8DataFlow20iConsolidationMethodIfED0Ev
FNDA:0,_ZN8DataFlow20iConsolidationMethodIfEC2Ev
FNDA:0,_ZN8DataFlow20iConsolidationMethodIfED0Ev
FNDA:0,_ZN8DataFlow20iConsolidationMethodIfED2Ev
FNF:3
FNH:0
DA:13,0
DA:41,0
LF:2
LH:0
end_of_record
SF:/SharedWithWindows/Projects/diginstrument/inc/iSource.h
FN:15,_ZN8DataFlow7iSourceIfEC2Ev
FN:28,_ZN8DataFlow7iSourceIfED0Ev
FN:28,_ZN8DataFlow7iSourceIfED2Ev
FNDA:0,_ZN8DataFlow7iSourceIfEC2Ev
FNDA:0,_ZN8DataFlow7iSourceIfED0Ev
FNDA:0,_ZN8DataFlow7iSourceIfED2Ev
FNF:3
FNH:0
DA:15,0
DA:28,0
LF:2
LH:0
end_of_record
SF:/SharedWithWindows/Projects/diginstrument/inc/iTransitioner.h
FN:11,_ZN13iTransitionerIfEC2Ev
FN:33,_ZN13iTransitionerIfED2Ev
FN:33,_ZN13iTransitionerIfED0Ev
FNDA:0,_ZN13iTransitionerIfEC2Ev
FNDA:0,_ZN13iTransitionerIfED0Ev
FNDA:0,_ZN13iTransitionerIfED2Ev
FNF:3
FNH:0
DA:11,0
DA:33,0
LF:2
LH:0
end_of_record
SF:/SharedWithWindows/Projects/diginstrument/src/complex_waveform_generator.cpp
FN:4,_ZN5Mixer24ComplexWaveformGeneratorIfEC2ERKSt6vectorISt4pairIffESaIS4_EERKjSA_
FN:18,_ZN5Mixer24ComplexWaveformGeneratorIfE3getERKj
FN:24,_ZN5Mixer24ComplexWaveformGeneratorIfE12getComponentERKf
FN:33,_ZN5Mixer24ComplexWaveformGeneratorIfE12setComponentERKfS3_
FN:48,_ZN5Mixer24ComplexWaveformGeneratorIfE12setComponentERKfS3_S3_NSt7__cxx1112basic_stringIcSt11char_traitsIcESaIcEEERKj
FNDA:8,_ZN5Mixer24ComplexWaveformGeneratorIfEC2ERKSt6vectorISt4pairIffESaIS4_EERKjSA_
FNDA:5,_ZN5Mixer24ComplexWaveformGeneratorIfE3getERKj
FNDA:8,_ZN5Mixer24ComplexWaveformGeneratorIfE12getComponentERKf
FNDA:4,_ZN5Mixer24ComplexWaveformGeneratorIfE12setComponentERKfS3_
FNDA:1,_ZN5Mixer24ComplexWaveformGeneratorIfE12setComponentERKfS3_S3_NSt7__cxx1112basic_stringIcSt11char_traitsIcESaIcEEERKj
FNF:5
FNH:5
BRDA:7,0,5,2
BRDA:7,0,6,8
BRDA:8,4294967295,1,2
BRDA:8,4294967295,2,0
BRDA:9,4294967295,1,2
BRDA:9,4294967295,2,0
BRDA:12,4294967295,2,2
BRDA:12,4294967295,3,0
BRDA:13,0,5,2
BRDA:13,0,6,0
BRDA:19,0,1,4
BRDA:19,0,2,1
BRDA:19,1,5,4
BRDA:19,1,6,0
BRDA:25,0,1,8
BRDA:25,0,2,0
BRDA:26,4294967295,2,6
BRDA:26,4294967295,3,2
BRDA:27,0,1,6
BRDA:27,0,2,0
BRDA:34,0,1,4
BRDA:34,0,2,0
BRDA:35,4294967295,2,1
BRDA:35,4294967295,3,3
BRDA:36,0,1,1
BRDA:36,0,2,0
BRDA:39,0,3,3
BRDA:39,0,4,0
BRDA:40,4294967295,1,3
BRDA:40,4294967295,2,0
BRDA:43,4294967295,2,3
BRDA:43,4294967295,3,0
BRDA:44,0,5,3
BRDA:44,0,6,0
BRDA:49,0,1,1
BRDA:49,0,2,0
BRDA:50,4294967295,2,1
BRDA:50,4294967295,3,0
BRDA:51,0,1,1
BRDA:51,0,2,0
BRDA:51,1,6,1
BRDA:51,1,7,0
BRDA:51,2,11,1
BRDA:51,2,12,0
BRF:44
BRH:26
DA:4,8
DA:5,8
DA:7,10
DA:8,4
DA:9,4
DA:10,2
DA:11,2
DA:12,2
DA:13,2
DA:15,8
DA:18,5
DA:19,5
DA:20,5
DA:24,8
DA:25,8
DA:26,8
DA:27,6
DA:29,8
DA:33,4
DA:34,4
DA:35,4
DA:36,1
DA:37,1
DA:39,7
DA:40,6
DA:41,3
DA:42,3
DA:43,3
DA:44,3
DA:48,1
DA:49,1
DA:50,1
DA:51,1
DA:53,1
LF:34
LH:34
end_of_record
TN:
SF:/SharedWithWindows/Projects/diginstrument/inc/ConsolidationMethods.h
FN:19,_ZN13Consolidation12AccumulationIiED0Ev
FN:19,_ZN13Consolidation12AccumulationIfED0Ev
FN:19,_ZN13Consolidation12AccumulationIiED2Ev
FN:19,_ZN13Consolidation12AccumulationIfED2Ev
FN:35,_ZN13Consolidation14MultiplicationIfED2Ev
FN:35,_ZN13Consolidation14MultiplicationIiED2Ev
FN:35,_ZN13Consolidation14MultiplicationIiED0Ev
FN:35,_ZN13Consolidation14MultiplicationIfED0Ev
FNDA:0,_ZN13Consolidation12AccumulationIfED0Ev
FNDA:0,_ZN13Consolidation12AccumulationIfED2Ev
FNDA:0,_ZN13Consolidation12AccumulationIiED0Ev
FNDA:0,_ZN13Consolidation12AccumulationIiED2Ev
FNDA:0,_ZN13Consolidation14MultiplicationIfED0Ev
FNDA:0,_ZN13Consolidation14MultiplicationIfED2Ev
FNDA:0,_ZN13Consolidation14MultiplicationIiED0Ev
FNDA:0,_ZN13Consolidation14MultiplicationIiED2Ev
FNF:8
FNH:0
DA:19,0
DA:35,0
LF:2
LH:0
end_of_record
SF:/SharedWithWindows/Projects/diginstrument/inc/iConsolidationMethod.h
FN:41,_ZN8DataFlow20iConsolidationMethodIfED2Ev
FN:41,_ZN8DataFlow20iConsolidationMethodIiED2Ev
FN:41,_ZN8DataFlow20iConsolidationMethodIfED0Ev
FN:41,_ZN8DataFlow20iConsolidationMethodIiED0Ev
FNDA:0,_ZN8DataFlow20iConsolidationMethodIfED0Ev
FNDA:0,_ZN8DataFlow20iConsolidationMethodIfED2Ev
FNDA:0,_ZN8DataFlow20iConsolidationMethodIiED0Ev
FNDA:0,_ZN8DataFlow20iConsolidationMethodIiED2Ev
FNF:4
FNH:0
DA:41,0
LF:1
LH:0
end_of_record
SF:/SharedWithWindows/Projects/diginstrument/src/consolidation_methods.cpp
FN:4,_ZN13Consolidation12AccumulationIfE4initERKSt6vectorIfSaIfEE
FN:4,_ZN13Consolidation12AccumulationIiE4initERKSt6vectorIiSaIiEE
FN:10,_ZN13Consolidation12AccumulationIiE3addERKSt6vectorIiSaIiEE
FN:10,_ZN13Consolidation12AccumulationIfE3addERKSt6vectorIfSaIfEE
FN:17,_ZN13Consolidation12AccumulationIfE3getEv
FN:17,_ZN13Consolidation12AccumulationIiE3getEv
FN:25,_ZN13Consolidation14MultiplicationIfE4initERKSt6vectorIfSaIfEE
FN:25,_ZN13Consolidation14MultiplicationIiE4initERKSt6vectorIiSaIiEE
FN:31,_ZN13Consolidation14MultiplicationIfE3addERKSt6vectorIfSaIfEE
FN:31,_ZN13Consolidation14MultiplicationIiE3addERKSt6vectorIiSaIiEE
FN:38,_ZN13Consolidation14MultiplicationIfE3getEv
FN:38,_ZN13Consolidation14MultiplicationIiE3getEv
FNDA:1,_ZN13Consolidation12AccumulationIiE4initERKSt6vectorIiSaIiEE
FNDA:14,_ZN13Consolidation12AccumulationIfE4initERKSt6vectorIfSaIfEE
FNDA:2,_ZN13Consolidation12AccumulationIiE3addERKSt6vectorIiSaIiEE
FNDA:602,_ZN13Consolidation12AccumulationIfE3addERKSt6vectorIfSaIfEE
FNDA:1,_ZN13Consolidation12AccumulationIiE3getEv
FNDA:14,_ZN13Consolidation12AccumulationIfE3getEv
FNDA:1,_ZN13Consolidation14MultiplicationIiE4initERKSt6vectorIiSaIiEE
FNDA:6,_ZN13Consolidation14MultiplicationIfE4initERKSt6vectorIfSaIfEE
FNDA:2,_ZN13Consolidation14MultiplicationIiE3addERKSt6vectorIiSaIiEE
FNDA:3,_ZN13Consolidation14MultiplicationIfE3addERKSt6vectorIfSaIfEE
FNDA:1,_ZN13Consolidation14MultiplicationIiE3getEv
FNDA:6,_ZN13Consolidation14MultiplicationIfE3getEv
FNF:12
FNH:12
BRDA:11,1,1,1024
BRDA:11,1,2,2
BRDA:11,3,4,14736424
BRDA:11,3,5,602
BRDA:32,1,1,1024
BRDA:32,1,2,2
BRDA:32,3,4,1536
BRDA:32,3,5,3
BRF:8
BRH:8
DA:4,15
DA:5,15
DA:6,15
DA:10,604
DA:11,14738052
DA:12,14737448
DA:14,604
DA:17,15
DA:18,15
DA:25,7
DA:26,7
DA:27,7
DA:31,5
DA:32,2565
DA:33,2560
DA:35,5
DA:38,7
DA:39,7
LF:18
LH:18
end_of_record
TN:
SF:/SharedWithWindows/Projects/diginstrument/inc/Multiplexer.h
FN:17,_ZN5Mixer11MultiplexerIfED2Ev
FN:17,_ZN5Mixer11MultiplexerIfED0Ev
FN:48,_ZN5Mixer11MultiplexerIfE15setChannelCountEj
FN:58,_ZN5Mixer11MultiplexerIfE15getChannelCountEv
FN:66,_ZN5Mixer11MultiplexerIfE5clearEv
FN:76,_ZN5Mixer11MultiplexerIfEC2Ej
FN:82,_ZN5Mixer11MultiplexerIfEC2Ev
FNDA:0,_ZN5Mixer11MultiplexerIfED0Ev
FNDA:0,_ZN5Mixer11MultiplexerIfED2Ev
FNDA:0,_ZN5Mixer11MultiplexerIfE15setChannelCountEj
FNDA:0,_ZN5Mixer11MultiplexerIfE15getChannelCountEv
FNDA:0,_ZN5Mixer11MultiplexerIfE5clearEv
FNDA:0,_ZN5Mixer11MultiplexerIfEC2Ej
FNDA:0,_ZN5Mixer11MultiplexerIfEC2Ev
FNF:7
FNH:0
DA:17,0
DA:48,0
DA:49,0
DA:50,0
DA:58,0
DA:59,0
DA:66,0
DA:67,0
DA:68,0
DA:76,0
DA:82,0
LF:11
LH:0
end_of_record
SF:/SharedWithWindows/Projects/diginstrument/inc/iSource.h
FN:15,_ZN8DataFlow7iSourceIfEC2Ev
FN:28,_ZN8DataFlow7iSourceIfED0Ev
FN:28,_ZN8DataFlow7iSourceIfED2Ev
FNDA:0,_ZN8DataFlow7iSourceIfEC2Ev
FNDA:0,_ZN8DataFlow7iSourceIfED0Ev
FNDA:0,_ZN8DataFlow7iSourceIfED2Ev
FNF:3
FNH:0
DA:15,0
DA:28,0
LF:2
LH:0
end_of_record
SF:/SharedWithWindows/Projects/diginstrument/src/multiplexer.cpp
FN:4,_ZN5Mixer11MultiplexerIfE3getERKj
FN:26,_ZN5Mixer11MultiplexerIfE12clearChannelERKj
FN:34,_ZN5Mixer11MultiplexerIfE10setChannelERKjRN8DataFlow7iSourceIfEE
FNDA:11,_ZN5Mixer11MultiplexerIfE3getERKj
FNDA:1,_ZN5Mixer11MultiplexerIfE12clearChannelERKj
FNDA:7,_ZN5Mixer11MultiplexerIfE10setChannelERKjRN8DataFlow7iSourceIfEE
FNF:3
FNH:3
BRDA:6,4294967295,1,11
BRDA:6,4294967295,2,0
BRDA:8,0,1,37
BRDA:8,0,2,0
BRDA:8,1,3,26
BRDA:8,1,4,11
BRDA:9,0,1,26
BRDA:9,0,2,0
BRDA:10,4294967295,2,19
BRDA:10,4294967295,3,7
BRDA:11,0,2,19
BRDA:11,0,3,0
BRDA:11,1,5,19
BRDA:11,1,6,0
BRDA:11,2,8,19
BRDA:11,2,9,0
BRDA:14,0,1,7
BRDA:14,0,2,0
BRDA:14,1,4,7
BRDA:14,1,5,0
BRDA:14,2,7,7
BRDA:14,2,8,0
BRDA:14,3,10,7
BRDA:14,3,11,0
BRDA:17,1,1,484029
BRDA:17,1,2,0
BRDA:17,2,3,484018
BRDA:17,2,4,11
BRDA:18,1,1,1453000
BRDA:18,1,2,0
BRDA:18,2,3,968982
BRDA:18,2,4,484018
BRDA:19,0,3,968982
BRDA:19,0,4,0
BRDA:27,0,1,1
BRDA:27,0,2,0
BRDA:28,4294967295,2,1
BRDA:28,4294967295,3,0
BRDA:29,0,2,1
BRDA:29,0,3,0
BRF:40
BRH:24
DA:4,11
DA:5,22
DA:6,11
DA:7,22
DA:8,37
DA:9,26
DA:10,26
DA:11,19
DA:14,7
DA:17,484029
DA:18,1453000
DA:19,968982
DA:22,22
DA:26,1
DA:27,1
DA:28,1
DA:29,1
DA:31,1
DA:34,7
DA:35,7
DA:36,7
LF:21
LH:21
end_of_record
TN:
SF:/SharedWithWindows/Projects/diginstrument/inc/iSource.h
FN:15,_ZN8DataFlow7iSourceIfEC2Ev
FN:28,_ZN8DataFlow7iSourceIfED2Ev
FN:28,_ZN8DataFlow7iSourceIfED0Ev
FNDA:0,_ZN8DataFlow7iSourceIfEC2Ev
FNDA:0,_ZN8DataFlow7iSourceIfED0Ev
FNDA:0,_ZN8DataFlow7iSourceIfED2Ev
FNF:3
FNH:0
DA:15,0
DA:28,0
LF:2
LH:0
end_of_record
SF:/SharedWithWindows/Projects/diginstrument/src/ogg_file_loader.cpp
FN:6,_ZN13OggFileLoaderIf13VorbisDecoderE10getDecoderEv
FN:11,_ZN13OggFileLoaderIf13VorbisDecoderE4initEv
FN:22,_ZN13OggFileLoaderIf13VorbisDecoderE10initStreamER8ogg_page
FN:34,_ZN13OggFileLoaderIf13VorbisDecoderE4readEv
FN:44,_ZN13OggFileLoaderIf13VorbisDecoderE12readNextPageEv
FN:56,_ZN13OggFileLoaderIf13VorbisDecoderE8nextPageEv
FN:71,_ZN13OggFileLoaderIf13VorbisDecoderE10nextPacketEv
FN:85,_ZN13OggFileLoaderIf13VorbisDecoderE3getERKj
FN:114,_ZN13OggFileLoaderIf13VorbisDecoderE4openERKNSt7__cxx1112basic_stringIcSt11char_traitsIcESaIcEEE
FN:127,_ZN13OggFileLoaderIf13VorbisDecoderE5closeEv
FN:135,_ZN13OggFileLoaderIf13VorbisDecoderE5clearEv
FN:144,_ZN13OggFileLoaderIf13VorbisDecoderEC2Ev
FN:150,_ZN13OggFileLoaderIf13VorbisDecoderED2Ev
FN:150,_ZN13OggFileLoaderIf13VorbisDecoderED0Ev
FNDA:4,_ZN13OggFileLoaderIf13VorbisDecoderE10getDecoderEv
FNDA:1,_ZN13OggFileLoaderIf13VorbisDecoderE4initEv
FNDA:1,_ZN13OggFileLoaderIf13VorbisDecoderE10initStreamER8ogg_page
FNDA:9,_ZN13OggFileLoaderIf13VorbisDecoderE4readEv
FNDA:9,_ZN13OggFileLoaderIf13VorbisDecoderE12readNextPageEv
FNDA:9,_ZN13OggFileLoaderIf13VorbisDecoderE8nextPageEv
FNDA:479,_ZN13OggFileLoaderIf13VorbisDecoderE10nextPacketEv
FNDA:1876,_ZN13OggFileLoaderIf13VorbisDecoderE3getERKj
FNDA:1,_ZN13OggFileLoaderIf13VorbisDecoderE4openERKNSt7__cxx1112basic_stringIcSt11char_traitsIcESaIcEEE
FNDA:1,_ZN13OggFileLoaderIf13VorbisDecoderE5closeEv
FNDA:1,_ZN13OggFileLoaderIf13VorbisDecoderE5clearEv
FNDA:1,_ZN13OggFileLoaderIf13VorbisDecoderEC2Ev
FNDA:0,_ZN13OggFileLoaderIf13VorbisDecoderED0Ev
FNDA:1,_ZN13OggFileLoaderIf13VorbisDecoderED2Ev
FNF:14
FNH:13
BRDA:13,1,0,3
BRDA:13,1,1,1
BRDA:25,4294967295,0,0
BRDA:25,4294967295,1,1
BRDA:47,0,0,10
BRDA:47,0,1,8
BRDA:47,1,2,9
BRDA:47,1,3,1
BRDA:49,0,1,1
BRDA:49,0,2,8
BRDA:59,4294967295,0,1
BRDA:59,4294967295,1,8
BRDA:63,0,0,1
BRDA:63,0,1,8
BRDA:73,0,0,1
BRDA:73,0,1,478
BRDA:76,0,0,9
BRDA:76,0,1,478
BRDA:76,1,2,8
BRDA:76,1,3,1
BRDA:88,4294967295,1,1876
BRDA:88,4294967295,2,0
BRDA:90,0,0,2348
BRDA:90,0,1,1875
BRDA:92,0,1,1872
BRDA:92,0,2,476
BRDA:94,4294967295,9,1872
BRDA:94,4294967295,10,0
BRDA:96,0,7,1872
BRDA:96,0,8,0
BRDA:99,0,1,476
BRDA:99,0,2,0
BRDA:100,0,0,1
BRDA:100,0,1,475
BRDA:104,0,1,475
BRDA:104,0,2,0
BRDA:106,4294967295,9,475
BRDA:106,4294967295,10,0
BRDA:108,0,7,475
BRDA:108,0,8,0
BRDA:117,4294967295,1,0
BRDA:117,4294967295,2,1
BRDA:137,0,0,1
BRDA:137,0,1,0
BRDA:144,1,2,1
BRDA:144,1,3,0
BRDA:144,2,5,1
BRDA:144,2,6,0
BRDA:146,4294967295,1,1
BRDA:146,4294967295,2,0
BRDA:152,0,1,0
BRDA:152,0,2,1
BRF:52
BRH:38
DA:6,4
DA:7,4
DA:11,1
DA:13,4
DA:15,3
DA:16,3
DA:18,1
DA:22,1
DA:24,1
DA:25,1
DA:28,0
DA:30,1
DA:31,1
DA:34,9
DA:36,9
DA:37,9
DA:38,9
DA:39,9
DA:40,9
DA:44,9
DA:46,9
DA:47,18
DA:49,9
DA:50,9
DA:52,9
DA:56,9
DA:58,9
DA:59,9
DA:61,1
DA:63,9
DA:65,1
DA:67,8
DA:71,479
DA:73,479
DA:74,1
DA:75,479
DA:76,487
DA:78,8
DA:79,8
DA:81,479
DA:85,1876
DA:87,3752
DA:88,1876
DA:89,1876
DA:90,4223
DA:92,2348
DA:93,1872
DA:94,1872
DA:95,1872
DA:96,1872
DA:97,1872
DA:99,476
DA:100,476
DA:101,1
DA:102,1
DA:104,950
DA:105,475
DA:106,475
DA:107,475
DA:108,475
DA:110,1875
DA:114,1
DA:116,1
DA:117,1
DA:120,0
DA:122,1
DA:123,1
DA:127,1
DA:129,1
DA:130,1
DA:131,1
DA:135,1
DA:137,1
DA:138,1
DA:140,1
DA:141,1
DA:144,2
DA:146,1
DA:147,1
DA:150,1
DA:152,1
DA:154,0
DA:156,1
DA:157,1
LF:84
LH:81
end_of_record
TN:
SF:/SharedWithWindows/Projects/diginstrument/inc/Pattern.h
FN:10,_ZN11Composition7PatternD2Ev
FN:10,_ZN11Composition7PatternC2ERKS0_
FN:23,_ZN11Composition7PatternltES0_
FN:39,_ZNK11Composition4Note9getLengthEv
FN:40,_ZNK11Composition4Note7getNameB5cxx11Ev
FNDA:0,_ZN11Composition7PatternC2ERKS0_
FNDA:0,_ZN11Composition7PatternD2Ev
FNDA:0,_ZN11Composition7PatternltES0_
FNDA:0,_ZNK11Composition4Note9getLengthEv
FNDA:0,_ZNK11Composition4Note7getNameB5cxx11Ev
FNF:5
FNH:0
DA:10,0
DA:23,0
DA:24,0
DA:39,0
DA:40,0
LF:5
LH:0
end_of_record
SF:/SharedWithWindows/Projects/diginstrument/src/pattern.cpp
FN:3,_ZN11Composition7Pattern18flattenPatternIntoERSt8multisetISt4pairIfNSt7__cxx1112basic_stringIcSt11char_traitsIcESaIcEEEESt4lessIS9_ESaIS9_EEf
FN:11,_ZN11Composition4Note18flattenPatternIntoERSt8multisetISt4pairIfNSt7__cxx1112basic_stringIcSt11char_traitsIcESaIcEEEESt4lessIS9_ESaIS9_EEf
FN:16,_ZN11Composition7Pattern9serializeB5cxx11Ev
FN:23,_ZNK11Composition7Pattern9getLengthEv
FN:28,_ZN11Composition7Pattern3addERS0_f
FN:33,_ZN11Composition7Pattern6removeERS0_f
FNDA:0,_ZN11Composition7Pattern18flattenPatternIntoERSt8multisetISt4pairIfNSt7__cxx1112basic_stringIcSt11char_traitsIcESaIcEEEESt4lessIS9_ESaIS9_EEf
FNDA:0,_ZN11Composition4Note18flattenPatternIntoERSt8multisetISt4pairIfNSt7__cxx1112basic_stringIcSt11char_traitsIcESaIcEEEESt4lessIS9_ESaIS9_EEf
FNDA:0,_ZN11Composition7Pattern9serializeB5cxx11Ev
FNDA:0,_ZNK11Composition7Pattern9getLengthEv
FNDA:0,_ZN11Composition7Pattern3addERS0_f
FNDA:0,_ZN11Composition7Pattern6removeERS0_f
FNF:6
FNH:0
BRDA:5,1,5,-
BRDA:5,1,6,-
BRDA:7,4294967295,1,-
BRDA:7,4294967295,2,-
BRDA:13,0,3,-
BRDA:13,0,4,-
BRDA:19,4294967295,1,-
BRDA:19,4294967295,2,-
BRDA:20,0,6,-
BRDA:20,0,7,-
BRDA:30,0,3,-
BRDA:30,0,4,-
BRF:12
BRH:0
DA:3,0
DA:5,0
DA:7,0
DA:9,0
DA:11,0
DA:13,0
DA:14,0
DA:16,0
DA:18,0
DA:19,0
DA:20,0
DA:23,0
DA:26,0
DA:28,0
DA:30,0
DA:31,0
DA:33,0
DA:41,0
LF:18
LH:0
end_of_record
TN:
SF:/SharedWithWindows/Projects/diginstrument/inc/PortAudioBackend.h
FN:26,_ZN5Mixer16PortAudioBackendIfED0Ev
FN:26,_ZN5Mixer16PortAudioBackendIfED2Ev
FNDA:0,_ZN5Mixer16PortAudioBackendIfED0Ev
FNDA:0,_ZN5Mixer16PortAudioBackendIfED2Ev
FNF:2
FNH:0
DA:26,0
LF:1
LH:0
end_of_record
SF:/SharedWithWindows/Projects/diginstrument/inc/iAudioBackend.h
FN:27,_ZN5Mixer13iAudioBackendIfED0Ev
FN:27,_ZN5Mixer13iAudioBackendIfED2Ev
FNDA:0,_ZN5Mixer13iAudioBackendIfED0Ev
FNDA:0,_ZN5Mixer13iAudioBackendIfED2Ev
FNF:2
FNH:0
DA:27,0
LF:1
LH:0
end_of_record
SF:/SharedWithWindows/Projects/diginstrument/src/portaudio_backend.cpp
FN:4,_Z16Pa_error_occurediNSt7__cxx1112basic_stringIcSt11char_traitsIcESaIcEEE
FN:15,_ZN5Mixer16PortAudioBackendIfE5startEv
FN:38,_ZN5Mixer16PortAudioBackendIfE4stopEv
FN:60,_ZN5Mixer16PortAudioBackendIfE5closeEv
FN:79,_ZN5Mixer16PortAudioBackendIfE4initERN8DataFlow7iSourceIfEERKjS7_
FN:132,_ZN5Mixer16PortAudioBackendIfE16callbackFunctionEPKvPvmPK24PaStreamCallbackTimeInfomS4_
FN:148,_Z41__static_initialization_and_destruction_0ii
FN:148,_GLOBAL__sub_I__Z16Pa_error_occurediNSt7__cxx1112basic_stringIcSt11char_traitsIcESaIcEEE
FNDA:2,_Z16Pa_error_occurediNSt7__cxx1112basic_stringIcSt11char_traitsIcESaIcEEE
FNDA:2,_ZN5Mixer16PortAudioBackendIfE5startEv
FNDA:2,_ZN5Mixer16PortAudioBackendIfE4stopEv
FNDA:2,_ZN5Mixer16PortAudioBackendIfE5closeEv
FNDA:4,_ZN5Mixer16PortAudioBackendIfE4initERN8DataFlow7iSourceIfEERKjS7_
FNDA:5,_ZN5Mixer16PortAudioBackendIfE16callbackFunctionEPKvPvmPK24PaStreamCallbackTimeInfomS4_
FNDA:1,_GLOBAL__sub_I__Z16Pa_error_occurediNSt7__cxx1112basic_stringIcSt11char_traitsIcESaIcEEE
FNDA:1,_Z41__static_initialization_and_destruction_0ii
FNF:8
FNH:8
BRDA:17,0,0,0
BRDA:17,0,1,2
BRDA:21,0,1,1
BRDA:21,0,2,1
BRDA:26,4294967295,0,0
BRDA:26,4294967295,1,1
BRDA:29,0,2,-
BRDA:29,0,3,-
BRDA:29,1,6,-
BRDA:29,1,7,-
BRDA:40,0,0,0
BRDA:40,0,1,2
BRDA:44,0,1,1
BRDA:44,0,2,1
BRDA:49,4294967295,0,0
BRDA:49,4294967295,1,1
BRDA:52,0,2,-
BRDA:52,0,3,-
BRDA:52,1,6,-
BRDA:52,1,7,-
BRDA:62,0,0,0
BRDA:62,0,1,2
BRDA:67,4294967295,0,1
BRDA:67,4294967295,1,1
BRDA:70,0,2,1
BRDA:70,0,3,0
BRDA:70,1,6,1
BRDA:70,1,7,0
BRDA:85,0,1,4
BRDA:85,0,2,0
BRDA:86,0,0,0
BRDA:86,0,1,4
BRDA:89,0,2,-
BRDA:89,0,3,-
BRDA:89,1,6,-
BRDA:89,1,7,-
BRDA:94,0,1,4
BRDA:94,0,2,0
BRDA:95,0,0,0
BRDA:95,0,1,4
BRDA:97,0,0,-
BRDA:97,0,1,-
BRDA:100,0,2,-
BRDA:100,0,3,-
BRDA:100,1,6,-
BRDA:100,1,7,-
BRDA:107,0,1,4
BRDA:107,0,2,0
BRDA:110,0,1,4
BRDA:110,0,2,0
BRDA:120,0,0,1
BRDA:120,0,1,3
BRDA:123,0,2,1
BRDA:123,0,3,0
BRDA:123,1,6,1
BRDA:123,1,7,0
BRDA:143,0,1,5
BRDA:143,0,2,0
BRDA:144,4294967295,5,5
BRDA:144,4294967295,6,0
BRDA:148,3,1,1
BRDA:148,3,2,0
BRDA:148,4,3,1
BRDA:148,4,4,0
BRF:64
BRH:27
DA:4,2
DA:6,2
DA:7,2
DA:8,2
DA:9,2
DA:10,4
DA:11,2
DA:15,2
DA:17,2
DA:19,0
DA:21,2
DA:23,1
DA:25,1
DA:26,1
DA:29,0
DA:31,0
DA:34,2
DA:38,2
DA:40,2
DA:42,0
DA:44,2
DA:46,1
DA:48,1
DA:49,1
DA:52,0
DA:54,0
DA:56,2
DA:60,2
DA:62,2
DA:64,0
DA:66,2
DA:67,2
DA:70,1
DA:72,1
DA:74,2
DA:79,4
DA:81,4
DA:85,4
DA:86,4
DA:89,0
DA:91,0
DA:94,4
DA:95,4
DA:97,0
DA:100,0
DA:102,0
DA:105,4
DA:106,4
DA:107,4
DA:108,4
DA:110,4
DA:114,4
DA:118,4
DA:120,4
DA:123,1
DA:125,1
DA:127,4
DA:132,5
DA:139,5
DA:140,5
DA:143,10
DA:144,5
DA:145,5
DA:148,4
LF:64
LH:52
end_of_record
TN:
SF:/SharedWithWindows/Projects/diginstrument/inc/QueueBuffer.h
FN:13,_ZN8DataFlow11QueueBufferIfED0Ev
FN:13,_ZN8DataFlow11QueueBufferIfED2Ev
FNDA:0,_ZN8DataFlow11QueueBufferIfED0Ev
FNDA:0,_ZN8DataFlow11QueueBufferIfED2Ev
FNF:2
FNH:0
DA:13,0
LF:1
LH:0
end_of_record
SF:/SharedWithWindows/Projects/diginstrument/inc/iBuffer.h
FN:23,_ZN8DataFlow7iBufferIfED0Ev
FN:23,_ZN8DataFlow7iBufferIfED2Ev
FNDA:0,_ZN8DataFlow7iBufferIfED0Ev
FNDA:0,_ZN8DataFlow7iBufferIfED2Ev
FNF:2
FNH:0
DA:23,0
LF:1
LH:0
end_of_record
SF:/SharedWithWindows/Projects/diginstrument/inc/iSource.h
FN:28,_ZN8DataFlow7iSourceIfED0Ev
FN:28,_ZN8DataFlow7iSourceIfED2Ev
FNDA:0,_ZN8DataFlow7iSourceIfED0Ev
FNDA:0,_ZN8DataFlow7iSourceIfED2Ev
FNF:2
FNH:0
DA:28,0
LF:1
LH:0
end_of_record
SF:/SharedWithWindows/Projects/diginstrument/src/queue_buffer.cpp
FN:4,_ZN8DataFlow11QueueBufferIfE3getERKj
FN:16,_ZN8DataFlow11QueueBufferIfE3getEv
FN:23,_ZN8DataFlow11QueueBufferIfE3putESt6vectorIfSaIfEE
FN:30,_ZN8DataFlow11QueueBufferIfE3putEf
FN:35,_ZN8DataFlow11QueueBufferIfE5clearEv
FN:41,_ZN8DataFlow11QueueBufferIfE4sizeEv
FNDA:2,_ZN8DataFlow11QueueBufferIfE3getERKj
FNDA:1503,_ZN8DataFlow11QueueBufferIfE3getEv
FNDA:1948,_ZN8DataFlow11QueueBufferIfE3putESt6vectorIfSaIfEE
FNDA:1504,_ZN8DataFlow11QueueBufferIfE3putEf
FNDA:2,_ZN8DataFlow11QueueBufferIfE5clearEv
FNDA:100,_ZN8DataFlow11QueueBufferIfE4sizeEv
FNF:6
FNH:6
BRDA:6,4294967295,1,2
BRDA:6,4294967295,2,0
BRDA:7,1,0,1010000
BRDA:7,1,1,2
BRDA:8,0,1,0
BRDA:8,0,2,1010000
BRDA:9,0,2,1010000
BRDA:9,0,3,0
BRDA:24,1,5,1019858
BRDA:24,1,6,1948
BRDA:25,4294967295,2,1019858
BRDA:25,4294967295,3,0
BRDA:36,0,1,2
BRDA:36,0,2,0
BRDA:36,1,4,2
BRDA:36,1,5,0
BRF:16
BRH:10
DA:4,2
DA:5,4
DA:6,2
DA:7,1010002
DA:8,1010000
DA:9,1010000
DA:10,1010000
DA:12,2
DA:16,1503
DA:17,1503
DA:18,1503
DA:19,1503
DA:23,1948
DA:24,1021806
DA:25,1019858
DA:27,1948
DA:30,1504
DA:31,1504
DA:32,1504
DA:35,2
DA:36,4
DA:37,2
DA:38,2
DA:41,100
DA:42,100
LF:25
LH:25
end_of_record
TN:
SF:/SharedWithWindows/Projects/diginstrument/inc/AudioSource.h
FN:23,_ZNK5Mixer11AudioSource11getChannelsEv
FN:30,_ZNK5Mixer11AudioSource13getSampleRateEv
FN:33,_ZN5Mixer11AudioSourceC2ERKjS2_
FNDA:0,_ZNK5Mixer11AudioSource11getChannelsEv
FNDA:0,_ZNK5Mixer11AudioSource13getSampleRateEv
FNDA:0,_ZN5Mixer11AudioSourceC2ERKjS2_
FNF:3
FNH:0
DA:23,0
DA:30,0
DA:33,0
LF:3
LH:0
end_of_record
SF:/SharedWithWindows/Projects/diginstrument/inc/Recorder.h
FN:53,_ZN5Mixer8RecorderIfE6attachERN8DataFlow7iBufferIfEE
FN:65,_ZN5Mixer8RecorderIfEC2ERKjS3_
FNDA:0,_ZN5Mixer8RecorderIfE6attachERN8DataFlow7iBufferIfEE
FNDA:0,_ZN5Mixer8RecorderIfEC2ERKjS3_
FNF:2
FNH:0
DA:53,0
DA:54,0
DA:55,0
DA:65,0
LF:4
LH:0
end_of_record
SF:/SharedWithWindows/Projects/diginstrument/src/recorder.cpp
FN:4,_Z29Pa_error_occured_during_inputiNSt7__cxx1112basic_stringIcSt11char_traitsIcESaIcEEE
FN:16,_ZN5Mixer8RecorderIfE6recordERKfb
FN:89,_ZN5Mixer8RecorderIfE16callbackFunctionEPKvPvmPK24PaStreamCallbackTimeInfomS4_
FN:112,_GLOBAL__sub_I__Z29Pa_error_occured_during_inputiNSt7__cxx1112basic_stringIcSt11char_traitsIcESaIcEEE
FN:112,_Z41__static_initialization_and_destruction_0ii
FNDA:1,_Z29Pa_error_occured_during_inputiNSt7__cxx1112basic_stringIcSt11char_traitsIcESaIcEEE
FNDA:4,_ZN5Mixer8RecorderIfE6recordERKfb
FNDA:68,_ZN5Mixer8RecorderIfE16callbackFunctionEPKvPvmPK24PaStreamCallbackTimeInfomS4_
FNDA:1,_GLOBAL__sub_I__Z29Pa_error_occured_during_inputiNSt7__cxx1112basic_stringIcSt11char_traitsIcESaIcEEE
FNDA:1,_Z41__static_initialization_and_destruction_0ii
FNF:5
FNH:5
BRDA:20,0,1,4
BRDA:20,0,2,0
BRDA:21,0,0,0
BRDA:21,0,1,4
BRDA:24,0,2,-
BRDA:24,0,3,-
BRDA:24,1,6,-
BRDA:24,1,7,-
BRDA:30,0,1,4
BRDA:30,0,2,0
BRDA:31,0,0,0
BRDA:31,0,1,4
BRDA:33,0,2,-
BRDA:33,0,3,-
BRDA:33,1,6,-
BRDA:33,1,7,-
BRDA:39,0,1,4
BRDA:39,0,2,0
BRDA:43,0,0,1
BRDA:43,0,1,3
BRDA:55,4294967295,1,4
BRDA:55,4294967295,2,0
BRDA:57,0,0,1
BRDA:57,0,1,3
BRDA:60,0,2,1
BRDA:60,0,3,0
BRDA:60,1,6,1
BRDA:60,1,7,0
BRDA:64,0,1,3
BRDA:64,0,2,0
BRDA:65,0,0,0
BRDA:65,0,1,3
BRDA:67,0,2,-
BRDA:67,0,3,-
BRDA:67,1,6,-
BRDA:67,1,7,-
BRDA:72,0,1,384
BRDA:72,0,2,0
BRDA:72,1,5,381
BRDA:72,1,6,3
BRDA:73,0,2,381
BRDA:73,0,3,0
BRDA:76,0,1,3
BRDA:76,0,2,0
BRDA:77,0,0,0
BRDA:77,0,1,3
BRDA:79,0,2,-
BRDA:79,0,3,-
BRDA:79,1,6,-
BRDA:79,1,7,-
BRDA:83,0,1,3
BRDA:83,0,2,0
BRDA:101,4294967295,2,68
BRDA:101,4294967295,3,0
BRDA:102,1,0,14504
BRDA:102,1,1,68
BRDA:103,1,1,29008
BRDA:103,1,2,14504
BRDA:104,0,1,29008
BRDA:104,0,2,0
BRDA:107,0,1,68
BRDA:107,0,2,0
BRDA:107,1,4,68
BRDA:107,1,5,0
BRDA:112,3,1,1
BRDA:112,3,2,0
BRDA:112,4,3,1
BRDA:112,4,4,0
BRF:68
BRH:31
DA:4,1
DA:6,1
DA:7,1
DA:8,1
DA:9,1
DA:10,2
DA:11,1
DA:16,4
DA:20,4
DA:21,4
DA:24,0
DA:26,0
DA:30,4
DA:31,4
DA:33,0
DA:35,0
DA:37,4
DA:38,4
DA:39,4
DA:40,4
DA:42,4
DA:43,4
DA:44,1
DA:47,8
DA:51,4
DA:55,4
DA:57,4
DA:60,1
DA:62,1
DA:64,3
DA:65,3
DA:67,0
DA:69,0
DA:72,384
DA:73,381
DA:76,3
DA:77,3
DA:79,0
DA:81,0
DA:83,3
DA:84,4
DA:89,68
DA:96,68
DA:97,68
DA:100,136
DA:101,68
DA:102,14572
DA:103,43512
DA:104,29008
DA:107,68
DA:109,68
DA:112,4
LF:52
LH:44
end_of_record
TN:
SF:/SharedWithWindows/Projects/diginstrument/inc/RepeatingBuffer.h
FN:15,_ZN8DataFlow15RepeatingBufferIiED0Ev
FN:15,_ZN8DataFlow15RepeatingBufferIfED2Ev
FN:15,_ZN8DataFlow15RepeatingBufferIfED0Ev
FN:15,_ZN8DataFlow15RepeatingBufferIiED2Ev
FN:46,_ZN8DataFlow15RepeatingBufferIiEC2Ev
FN:46,_ZN8DataFlow15RepeatingBufferIfEC2Ev
FNDA:0,_ZN8DataFlow15RepeatingBufferIfED0Ev
FNDA:0,_ZN8DataFlow15RepeatingBufferIfED2Ev
FNDA:0,_ZN8DataFlow15RepeatingBufferIiED0Ev
FNDA:0,_ZN8DataFlow15RepeatingBufferIiED2Ev
FNDA:0,_ZN8DataFlow15RepeatingBufferIiEC2Ev
FNDA:0,_ZN8DataFlow15RepeatingBufferIfEC2Ev
FNF:6
FNH:0
DA:15,0
DA:46,0
LF:2
LH:0
end_of_record
SF:/SharedWithWindows/Projects/diginstrument/inc/iBuffer.h
FN:11,_ZN8DataFlow7iBufferIiEC2Ev
FN:11,_ZN8DataFlow7iBufferIfEC2Ev
FN:23,_ZN8DataFlow7iBufferIiED0Ev
FN:23,_ZN8DataFlow7iBufferIfED0Ev
FN:23,_ZN8DataFlow7iBufferIiED2Ev
FN:23,_ZN8DataFlow7iBufferIfED2Ev
FNDA:0,_ZN8DataFlow7iBufferIiEC2Ev
FNDA:0,_ZN8DataFlow7iBufferIfEC2Ev
FNDA:0,_ZN8DataFlow7iBufferIiED0Ev
FNDA:0,_ZN8DataFlow7iBufferIiED2Ev
FNDA:0,_ZN8DataFlow7iBufferIfED0Ev
FNDA:0,_ZN8DataFlow7iBufferIfED2Ev
FNF:6
FNH:0
DA:11,0
DA:23,0
LF:2
LH:0
end_of_record
SF:/SharedWithWindows/Projects/diginstrument/inc/iSource.h
FN:15,_ZN8DataFlow7iSourceIiEC2Ev
FN:15,_ZN8DataFlow7iSourceIfEC2Ev
FN:28,_ZN8DataFlow7iSourceIiED0Ev
FN:28,_ZN8DataFlow7iSourceIfED0Ev
FN:28,_ZN8DataFlow7iSourceIfED2Ev
FN:28,_ZN8DataFlow7iSourceIiED2Ev
FNDA:0,_ZN8DataFlow7iSourceIiEC2Ev
FNDA:0,_ZN8DataFlow7iSourceIfEC2Ev
FNDA:0,_ZN8DataFlow7iSourceIiED0Ev
FNDA:0,_ZN8DataFlow7iSourceIiED2Ev
FNDA:0,_ZN8DataFlow7iSourceIfED0Ev
FNDA:0,_ZN8DataFlow7iSourceIfED2Ev
FNF:6
FNH:0
DA:15,0
DA:28,0
LF:2
LH:0
end_of_record
SF:/SharedWithWindows/Projects/diginstrument/src/repeating_buffer.cpp
FN:4,_ZN8DataFlow15RepeatingBufferIfE3getERKj
FN:4,_ZN8DataFlow15RepeatingBufferIiE3getERKj
FN:15,_ZN8DataFlow15RepeatingBufferIiE3putESt6vectorIiSaIiEE
FN:15,_ZN8DataFlow15RepeatingBufferIfE3putESt6vectorIfSaIfEE
FN:21,_ZN8DataFlow15RepeatingBufferIiE5clearEv
FN:21,_ZN8DataFlow15RepeatingBufferIfE5clearEv
FN:26,_ZN8DataFlow15RepeatingBufferIfE4sizeEv
FN:26,_ZN8DataFlow15RepeatingBufferIiE4sizeEv
FN:31,_ZN8DataFlow15RepeatingBufferIiEC2ESt6vectorIiSaIiEE
FN:31,_ZN8DataFlow15RepeatingBufferIfEC2ESt6vectorIfSaIfEE
FNDA:11,_ZN8DataFlow15RepeatingBufferIiE3getERKj
FNDA:37,_ZN8DataFlow15RepeatingBufferIfE3getERKj
FNDA:1,_ZN8DataFlow15RepeatingBufferIiE3putESt6vectorIiSaIiEE
FNDA:2,_ZN8DataFlow15RepeatingBufferIfE3putESt6vectorIfSaIfEE
FNDA:1,_ZN8DataFlow15RepeatingBufferIiE5clearEv
FNDA:4,_ZN8DataFlow15RepeatingBufferIfE5clearEv
FNDA:2,_ZN8DataFlow15RepeatingBufferIiE4sizeEv
FNDA:294,_ZN8DataFlow15RepeatingBufferIfE4sizeEv
FNDA:10,_ZN8DataFlow15RepeatingBufferIiEC2ESt6vectorIiSaIiEE
FNDA:50,_ZN8DataFlow15RepeatingBufferIfEC2ESt6vectorIfSaIfEE
FNF:10
FNH:10
BRDA:6,4294967295,1,11
BRDA:6,4294967295,2,0
BRDA:6,4294967295,4,37
BRDA:6,4294967295,5,0
BRDA:7,1,0,5608
BRDA:7,1,1,11
BRDA:7,3,2,973098
BRDA:7,3,3,37
BRDA:8,0,2,5608
BRDA:8,0,3,0
BRDA:8,1,6,973098
BRDA:8,1,7,0
BRF:12
BRH:8
DA:4,48
DA:5,96
DA:6,48
DA:7,978754
DA:8,978706
DA:9,978706
DA:11,96
DA:15,3
DA:16,3
DA:17,3
DA:18,3
DA:21,5
DA:22,5
DA:23,5
DA:26,296
DA:27,296
DA:31,120
DA:32,60
DA:33,60
LF:19
LH:19
end_of_record
TN:
SF:/SharedWithWindows/Projects/diginstrument/inc/Applicator.h
FN:23,_ZN8DataFlow10ApplicatorIf13VolumeControlED0Ev
FN:23,_ZN8DataFlow10ApplicatorIf13VolumeControlED2Ev
FN:23,_ZN8DataFlow10ApplicatorIf13VolumeControlEC2Ev
FN:29,_ZN8DataFlow10ApplicatorIf13VolumeControlE3getERKj
FN:41,_ZN8DataFlow10ApplicatorIf13VolumeControlE9getMethodEv
FN:51,_ZN8DataFlow10ApplicatorIf13VolumeControlE6attachERNS_7iSourceIfEE
FNDA:0,_ZN8DataFlow10ApplicatorIf13VolumeControlED0Ev
FNDA:0,_ZN8DataFlow10ApplicatorIf13VolumeControlED2Ev
FNDA:0,_ZN8DataFlow10ApplicatorIf13VolumeControlEC2Ev
FNDA:0,_ZN8DataFlow10ApplicatorIf13VolumeControlE3getERKj
FNDA:0,_ZN8DataFlow10ApplicatorIf13VolumeControlE9getMethodEv
FNDA:0,_ZN8DataFlow10ApplicatorIf13VolumeControlE6attachERNS_7iSourceIfEE
FNF:6
FNH:0
BRDA:31,0,1,-
BRDA:31,0,2,-
BRDA:32,4294967295,1,-
BRDA:32,4294967295,2,-
BRF:4
BRH:0
DA:23,0
DA:29,0
DA:31,0
DA:32,0
DA:33,0
DA:41,0
DA:42,0
DA:51,0
DA:53,0
DA:54,0
LF:10
LH:0
end_of_record
SF:/SharedWithWindows/Projects/diginstrument/inc/AudioSource.h
FN:33,_ZN5Mixer11AudioSourceC2ERKjS2_
FNDA:0,_ZN5Mixer11AudioSourceC2ERKjS2_
FNF:1
FNH:0
DA:33,0
LF:1
LH:0
end_of_record
SF:/SharedWithWindows/Projects/diginstrument/inc/ConsolidationMethods.h
FN:19,_ZN13Consolidation12AccumulationIfED0Ev
FN:19,_ZN13Consolidation12AccumulationIfED2Ev
FN:19,_ZN13Consolidation12AccumulationIfEC2Ev
FNDA:0,_ZN13Consolidation12AccumulationIfED0Ev
FNDA:0,_ZN13Consolidation12AccumulationIfED2Ev
FNDA:0,_ZN13Consolidation12AccumulationIfEC2Ev
FNF:3
FNH:0
DA:19,0
LF:1
LH:0
end_of_record
SF:/SharedWithWindows/Projects/diginstrument/inc/Consolidator.h
FN:20,_ZN8DataFlow12ConsolidatorIfN13Consolidation12AccumulationEEC2Ev
FN:20,_ZN8DataFlow12ConsolidatorIfN13Consolidation12AccumulationEED2Ev
FN:20,_ZN8DataFlow12ConsolidatorIfN13Consolidation12AccumulationEED0Ev
FN:31,_ZN8DataFlow12ConsolidatorIfN13Consolidation12AccumulationEE6attachERNS_7iSourceIfEE
FN:60,_ZN8DataFlow12ConsolidatorIfN13Consolidation12AccumulationEE3getERKj
FNDA:0,_ZN8DataFlow12ConsolidatorIfN13Consolidation12AccumulationEED0Ev
FNDA:0,_ZN8DataFlow12ConsolidatorIfN13Consolidation12AccumulationEED2Ev
FNDA:0,_ZN8DataFlow12ConsolidatorIfN13Consolidation12AccumulationEEC2Ev
FNDA:0,_ZN8DataFlow12ConsolidatorIfN13Consolidation12AccumulationEE6attachERNS_7iSourceIfEE
FNDA:0,_ZN8DataFlow12ConsolidatorIfN13Consolidation12AccumulationEE3getERKj
FNF:5
FNH:0
BRDA:32,0,2,-
BRDA:32,0,3,-
BRDA:61,0,4,-
BRDA:61,0,5,-
BRDA:62,0,1,-
BRDA:62,0,2,-
BRDA:63,0,4,-
BRDA:63,0,5,-
BRF:8
BRH:0
DA:20,0
DA:31,0
DA:32,0
DA:33,0
DA:60,0
DA:61,0
DA:62,0
DA:63,0
DA:65,0
LF:9
LH:0
end_of_record
SF:/SharedWithWindows/Projects/diginstrument/inc/SawtoothGenerator.h
FN:29,_ZN5Mixer17SawtoothGeneratorIfED0Ev
FN:29,_ZN5Mixer17SawtoothGeneratorIfED2Ev
FNDA:0,_ZN5Mixer17SawtoothGeneratorIfED0Ev
FNDA:0,_ZN5Mixer17SawtoothGeneratorIfED2Ev
FNF:2
FNH:0
DA:29,0
LF:1
LH:0
end_of_record
SF:/SharedWithWindows/Projects/diginstrument/inc/VolumeControl.h
FN:15,_ZN13VolumeControlIfED2Ev
FN:22,_ZN13VolumeControlIfE14stepTransitionERKi
FN:44,_ZN13VolumeControlIfE9setVolumeERKf
FN:55,_ZN13VolumeControlIfEclERSt6vectorIfSaIfEE
FN:183,_ZN13VolumeControlIfEC2Ev
FNDA:0,_ZN13VolumeControlIfED2Ev
FNDA:0,_ZN13VolumeControlIfE14stepTransitionERKi
FNDA:0,_ZN13VolumeControlIfE9setVolumeERKf
FNDA:0,_ZN13VolumeControlIfEclERSt6vectorIfSaIfEE
FNDA:0,_ZN13VolumeControlIfEC2Ev
FNF:5
FNH:0
BRDA:23,0,1,-
BRDA:23,0,2,-
BRDA:24,0,2,-
BRDA:24,0,3,-
BRDA:57,1,5,-
BRDA:57,1,6,-
BRDA:60,4294967295,1,-
BRDA:60,4294967295,2,-
BRF:8
BRH:0
DA:15,0
DA:22,0
DA:23,0
DA:24,0
DA:26,0
DA:44,0
DA:46,0
DA:47,0
DA:55,0
DA:57,0
DA:59,0
DA:60,0
DA:62,0
DA:183,0
LF:14
LH:0
end_of_record
SF:/SharedWithWindows/Projects/diginstrument/inc/iConsolidationMethod.h
FN:13,_ZN8DataFlow20iConsolidationMethodIfEC2Ev
FN:41,_ZN8DataFlow20iConsolidationMethodIfED2Ev
FN:41,_ZN8DataFlow20iConsolidationMethodIfED0Ev
FNDA:0,_ZN8DataFlow20iConsolidationMethodIfEC2Ev
FNDA:0,_ZN8DataFlow20iConsolidationMethodIfED0Ev
FNDA:0,_ZN8DataFlow20iConsolidationMethodIfED2Ev
FNF:3
FNH:0
DA:13,0
DA:41,0
LF:2
LH:0
end_of_record
SF:/SharedWithWindows/Projects/diginstrument/inc/iSource.h
FN:15,_ZN8DataFlow7iSourceIfEC2Ev
FN:28,_ZN8DataFlow7iSourceIfED2Ev
FN:28,_ZN8DataFlow7iSourceIfED0Ev
FNDA:0,_ZN8DataFlow7iSourceIfEC2Ev
FNDA:0,_ZN8DataFlow7iSourceIfED0Ev
FNDA:0,_ZN8DataFlow7iSourceIfED2Ev
FNF:3
FNH:0
DA:15,0
DA:28,0
LF:2
LH:0
end_of_record
SF:/SharedWithWindows/Projects/diginstrument/inc/iWaveformGenerator.h
FN:10,_ZN5Mixer18iWaveformGeneratorIfEC2Ev
FN:67,_ZN5Mixer18iWaveformGeneratorIfED0Ev
FN:67,_ZN5Mixer18iWaveformGeneratorIfED2Ev
FNDA:0,_ZN5Mixer18iWaveformGeneratorIfEC2Ev
FNDA:0,_ZN5Mixer18iWaveformGeneratorIfED0Ev
FNDA:0,_ZN5Mixer18iWaveformGeneratorIfED2Ev
FNF:3
FNH:0
DA:10,0
DA:67,0
LF:2
LH:0
end_of_record
SF:/SharedWithWindows/Projects/diginstrument/src/sawtooth_generator.cpp
FN:4,_ZN5Mixer17SawtoothGeneratorIfEC2ERKfRKjS5_S5_
FN:18,_ZN5Mixer17SawtoothGeneratorIfE3getERKj
FN:24,_ZNK5Mixer17SawtoothGeneratorIfE12getFrequencyEv
FN:30,_ZN5Mixer17SawtoothGeneratorIfE12setFrequencyERKf
FN:41,_ZN5Mixer17SawtoothGeneratorIfE12setFrequencyERKfS3_NSt7__cxx1112basic_stringIcSt11char_traitsIcESaIcEEERKj
FNDA:4,_ZN5Mixer17SawtoothGeneratorIfEC2ERKfRKjS5_S5_
FNDA:4,_ZN5Mixer17SawtoothGeneratorIfE3getERKj
FNDA:3,_ZNK5Mixer17SawtoothGeneratorIfE12getFrequencyEv
FNDA:1,_ZN5Mixer17SawtoothGeneratorIfE12setFrequencyERKf
FNDA:1,_ZN5Mixer17SawtoothGeneratorIfE12setFrequencyERKfS3_NSt7__cxx1112basic_stringIcSt11char_traitsIcESaIcEEERKj
FNF:5
FNH:5
BRDA:6,4294967295,1,4
BRDA:6,4294967295,2,0
BRDA:7,0,1,4
BRDA:7,0,2,0
BRDA:8,1,0,204
BRDA:8,1,1,4
BRDA:9,0,1,204
BRDA:9,0,2,0
BRDA:9,1,4,204
BRDA:9,1,5,0
BRDA:10,4294967295,1,204
BRDA:10,4294967295,2,0
BRDA:10,0,4,204
BRDA:10,0,5,0
BRDA:13,4294967295,3,204
BRDA:13,4294967295,4,0
BRDA:33,1,5,51
BRDA:33,1,6,1
BRDA:34,4294967295,2,51
BRDA:34,4294967295,3,0
BRDA:44,1,5,51
BRDA:44,1,6,1
BRDA:45,4294967295,2,51
BRDA:45,4294967295,3,0
BRDA:45,0,5,51
BRDA:45,0,6,0
BRF:26
BRH:16
DA:4,8
DA:6,4
DA:7,4
DA:8,208
DA:9,204
DA:10,204
DA:11,204
DA:12,204
DA:13,204
DA:15,4
DA:18,4
DA:20,4
DA:24,3
DA:26,3
DA:30,1
DA:32,1
DA:33,52
DA:34,51
DA:35,51
DA:37,1
DA:38,1
DA:41,1
DA:43,1
DA:44,52
DA:45,51
DA:46,51
DA:48,1
DA:49,1
LF:28
LH:28
end_of_record
TN:
SF:/SharedWithWindows/Projects/diginstrument/inc/AudioSource.h
FN:23,_ZNK5Mixer11AudioSource11getChannelsEv
FN:30,_ZNK5Mixer11AudioSource13getSampleRateEv
FN:33,_ZN5Mixer11AudioSourceC2ERKjS2_
FNDA:0,_ZNK5Mixer11AudioSource11getChannelsEv
FNDA:0,_ZNK5Mixer11AudioSource13getSampleRateEv
FNDA:0,_ZN5Mixer11AudioSourceC2ERKjS2_
FNF:3
FNH:0
DA:23,0
DA:30,0
DA:33,0
LF:3
LH:0
end_of_record
SF:/SharedWithWindows/Projects/diginstrument/inc/SineGenerator.h
FN:23,_ZN5Mixer13SineGeneratorIfED2Ev
FN:23,_ZN5Mixer13SineGeneratorIfED0Ev
FN:30,_ZN5Mixer13SineGeneratorIfE6fillerEf
FNDA:0,_ZN5Mixer13SineGeneratorIfED0Ev
FNDA:0,_ZN5Mixer13SineGeneratorIfED2Ev
FNDA:4800000,_ZN5Mixer13SineGeneratorIfE6fillerEf
FNF:3
FNH:1
DA:23,0
DA:30,9600000
LF:2
LH:1
end_of_record
SF:/SharedWithWindows/Projects/diginstrument/inc/TransitionFunction.h
FN:17,_ZN18TransitionFunctionIfEC2Ev
FN:43,_ZN18TransitionFunctionIfED2Ev
FN:43,_ZN18TransitionFunctionIfED0Ev
FNDA:0,_ZN18TransitionFunctionIfEC2Ev
FNDA:0,_ZN18TransitionFunctionIfED0Ev
FNDA:0,_ZN18TransitionFunctionIfED2Ev
FNF:3
FNH:0
DA:17,0
DA:43,0
LF:2
LH:0
end_of_record
SF:/SharedWithWindows/Projects/diginstrument/inc/TransitionFunctions.h
FN:19,_ZN10Transition6LinearIfED0Ev
FN:19,_ZN10Transition6LinearIfED2Ev
FN:19,_ZN10Transition6LinearIfEC2Ev
FN:21,_ZN10Transition6LinearIfE4initERKfS3_S3_S3_
FN:27,_ZN10Transition6LinearIfEclERKf
FN:42,_ZN10Transition6EaseIn9QuadraticIfEC2Ev
FN:42,_ZN10Transition6EaseIn9QuadraticIfED2Ev
FN:42,_ZN10Transition6EaseIn9QuadraticIfED0Ev
FN:44,_ZN10Transition6EaseIn9QuadraticIfE4initERKfS4_S4_S4_
FN:50,_ZN10Transition6EaseIn9QuadraticIfEclERKf
FN:58,_ZN10Transition6EaseIn5CubicIfED0Ev
FN:58,_ZN10Transition6EaseIn5CubicIfEC2Ev
FN:58,_ZN10Transition6EaseIn5CubicIfED2Ev
FN:60,_ZN10Transition6EaseIn5CubicIfE4initERKfS4_S4_S4_
FN:66,_ZN10Transition6EaseIn5CubicIfEclERKf
FN:74,_ZN10Transition6EaseIn7QuarticIfEC2Ev
FN:74,_ZN10Transition6EaseIn7QuarticIfED2Ev
FN:74,_ZN10Transition6EaseIn7QuarticIfED0Ev
FN:76,_ZN10Transition6EaseIn7QuarticIfE4initERKfS4_S4_S4_
FN:82,_ZN10Transition6EaseIn7QuarticIfEclERKf
FN:89,_ZN10Transition6EaseIn7QuinticIfED2Ev
FN:89,_ZN10Transition6EaseIn7QuinticIfED0Ev
FN:89,_ZN10Transition6EaseIn7QuinticIfEC2Ev
FN:91,_ZN10Transition6EaseIn7QuinticIfE4initERKfS4_S4_S4_
FN:97,_ZN10Transition6EaseIn7QuinticIfEclERKf
FN:114,_ZN10Transition7EaseOut9QuadraticIfED2Ev
FN:114,_ZN10Transition7EaseOut9QuadraticIfED0Ev
FN:114,_ZN10Transition7EaseOut9QuadraticIfEC2Ev
FN:116,_ZN10Transition7EaseOut9QuadraticIfE4initERKfS4_S4_S4_
FN:122,_ZN10Transition7EaseOut9QuadraticIfEclERKf
FN:130,_ZN10Transition7EaseOut5CubicIfEC2Ev
FN:130,_ZN10Transition7EaseOut5CubicIfED2Ev
FN:130,_ZN10Transition7EaseOut5CubicIfED0Ev
FN:132,_ZN10Transition7EaseOut5CubicIfE4initERKfS4_S4_S4_
FN:138,_ZN10Transition7EaseOut5CubicIfEclERKf
FN:146,_ZN10Transition7EaseOut7QuarticIfEC2Ev
FN:146,_ZN10Transition7EaseOut7QuarticIfED2Ev
FN:146,_ZN10Transition7EaseOut7QuarticIfED0Ev
FN:148,_ZN10Transition7EaseOut7QuarticIfE4initERKfS4_S4_S4_
FN:154,_ZN10Transition7EaseOut7QuarticIfEclERKf
FN:162,_ZN10Transition7EaseOut7QuinticIfED0Ev
FN:162,_ZN10Transition7EaseOut7QuinticIfED2Ev
FN:162,_ZN10Transition7EaseOut7QuinticIfEC2Ev
FN:164,_ZN10Transition7EaseOut7QuinticIfE4initERKfS4_S4_S4_
FN:170,_ZN10Transition7EaseOut7QuinticIfEclERKf
FN:186,_ZN10Transition9EaseInOut9QuadraticIfED0Ev
FN:186,_ZN10Transition9EaseInOut9QuadraticIfED2Ev
FN:186,_ZN10Transition9EaseInOut9QuadraticIfEC2Ev
FN:188,_ZN10Transition9EaseInOut9QuadraticIfE4initERKfS4_S4_S4_
FN:195,_ZN10Transition9EaseInOut9QuadraticIfEclERKf
FN:204,_ZN10Transition9EaseInOut5CubicIfED2Ev
FN:204,_ZN10Transition9EaseInOut5CubicIfED0Ev
FN:204,_ZN10Transition9EaseInOut5CubicIfEC2Ev
FN:206,_ZN10Transition9EaseInOut5CubicIfE4initERKfS4_S4_S4_
FN:213,_ZN10Transition9EaseInOut5CubicIfEclERKf
FN:222,_ZN10Transition9EaseInOut7QuarticIfED2Ev
FN:222,_ZN10Transition9EaseInOut7QuarticIfED0Ev
FN:222,_ZN10Transition9EaseInOut7QuarticIfEC2Ev
FN:224,_ZN10Transition9EaseInOut7QuarticIfE4initERKfS4_S4_S4_
FN:231,_ZN10Transition9EaseInOut7QuarticIfEclERKf
FN:240,_ZN10Transition9EaseInOut7QuinticIfEC2Ev
FN:240,_ZN10Transition9EaseInOut7QuinticIfED2Ev
FN:240,_ZN10Transition9EaseInOut7QuinticIfED0Ev
FN:242,_ZN10Transition9EaseInOut7QuinticIfE4initERKfS4_S4_S4_
FN:249,_ZN10Transition9EaseInOut7QuinticIfEclERKf
FNDA:0,_ZN10Transition6LinearIfED0Ev
FNDA:0,_ZN10Transition6LinearIfED2Ev
FNDA:0,_ZN10Transition6LinearIfEC2Ev
FNDA:0,_ZN10Transition6LinearIfE4initERKfS3_S3_S3_
FNDA:0,_ZN10Transition6LinearIfEclERKf
FNDA:0,_ZN10Transition6EaseIn9QuadraticIfED0Ev
FNDA:0,_ZN10Transition6EaseIn9QuadraticIfED2Ev
FNDA:0,_ZN10Transition6EaseIn9QuadraticIfEC2Ev
FNDA:0,_ZN10Transition6EaseIn9QuadraticIfE4initERKfS4_S4_S4_
FNDA:0,_ZN10Transition6EaseIn9QuadraticIfEclERKf
FNDA:0,_ZN10Transition6EaseIn5CubicIfED0Ev
FNDA:0,_ZN10Transition6EaseIn5CubicIfED2Ev
FNDA:0,_ZN10Transition6EaseIn5CubicIfEC2Ev
FNDA:0,_ZN10Transition6EaseIn5CubicIfE4initERKfS4_S4_S4_
FNDA:0,_ZN10Transition6EaseIn5CubicIfEclERKf
FNDA:0,_ZN10Transition6EaseIn7QuarticIfED0Ev
FNDA:0,_ZN10Transition6EaseIn7QuarticIfED2Ev
FNDA:0,_ZN10Transition6EaseIn7QuarticIfEC2Ev
FNDA:0,_ZN10Transition6EaseIn7QuarticIfE4initERKfS4_S4_S4_
FNDA:0,_ZN10Transition6EaseIn7QuarticIfEclERKf
FNDA:0,_ZN10Transition6EaseIn7QuinticIfED0Ev
FNDA:0,_ZN10Transition6EaseIn7QuinticIfED2Ev
FNDA:0,_ZN10Transition6EaseIn7QuinticIfEC2Ev
FNDA:0,_ZN10Transition6EaseIn7QuinticIfE4initERKfS4_S4_S4_
FNDA:0,_ZN10Transition6EaseIn7QuinticIfEclERKf
FNDA:0,_ZN10Transition7EaseOut9QuadraticIfED0Ev
FNDA:0,_ZN10Transition7EaseOut9QuadraticIfED2Ev
FNDA:0,_ZN10Transition7EaseOut9QuadraticIfEC2Ev
FNDA:0,_ZN10Transition7EaseOut9QuadraticIfE4initERKfS4_S4_S4_
FNDA:0,_ZN10Transition7EaseOut9QuadraticIfEclERKf
FNDA:0,_ZN10Transition7EaseOut5CubicIfED0Ev
FNDA:0,_ZN10Transition7EaseOut5CubicIfED2Ev
FNDA:0,_ZN10Transition7EaseOut5CubicIfEC2Ev
FNDA:0,_ZN10Transition7EaseOut5CubicIfE4initERKfS4_S4_S4_
FNDA:0,_ZN10Transition7EaseOut5CubicIfEclERKf
FNDA:0,_ZN10Transition7EaseOut7QuarticIfED0Ev
FNDA:0,_ZN10Transition7EaseOut7QuarticIfED2Ev
FNDA:0,_ZN10Transition7EaseOut7QuarticIfEC2Ev
FNDA:0,_ZN10Transition7EaseOut7QuarticIfE4initERKfS4_S4_S4_
FNDA:0,_ZN10Transition7EaseOut7QuarticIfEclERKf
FNDA:0,_ZN10Transition7EaseOut7QuinticIfED0Ev
FNDA:0,_ZN10Transition7EaseOut7QuinticIfED2Ev
FNDA:0,_ZN10Transition7EaseOut7QuinticIfEC2Ev
FNDA:0,_ZN10Transition7EaseOut7QuinticIfE4initERKfS4_S4_S4_
FNDA:0,_ZN10Transition7EaseOut7QuinticIfEclERKf
FNDA:0,_ZN10Transition9EaseInOut9QuadraticIfED0Ev
FNDA:0,_ZN10Transition9EaseInOut9QuadraticIfED2Ev
FNDA:0,_ZN10Transition9EaseInOut9QuadraticIfEC2Ev
FNDA:0,_ZN10Transition9EaseInOut9QuadraticIfE4initERKfS4_S4_S4_
FNDA:0,_ZN10Transition9EaseInOut9QuadraticIfEclERKf
FNDA:0,_ZN10Transition9EaseInOut5CubicIfED0Ev
FNDA:0,_ZN10Transition9EaseInOut5CubicIfED2Ev
FNDA:0,_ZN10Transition9EaseInOut5CubicIfEC2Ev
FNDA:0,_ZN10Transition9EaseInOut5CubicIfE4initERKfS4_S4_S4_
FNDA:0,_ZN10Transition9EaseInOut5CubicIfEclERKf
FNDA:0,_ZN10Transition9EaseInOut7QuarticIfED0Ev
FNDA:0,_ZN10Transition9EaseInOut7QuarticIfED2Ev
FNDA:0,_ZN10Transition9EaseInOut7QuarticIfEC2Ev
FNDA:0,_ZN10Transition9EaseInOut7QuarticIfE4initERKfS4_S4_S4_
FNDA:0,_ZN10Transition9EaseInOut7QuarticIfEclERKf
FNDA:0,_ZN10Transition9EaseInOut7QuinticIfED0Ev
FNDA:0,_ZN10Transition9EaseInOut7QuinticIfED2Ev
FNDA:0,_ZN10Transition9EaseInOut7QuinticIfEC2Ev
FNDA:0,_ZN10Transition9EaseInOut7QuinticIfE4initERKfS4_S4_S4_
FNDA:0,_ZN10Transition9EaseInOut7QuinticIfEclERKf
FNF:65
FNH:0
DA:19,0
DA:21,0
DA:22,0
DA:23,0
DA:24,0
DA:25,0
DA:27,0
DA:28,0
DA:42,0
DA:44,0
DA:45,0
DA:46,0
DA:47,0
DA:48,0
DA:50,0
DA:51,0
DA:58,0
DA:60,0
DA:61,0
DA:62,0
DA:63,0
DA:64,0
DA:66,0
DA:67,0
DA:74,0
DA:76,0
DA:77,0
DA:78,0
DA:79,0
DA:80,0
DA:82,0
DA:83,0
DA:89,0
DA:91,0
DA:92,0
DA:93,0
DA:94,0
DA:95,0
DA:97,0
DA:98,0
DA:114,0
DA:116,0
DA:117,0
DA:118,0
DA:119,0
DA:120,0
DA:122,0
DA:123,0
DA:130,0
DA:132,0
DA:133,0
DA:134,0
DA:135,0
DA:136,0
DA:138,0
DA:139,0
DA:146,0
DA:148,0
DA:149,0
DA:150,0
DA:151,0
DA:152,0
DA:154,0
DA:155,0
DA:162,0
DA:164,0
DA:165,0
DA:166,0
DA:167,0
DA:168,0
DA:170,0
DA:171,0
DA:186,0
DA:188,0
DA:189,0
DA:190,0
DA:191,0
DA:192,0
DA:193,0
DA:195,0
DA:196,0
DA:197,0
DA:204,0
DA:206,0
DA:207,0
DA:208,0
DA:209,0
DA:210,0
DA:211,0
DA:213,0
DA:214,0
DA:215,0
DA:222,0
DA:224,0
DA:225,0
DA:226,0
DA:227,0
DA:228,0
DA:229,0
DA:231,0
DA:232,0
DA:233,0
DA:240,0
DA:242,0
DA:243,0
DA:244,0
DA:245,0
DA:246,0
DA:247,0
DA:249,0
DA:250,0
DA:251,0
LF:112
LH:0
end_of_record
SF:/SharedWithWindows/Projects/diginstrument/inc/Transitioner.h
FN:20,_ZN12TransitionerIfN10Transition7EaseOut7QuarticEED0Ev
FN:20,_ZN12TransitionerIfN10Transition7EaseOut5CubicEED0Ev
FN:20,_ZN12TransitionerIfN10Transition6EaseIn9QuadraticEED0Ev
FN:20,_ZN12TransitionerIfN10Transition7EaseOut5CubicEED2Ev
FN:20,_ZN12TransitionerIfN10Transition9EaseInOut7QuinticEED2Ev
FN:20,_ZN12TransitionerIfN10Transition9EaseInOut9QuadraticEED0Ev
FN:20,_ZN12TransitionerIfN10Transition7EaseOut9QuadraticEED0Ev
FN:20,_ZN12TransitionerIfN10Transition6LinearEED0Ev
FN:20,_ZN12TransitionerIfN10Transition6EaseIn7QuarticEED2Ev
FN:20,_ZN12TransitionerIfN10Transition7EaseOut7QuarticEED2Ev
FN:20,_ZN12TransitionerIfN10Transition9EaseInOut7QuarticEED0Ev
FN:20,_ZN12TransitionerIfN10Transition9EaseInOut9QuadraticEED2Ev
FN:20,_ZN12TransitionerIfN10Transition6EaseIn7QuinticEED0Ev
FN:20,_ZN12TransitionerIfN10Transition9EaseInOut7QuinticEED0Ev
FN:20,_ZN12TransitionerIfN10Transition9EaseInOut7QuarticEED2Ev
FN:20,_ZN12TransitionerIfN10Transition9EaseInOut5CubicEED0Ev
FN:20,_ZN12TransitionerIfN10Transition6EaseIn5CubicEED2Ev
FN:20,_ZN12TransitionerIfN10Transition6LinearEED2Ev
FN:20,_ZN12TransitionerIfN10Transition6EaseIn9QuadraticEED2Ev
FN:20,_ZN12TransitionerIfN10Transition6EaseIn5CubicEED0Ev
FN:20,_ZN12TransitionerIfN10Transition7EaseOut7QuinticEED0Ev
FN:20,_ZN12TransitionerIfN10Transition6EaseIn7QuarticEED0Ev
FN:20,_ZN12TransitionerIfN10Transition9EaseInOut5CubicEED2Ev
FN:20,_ZN12TransitionerIfN10Transition6EaseIn7QuinticEED2Ev
FN:20,_ZN12TransitionerIfN10Transition7EaseOut7QuinticEED2Ev
FN:20,_ZN12TransitionerIfN10Transition7EaseOut9QuadraticEED2Ev
FN:30,_ZN12TransitionerIfN10Transition6EaseIn9QuadraticEE4initERKfS5_S5_
FN:30,_ZN12TransitionerIfN10Transition9EaseInOut9QuadraticEE4initERKfS5_S5_
FN:30,_ZN12TransitionerIfN10Transition9EaseInOut5CubicEE4initERKfS5_S5_
FN:30,_ZN12TransitionerIfN10Transition6EaseIn7QuinticEE4initERKfS5_S5_
FN:30,_ZN12TransitionerIfN10Transition7EaseOut7QuinticEE4initERKfS5_S5_
FN:30,_ZN12TransitionerIfN10Transition9EaseInOut7QuarticEE4initERKfS5_S5_
FN:30,_ZN12TransitionerIfN10Transition6LinearEE4initERKfS4_S4_
FN:30,_ZN12TransitionerIfN10Transition6EaseIn5CubicEE4initERKfS5_S5_
FN:30,_ZN12TransitionerIfN10Transition7EaseOut5CubicEE4initERKfS5_S5_
FN:30,_ZN12TransitionerIfN10Transition9EaseInOut7QuinticEE4initERKfS5_S5_
FN:30,_ZN12TransitionerIfN10Transition7EaseOut7QuarticEE4initERKfS5_S5_
FN:30,_ZN12TransitionerIfN10Transition6EaseIn7QuarticEE4initERKfS5_S5_
FN:30,_ZN12TransitionerIfN10Transition7EaseOut9QuadraticEE4initERKfS5_S5_
FN:38,_ZN12TransitionerIfN10Transition9EaseInOut9QuadraticEE4stepERKf
FN:38,_ZN12TransitionerIfN10Transition6LinearEE4stepERKf
FN:38,_ZN12TransitionerIfN10Transition7EaseOut5CubicEE4stepERKf
FN:38,_ZN12TransitionerIfN10Transition6EaseIn7QuinticEE4stepERKf
FN:38,_ZN12TransitionerIfN10Transition9EaseInOut5CubicEE4stepERKf
FN:38,_ZN12TransitionerIfN10Transition9EaseInOut7QuarticEE4stepERKf
FN:38,_ZN12TransitionerIfN10Transition7EaseOut7QuinticEE4stepERKf
FN:38,_ZN12TransitionerIfN10Transition6EaseIn9QuadraticEE4stepERKf
FN:38,_ZN12TransitionerIfN10Transition9EaseInOut7QuinticEE4stepERKf
FN:38,_ZN12TransitionerIfN10Transition6EaseIn5CubicEE4stepERKf
FN:38,_ZN12TransitionerIfN10Transition6EaseIn7QuarticEE4stepERKf
FN:38,_ZN12TransitionerIfN10Transition7EaseOut9QuadraticEE4stepERKf
FN:38,_ZN12TransitionerIfN10Transition7EaseOut7QuarticEE4stepERKf
FN:58,_ZN12TransitionerIfN10Transition6LinearEEC2ERf
FN:58,_ZN12TransitionerIfN10Transition9EaseInOut7QuinticEEC2ERf
FN:58,_ZN12TransitionerIfN10Transition6EaseIn9QuadraticEEC2ERf
FN:58,_ZN12TransitionerIfN10Transition9EaseInOut7QuarticEEC2ERf
FN:58,_ZN12TransitionerIfN10Transition9EaseInOut9QuadraticEEC2ERf
FN:58,_ZN12TransitionerIfN10Transition9EaseInOut5CubicEEC2ERf
FN:58,_ZN12TransitionerIfN10Transition7EaseOut5CubicEEC2ERf
FN:58,_ZN12TransitionerIfN10Transition7EaseOut9QuadraticEEC2ERf
FN:58,_ZN12TransitionerIfN10Transition7EaseOut7QuarticEEC2ERf
FN:58,_ZN12TransitionerIfN10Transition6EaseIn7QuinticEEC2ERf
FN:58,_ZN12TransitionerIfN10Transition7EaseOut7QuinticEEC2ERf
FN:58,_ZN12TransitionerIfN10Transition6EaseIn7QuarticEEC2ERf
FN:58,_ZN12TransitionerIfN10Transition6EaseIn5CubicEEC2ERf
FNDA:0,_ZN12TransitionerIfN10Transition7EaseOut7QuinticEED0Ev
FNDA:0,_ZN12TransitionerIfN10Transition7EaseOut7QuinticEED2Ev
FNDA:0,_ZN12TransitionerIfN10Transition6EaseIn7QuinticEED0Ev
FNDA:0,_ZN12TransitionerIfN10Transition6EaseIn7QuinticEED2Ev
FNDA:0,_ZN12TransitionerIfN10Transition9EaseInOut7QuinticEED0Ev
FNDA:0,_ZN12TransitionerIfN10Transition9EaseInOut7QuinticEED2Ev
FNDA:0,_ZN12TransitionerIfN10Transition7EaseOut7QuarticEED0Ev
FNDA:0,_ZN12TransitionerIfN10Transition7EaseOut7QuarticEED2Ev
FNDA:0,_ZN12TransitionerIfN10Transition6EaseIn7QuarticEED0Ev
FNDA:0,_ZN12TransitionerIfN10Transition6EaseIn7QuarticEED2Ev
FNDA:0,_ZN12TransitionerIfN10Transition9EaseInOut7QuarticEED0Ev
FNDA:0,_ZN12TransitionerIfN10Transition9EaseInOut7QuarticEED2Ev
FNDA:0,_ZN12TransitionerIfN10Transition7EaseOut5CubicEED0Ev
FNDA:0,_ZN12TransitionerIfN10Transition7EaseOut5CubicEED2Ev
FNDA:0,_ZN12TransitionerIfN10Transition6EaseIn5CubicEED0Ev
FNDA:0,_ZN12TransitionerIfN10Transition6EaseIn5CubicEED2Ev
FNDA:0,_ZN12TransitionerIfN10Transition9EaseInOut5CubicEED0Ev
FNDA:0,_ZN12TransitionerIfN10Transition9EaseInOut5CubicEED2Ev
FNDA:0,_ZN12TransitionerIfN10Transition7EaseOut9QuadraticEED0Ev
FNDA:0,_ZN12TransitionerIfN10Transition7EaseOut9QuadraticEED2Ev
FNDA:0,_ZN12TransitionerIfN10Transition6EaseIn9QuadraticEED0Ev
FNDA:0,_ZN12TransitionerIfN10Transition6EaseIn9QuadraticEED2Ev
FNDA:0,_ZN12TransitionerIfN10Transition9EaseInOut9QuadraticEED0Ev
FNDA:0,_ZN12TransitionerIfN10Transition9EaseInOut9QuadraticEED2Ev
FNDA:0,_ZN12TransitionerIfN10Transition6LinearEED0Ev
FNDA:0,_ZN12TransitionerIfN10Transition6LinearEED2Ev
FNDA:0,_ZN12TransitionerIfN10Transition6LinearEE4initERKfS4_S4_
FNDA:0,_ZN12TransitionerIfN10Transition9EaseInOut9QuadraticEE4initERKfS5_S5_
FNDA:0,_ZN12TransitionerIfN10Transition6EaseIn9QuadraticEE4initERKfS5_S5_
FNDA:0,_ZN12TransitionerIfN10Transition7EaseOut9QuadraticEE4initERKfS5_S5_
FNDA:0,_ZN12TransitionerIfN10Transition9EaseInOut5CubicEE4initERKfS5_S5_
FNDA:0,_ZN12TransitionerIfN10Transition6EaseIn5CubicEE4initERKfS5_S5_
FNDA:0,_ZN12TransitionerIfN10Transition7EaseOut5CubicEE4initERKfS5_S5_
FNDA:0,_ZN12TransitionerIfN10Transition9EaseInOut7QuarticEE4initERKfS5_S5_
FNDA:0,_ZN12TransitionerIfN10Transition6EaseIn7QuarticEE4initERKfS5_S5_
FNDA:0,_ZN12TransitionerIfN10Transition7EaseOut7QuarticEE4initERKfS5_S5_
FNDA:0,_ZN12TransitionerIfN10Transition9EaseInOut7QuinticEE4initERKfS5_S5_
FNDA:0,_ZN12TransitionerIfN10Transition6EaseIn7QuinticEE4initERKfS5_S5_
FNDA:0,_ZN12TransitionerIfN10Transition7EaseOut7QuinticEE4initERKfS5_S5_
FNDA:0,_ZN12TransitionerIfN10Transition6LinearEE4stepERKf
FNDA:0,_ZN12TransitionerIfN10Transition9EaseInOut9QuadraticEE4stepERKf
FNDA:0,_ZN12TransitionerIfN10Transition6EaseIn9QuadraticEE4stepERKf
FNDA:0,_ZN12TransitionerIfN10Transition7EaseOut9QuadraticEE4stepERKf
FNDA:0,_ZN12TransitionerIfN10Transition9EaseInOut5CubicEE4stepERKf
FNDA:0,_ZN12TransitionerIfN10Transition6EaseIn5CubicEE4stepERKf
FNDA:0,_ZN12TransitionerIfN10Transition7EaseOut5CubicEE4stepERKf
FNDA:0,_ZN12TransitionerIfN10Transition9EaseInOut7QuarticEE4stepERKf
FNDA:0,_ZN12TransitionerIfN10Transition6EaseIn7QuarticEE4stepERKf
FNDA:0,_ZN12TransitionerIfN10Transition7EaseOut7QuarticEE4stepERKf
FNDA:0,_ZN12TransitionerIfN10Transition9EaseInOut7QuinticEE4stepERKf
FNDA:0,_ZN12TransitionerIfN10Transition6EaseIn7QuinticEE4stepERKf
FNDA:0,_ZN12TransitionerIfN10Transition7EaseOut7QuinticEE4stepERKf
FNDA:0,_ZN12TransitionerIfN10Transition7EaseOut7QuinticEEC2ERf
FNDA:0,_ZN12TransitionerIfN10Transition6EaseIn7QuinticEEC2ERf
FNDA:0,_ZN12TransitionerIfN10Transition9EaseInOut7QuinticEEC2ERf
FNDA:0,_ZN12TransitionerIfN10Transition7EaseOut7QuarticEEC2ERf
FNDA:0,_ZN12TransitionerIfN10Transition6EaseIn7QuarticEEC2ERf
FNDA:0,_ZN12TransitionerIfN10Transition9EaseInOut7QuarticEEC2ERf
FNDA:0,_ZN12TransitionerIfN10Transition7EaseOut5CubicEEC2ERf
FNDA:0,_ZN12TransitionerIfN10Transition6EaseIn5CubicEEC2ERf
FNDA:0,_ZN12TransitionerIfN10Transition9EaseInOut5CubicEEC2ERf
FNDA:0,_ZN12TransitionerIfN10Transition7EaseOut9QuadraticEEC2ERf
FNDA:0,_ZN12TransitionerIfN10Transition6EaseIn9QuadraticEEC2ERf
FNDA:0,_ZN12TransitionerIfN10Transition9EaseInOut9QuadraticEEC2ERf
FNDA:0,_ZN12TransitionerIfN10Transition6LinearEEC2ERf
FNF:65
FNH:0
BRDA:40,0,0,-
BRDA:40,0,1,-
BRDA:40,1,2,-
BRDA:40,1,3,-
BRDA:40,2,4,-
BRDA:40,2,5,-
BRDA:40,3,6,-
BRDA:40,3,7,-
BRDA:40,4,8,-
BRDA:40,4,9,-
BRDA:40,5,10,-
BRDA:40,5,11,-
BRDA:40,6,12,-
BRDA:40,6,13,-
BRDA:40,7,14,-
BRDA:40,7,15,-
BRDA:40,8,16,-
BRDA:40,8,17,-
BRDA:40,9,18,-
BRDA:40,9,19,-
BRDA:40,10,20,-
BRDA:40,10,21,-
BRDA:40,11,22,-
BRDA:40,11,23,-
BRDA:40,12,24,-
BRDA:40,12,25,-
BRDA:44,0,0,-
BRDA:44,0,1,-
BRDA:44,1,2,-
BRDA:44,1,3,-
BRDA:44,2,4,-
BRDA:44,2,5,-
BRDA:44,3,6,-
BRDA:44,3,7,-
BRDA:44,4,8,-
BRDA:44,4,9,-
BRDA:44,5,10,-
BRDA:44,5,11,-
BRDA:44,6,12,-
BRDA:44,6,13,-
BRDA:44,7,14,-
BRDA:44,7,15,-
BRDA:44,8,16,-
BRDA:44,8,17,-
BRDA:44,9,18,-
BRDA:44,9,19,-
BRDA:44,10,20,-
BRDA:44,10,21,-
BRDA:44,11,22,-
BRDA:44,11,23,-
BRDA:44,12,24,-
BRDA:44,12,25,-
BRDA:58,1,2,-
BRDA:58,1,3,-
BRDA:58,5,7,-
BRDA:58,5,8,-
BRDA:58,9,12,-
BRDA:58,9,13,-
BRDA:58,13,17,-
BRDA:58,13,18,-
BRDA:58,17,22,-
BRDA:58,17,23,-
BRDA:58,21,27,-
BRDA:58,21,28,-
BRDA:58,25,32,-
BRDA:58,25,33,-
BRDA:58,29,37,-
BRDA:58,29,38,-
BRDA:58,33,42,-
BRDA:58,33,43,-
BRDA:58,37,47,-
BRDA:58,37,48,-
BRDA:58,41,52,-
BRDA:58,41,53,-
BRDA:58,45,57,-
BRDA:58,45,58,-
BRDA:58,49,62,-
BRDA:58,49,63,-
BRF:78
BRH:0
DA:20,0
DA:30,0
DA:31,0
DA:32,0
DA:33,0
DA:34,0
DA:35,0
DA:36,0
DA:38,0
DA:39,0
DA:40,0
DA:41,0
DA:42,0
DA:44,0
DA:45,0
DA:46,0
DA:48,0
DA:58,0
LF:18
LH:0
end_of_record
SF:/SharedWithWindows/Projects/diginstrument/inc/iSource.h
FN:15,_ZN8DataFlow7iSourceIfEC2Ev
FN:28,_ZN8DataFlow7iSourceIfED2Ev
FN:28,_ZN8DataFlow7iSourceIfED0Ev
FNDA:0,_ZN8DataFlow7iSourceIfEC2Ev
FNDA:0,_ZN8DataFlow7iSourceIfED0Ev
FNDA:0,_ZN8DataFlow7iSourceIfED2Ev
FNF:3
FNH:0
DA:15,0
DA:28,0
LF:2
LH:0
end_of_record
SF:/SharedWithWindows/Projects/diginstrument/inc/iTransitioner.h
FN:11,_ZN13iTransitionerIfEC2Ev
FN:33,_ZN13iTransitionerIfED2Ev
FN:33,_ZN13iTransitionerIfED0Ev
FNDA:0,_ZN13iTransitionerIfEC2Ev
FNDA:0,_ZN13iTransitionerIfED0Ev
FNDA:0,_ZN13iTransitionerIfED2Ev
FNF:3
FNH:0
DA:11,0
DA:33,0
LF:2
LH:0
end_of_record
SF:/SharedWithWindows/Projects/diginstrument/inc/iWaveformGenerator.h
FN:10,_ZN5Mixer18iWaveformGeneratorIfEC2Ev
FN:67,_ZN5Mixer18iWaveformGeneratorIfED0Ev
FN:67,_ZN5Mixer18iWaveformGeneratorIfED2Ev
FNDA:0,_ZN5Mixer18iWaveformGeneratorIfEC2Ev
FNDA:0,_ZN5Mixer18iWaveformGeneratorIfED0Ev
FNDA:0,_ZN5Mixer18iWaveformGeneratorIfED2Ev
FNF:3
FNH:0
DA:10,0
DA:67,0
LF:2
LH:0
end_of_record
SF:/SharedWithWindows/Projects/diginstrument/src/sine_generator.cpp
FN:10,_ZN5Mixer13SineGeneratorIfEC2ERKfRKjS5_
FN:25,_ZN5Mixer13SineGeneratorIfE3getERKj
FN:44,_ZNK5Mixer13SineGeneratorIfE12getFrequencyEv
FN:50,_ZN5Mixer13SineGeneratorIfE12setFrequencyERKf
FN:56,_ZN5Mixer13SineGeneratorIfE12setFrequencyERKfS3_NSt7__cxx1112basic_stringIcSt11char_traitsIcESaIcEEERKj
FNDA:622,_ZN5Mixer13SineGeneratorIfEC2ERKfRKjS5_
FNDA:629,_ZN5Mixer13SineGeneratorIfE3getERKj
FNDA:16,_ZNK5Mixer13SineGeneratorIfE12getFrequencyEv
FNDA:154,_ZN5Mixer13SineGeneratorIfE12setFrequencyERKf
FNDA:166,_ZN5Mixer13SineGeneratorIfE12setFrequencyERKfS3_NSt7__cxx1112basic_stringIcSt11char_traitsIcESaIcEEERKj
FNF:5
FNH:5
BRDA:14,4294967295,0,1
BRDA:14,4294967295,1,621
BRDA:16,1,0,4800000
BRDA:16,1,1,1
BRDA:18,0,2,4800000
BRDA:18,0,3,0
BRDA:28,0,1,8188173
BRDA:28,0,2,629
BRDA:30,1,1,16376346
BRDA:30,1,2,8188173
BRDA:32,0,2,16376346
BRDA:32,0,3,0
BRDA:35,4294967295,1,7968000
BRDA:35,4294967295,2,220173
BRDA:37,0,2,7968000
BRDA:37,0,3,0
BRDA:61,4294967295,1,166
BRDA:61,4294967295,2,0
BRDA:61,0,3,154
BRDA:61,0,4,12
BRDA:63,0,1,154
BRDA:63,0,2,0
BRDA:65,0,0,157
BRDA:65,0,1,3
BRDA:65,0,2,3
BRDA:65,0,3,3
BRDA:65,0,4,0
BRDA:68,0,1,157
BRDA:68,0,2,0
BRDA:68,1,3,1
BRDA:68,1,4,156
BRDA:70,0,1,1
BRDA:70,0,2,0
BRDA:73,0,1,156
BRDA:73,0,2,0
BRDA:73,1,3,1
BRDA:73,1,4,155
BRDA:75,0,1,1
BRDA:75,0,2,0
BRDA:78,0,1,155
BRDA:78,0,2,0
BRDA:78,1,3,1
BRDA:78,1,4,154
BRDA:80,0,1,1
BRDA:80,0,2,0
BRDA:85,0,1,157
BRDA:85,0,2,0
BRDA:85,1,3,1
BRDA:85,1,4,156
BRDA:87,0,1,1
BRDA:87,0,2,0
BRDA:90,0,1,156
BRDA:90,0,2,0
BRDA:90,1,3,1
BRDA:90,1,4,155
BRDA:92,0,1,1
BRDA:92,0,2,0
BRDA:95,0,1,155
BRDA:95,0,2,0
BRDA:95,1,3,1
BRDA:95,1,4,154
BRDA:97,0,1,1
BRDA:97,0,2,0
BRDA:102,0,1,157
BRDA:102,0,2,0
BRDA:102,1,3,1
BRDA:102,1,4,156
BRDA:104,0,1,1
BRDA:104,0,2,0
BRDA:107,0,1,156
BRDA:107,0,2,0
BRDA:107,1,3,1
BRDA:107,1,4,155
BRDA:109,0,1,1
BRDA:109,0,2,0
BRDA:112,0,1,155
BRDA:112,0,2,0
BRDA:112,1,3,1
BRDA:112,1,4,154
BRDA:114,0,1,1
BRDA:114,0,2,0
BRDA:119,0,1,157
BRDA:119,0,2,0
BRDA:119,1,3,1
BRDA:119,1,4,156
BRDA:121,0,1,1
BRDA:121,0,2,0
BRDA:124,0,1,156
BRDA:124,0,2,0
BRDA:124,1,3,1
BRDA:124,1,4,155
BRDA:126,0,1,1
BRDA:126,0,2,0
BRDA:129,0,1,155
BRDA:129,0,2,0
BRDA:129,1,3,1
BRDA:129,1,4,154
BRDA:131,0,1,1
BRDA:131,0,2,0
BRDA:135,0,1,154
BRDA:135,0,2,0
BRDA:138,0,2,166
BRDA:138,0,3,0
BRF:103
BRH:71
DA:10,1244
DA:12,622
DA:13,622
DA:14,622
DA:16,4800001
DA:18,4800000
DA:20,1
DA:22,622
DA:25,629
DA:27,1258
DA:28,8188802
DA:30,24564519
DA:32,16376346
DA:34,8188173
DA:35,8188173
DA:37,7968000
DA:40,1258
DA:44,16
DA:46,16
DA:50,154
DA:52,154
DA:53,154
DA:56,166
DA:58,166
DA:59,166
DA:61,166
DA:63,154
DA:65,166
DA:68,157
DA:70,1
DA:71,1
DA:73,156
DA:75,1
DA:76,1
DA:78,155
DA:80,1
DA:81,1
DA:85,157
DA:87,1
DA:88,1
DA:90,156
DA:92,1
DA:93,1
DA:95,155
DA:97,1
DA:98,1
DA:102,157
DA:104,1
DA:105,1
DA:107,156
DA:109,1
DA:110,1
DA:112,155
DA:114,1
DA:115,1
DA:119,157
DA:121,1
DA:122,1
DA:124,156
DA:126,1
DA:127,1
DA:129,155
DA:131,1
DA:132,1
DA:135,154
DA:138,166
DA:139,166
LF:67
LH:67
end_of_record
TN:
SF:/SharedWithWindows/Projects/diginstrument/inc/Applicator.h
FN:23,_ZN8DataFlow10ApplicatorIf13VolumeControlEC2Ev
FN:23,_ZN8DataFlow10ApplicatorIf13VolumeControlED2Ev
FN:23,_ZN8DataFlow10ApplicatorIf13VolumeControlED0Ev
FN:29,_ZN8DataFlow10ApplicatorIf13VolumeControlE3getERKj
FN:41,_ZN8DataFlow10ApplicatorIf13VolumeControlE9getMethodEv
FN:51,_ZN8DataFlow10ApplicatorIf13VolumeControlE6attachERNS_7iSourceIfEE
FNDA:0,_ZN8DataFlow10ApplicatorIf13VolumeControlED0Ev
FNDA:0,_ZN8DataFlow10ApplicatorIf13VolumeControlED2Ev
FNDA:0,_ZN8DataFlow10ApplicatorIf13VolumeControlEC2Ev
FNDA:0,_ZN8DataFlow10ApplicatorIf13VolumeControlE3getERKj
FNDA:0,_ZN8DataFlow10ApplicatorIf13VolumeControlE9getMethodEv
FNDA:0,_ZN8DataFlow10ApplicatorIf13VolumeControlE6attachERNS_7iSourceIfEE
FNF:6
FNH:0
BRDA:31,0,1,-
BRDA:31,0,2,-
BRDA:32,4294967295,1,-
BRDA:32,4294967295,2,-
BRF:4
BRH:0
DA:23,0
DA:29,0
DA:31,0
DA:32,0
DA:33,0
DA:41,0
DA:42,0
DA:51,0
DA:53,0
DA:54,0
LF:10
LH:0
end_of_record
SF:/SharedWithWindows/Projects/diginstrument/inc/AudioSource.h
FN:33,_ZN5Mixer11AudioSourceC2ERKjS2_
FNDA:0,_ZN5Mixer11AudioSourceC2ERKjS2_
FNF:1
FNH:0
DA:33,0
LF:1
LH:0
end_of_record
SF:/SharedWithWindows/Projects/diginstrument/inc/ConsolidationMethods.h
FN:19,_ZN13Consolidation12AccumulationIfED2Ev
FN:19,_ZN13Consolidation12AccumulationIfEC2Ev
FN:19,_ZN13Consolidation12AccumulationIfED0Ev
FNDA:0,_ZN13Consolidation12AccumulationIfED0Ev
FNDA:0,_ZN13Consolidation12AccumulationIfED2Ev
FNDA:0,_ZN13Consolidation12AccumulationIfEC2Ev
FNF:3
FNH:0
DA:19,0
LF:1
LH:0
end_of_record
SF:/SharedWithWindows/Projects/diginstrument/inc/Consolidator.h
FN:20,_ZN8DataFlow12ConsolidatorIfN13Consolidation12AccumulationEED0Ev
FN:20,_ZN8DataFlow12ConsolidatorIfN13Consolidation12AccumulationEED2Ev
FN:20,_ZN8DataFlow12ConsolidatorIfN13Consolidation12AccumulationEEC2Ev
FN:31,_ZN8DataFlow12ConsolidatorIfN13Consolidation12AccumulationEE6attachERNS_7iSourceIfEE
FN:60,_ZN8DataFlow12ConsolidatorIfN13Consolidation12AccumulationEE3getERKj
FNDA:0,_ZN8DataFlow12ConsolidatorIfN13Consolidation12AccumulationEED0Ev
FNDA:0,_ZN8DataFlow12ConsolidatorIfN13Consolidation12AccumulationEED2Ev
FNDA:0,_ZN8DataFlow12ConsolidatorIfN13Consolidation12AccumulationEEC2Ev
FNDA:0,_ZN8DataFlow12ConsolidatorIfN13Consolidation12AccumulationEE6attachERNS_7iSourceIfEE
FNDA:0,_ZN8DataFlow12ConsolidatorIfN13Consolidation12AccumulationEE3getERKj
FNF:5
FNH:0
BRDA:32,0,2,-
BRDA:32,0,3,-
BRDA:61,0,4,-
BRDA:61,0,5,-
BRDA:62,0,1,-
BRDA:62,0,2,-
BRDA:63,0,4,-
BRDA:63,0,5,-
BRF:8
BRH:0
DA:20,0
DA:31,0
DA:32,0
DA:33,0
DA:60,0
DA:61,0
DA:62,0
DA:63,0
DA:65,0
LF:9
LH:0
end_of_record
SF:/SharedWithWindows/Projects/diginstrument/inc/SquareGenerator.h
FN:29,_ZN5Mixer15SquareGeneratorIfED2Ev
FN:29,_ZN5Mixer15SquareGeneratorIfED0Ev
FNDA:0,_ZN5Mixer15SquareGeneratorIfED0Ev
FNDA:0,_ZN5Mixer15SquareGeneratorIfED2Ev
FNF:2
FNH:0
DA:29,0
LF:1
LH:0
end_of_record
SF:/SharedWithWindows/Projects/diginstrument/inc/VolumeControl.h
FN:15,_ZN13VolumeControlIfED2Ev
FN:22,_ZN13VolumeControlIfE14stepTransitionERKi
FN:44,_ZN13VolumeControlIfE9setVolumeERKf
FN:55,_ZN13VolumeControlIfEclERSt6vectorIfSaIfEE
FN:183,_ZN13VolumeControlIfEC2Ev
FNDA:0,_ZN13VolumeControlIfED2Ev
FNDA:0,_ZN13VolumeControlIfE14stepTransitionERKi
FNDA:0,_ZN13VolumeControlIfE9setVolumeERKf
FNDA:0,_ZN13VolumeControlIfEclERSt6vectorIfSaIfEE
FNDA:0,_ZN13VolumeControlIfEC2Ev
FNF:5
FNH:0
BRDA:23,0,1,-
BRDA:23,0,2,-
BRDA:24,0,2,-
BRDA:24,0,3,-
BRDA:57,1,5,-
BRDA:57,1,6,-
BRDA:60,4294967295,1,-
BRDA:60,4294967295,2,-
BRF:8
BRH:0
DA:15,0
DA:22,0
DA:23,0
DA:24,0
DA:26,0
DA:44,0
DA:46,0
DA:47,0
DA:55,0
DA:57,0
DA:59,0
DA:60,0
DA:62,0
DA:183,0
LF:14
LH:0
end_of_record
SF:/SharedWithWindows/Projects/diginstrument/inc/iConsolidationMethod.h
FN:13,_ZN8DataFlow20iConsolidationMethodIfEC2Ev
FN:41,_ZN8DataFlow20iConsolidationMethodIfED2Ev
FN:41,_ZN8DataFlow20iConsolidationMethodIfED0Ev
FNDA:0,_ZN8DataFlow20iConsolidationMethodIfEC2Ev
FNDA:0,_ZN8DataFlow20iConsolidationMethodIfED0Ev
FNDA:0,_ZN8DataFlow20iConsolidationMethodIfED2Ev
FNF:3
FNH:0
DA:13,0
DA:41,0
LF:2
LH:0
end_of_record
SF:/SharedWithWindows/Projects/diginstrument/inc/iSource.h
FN:15,_ZN8DataFlow7iSourceIfEC2Ev
FN:28,_ZN8DataFlow7iSourceIfED0Ev
FN:28,_ZN8DataFlow7iSourceIfED2Ev
FNDA:0,_ZN8DataFlow7iSourceIfEC2Ev
FNDA:0,_ZN8DataFlow7iSourceIfED0Ev
FNDA:0,_ZN8DataFlow7iSourceIfED2Ev
FNF:3
FNH:0
DA:15,0
DA:28,0
LF:2
LH:0
end_of_record
SF:/SharedWithWindows/Projects/diginstrument/inc/iWaveformGenerator.h
FN:10,_ZN5Mixer18iWaveformGeneratorIfEC2Ev
FN:67,_ZN5Mixer18iWaveformGeneratorIfED2Ev
FN:67,_ZN5Mixer18iWaveformGeneratorIfED0Ev
FNDA:0,_ZN5Mixer18iWaveformGeneratorIfEC2Ev
FNDA:0,_ZN5Mixer18iWaveformGeneratorIfED0Ev
FNDA:0,_ZN5Mixer18iWaveformGeneratorIfED2Ev
FNF:3
FNH:0
DA:10,0
DA:67,0
LF:2
LH:0
end_of_record
SF:/SharedWithWindows/Projects/diginstrument/src/square_generator.cpp
FN:4,_ZN5Mixer15SquareGeneratorIfEC2ERKfRKjS5_S5_
FN:18,_ZN5Mixer15SquareGeneratorIfE3getERKj
FN:24,_ZNK5Mixer15SquareGeneratorIfE12getFrequencyEv
FN:30,_ZN5Mixer15SquareGeneratorIfE12setFrequencyERKf
FN:41,_ZN5Mixer15SquareGeneratorIfE12setFrequencyERKfS3_NSt7__cxx1112basic_stringIcSt11char_traitsIcESaIcEEERKj
FNDA:4,_ZN5Mixer15SquareGeneratorIfEC2ERKfRKjS5_S5_
FNDA:4,_ZN5Mixer15SquareGeneratorIfE3getERKj
FNDA:3,_ZNK5Mixer15SquareGeneratorIfE12getFrequencyEv
FNDA:1,_ZN5Mixer15SquareGeneratorIfE12setFrequencyERKf
FNDA:1,_ZN5Mixer15SquareGeneratorIfE12setFrequencyERKfS3_NSt7__cxx1112basic_stringIcSt11char_traitsIcESaIcEEERKj
FNF:5
FNH:5
BRDA:6,4294967295,1,4
BRDA:6,4294967295,2,0
BRDA:7,0,1,4
BRDA:7,0,2,0
BRDA:8,1,0,204
BRDA:8,1,1,4
BRDA:9,0,1,204
BRDA:9,0,2,0
BRDA:9,1,4,204
BRDA:9,1,5,0
BRDA:10,4294967295,1,204
BRDA:10,4294967295,2,0
BRDA:10,0,4,204
BRDA:10,0,5,0
BRDA:13,4294967295,3,204
BRDA:13,4294967295,4,0
BRDA:33,1,5,51
BRDA:33,1,6,1
BRDA:34,4294967295,2,51
BRDA:34,4294967295,3,0
BRDA:44,1,5,51
BRDA:44,1,6,1
BRDA:45,4294967295,2,51
BRDA:45,4294967295,3,0
BRDA:45,0,5,51
BRDA:45,0,6,0
BRF:26
BRH:16
DA:4,8
DA:6,4
DA:7,4
DA:8,208
DA:9,204
DA:10,204
DA:11,204
DA:12,204
DA:13,204
DA:15,4
DA:18,4
DA:20,4
DA:24,3
DA:26,3
DA:30,1
DA:32,1
DA:33,52
DA:34,51
DA:35,51
DA:37,1
DA:38,1
DA:41,1
DA:43,1
DA:44,52
DA:45,51
DA:46,51
DA:48,1
DA:49,1
LF:28
LH:28
end_of_record
TN:
SF:/SharedWithWindows/Projects/diginstrument/inc/Applicator.h
FN:23,_ZN8DataFlow10ApplicatorIf13VolumeControlED0Ev
FN:23,_ZN8DataFlow10ApplicatorIf13VolumeControlED2Ev
FN:23,_ZN8DataFlow10ApplicatorIf13VolumeControlEC2Ev
FN:29,_ZN8DataFlow10ApplicatorIf13VolumeControlE3getERKj
FN:41,_ZN8DataFlow10ApplicatorIf13VolumeControlE9getMethodEv
FN:51,_ZN8DataFlow10ApplicatorIf13VolumeControlE6attachERNS_7iSourceIfEE
FNDA:0,_ZN8DataFlow10ApplicatorIf13VolumeControlED0Ev
FNDA:0,_ZN8DataFlow10ApplicatorIf13VolumeControlED2Ev
FNDA:0,_ZN8DataFlow10ApplicatorIf13VolumeControlEC2Ev
FNDA:0,_ZN8DataFlow10ApplicatorIf13VolumeControlE3getERKj
FNDA:0,_ZN8DataFlow10ApplicatorIf13VolumeControlE9getMethodEv
FNDA:0,_ZN8DataFlow10ApplicatorIf13VolumeControlE6attachERNS_7iSourceIfEE
FNF:6
FNH:0
BRDA:31,0,1,-
BRDA:31,0,2,-
BRDA:32,4294967295,1,-
BRDA:32,4294967295,2,-
BRF:4
BRH:0
DA:23,0
DA:29,0
DA:31,0
DA:32,0
DA:33,0
DA:41,0
DA:42,0
DA:51,0
DA:53,0
DA:54,0
LF:10
LH:0
end_of_record
SF:/SharedWithWindows/Projects/diginstrument/inc/AudioSource.h
FN:33,_ZN5Mixer11AudioSourceC2ERKjS2_
FNDA:0,_ZN5Mixer11AudioSourceC2ERKjS2_
FNF:1
FNH:0
DA:33,0
LF:1
LH:0
end_of_record
SF:/SharedWithWindows/Projects/diginstrument/inc/ConsolidationMethods.h
FN:19,_ZN13Consolidation12AccumulationIfED2Ev
FN:19,_ZN13Consolidation12AccumulationIfEC2Ev
FN:19,_ZN13Consolidation12AccumulationIfED0Ev
FNDA:0,_ZN13Consolidation12AccumulationIfED0Ev
FNDA:0,_ZN13Consolidation12AccumulationIfED2Ev
FNDA:0,_ZN13Consolidation12AccumulationIfEC2Ev
FNF:3
FNH:0
DA:19,0
LF:1
LH:0
end_of_record
SF:/SharedWithWindows/Projects/diginstrument/inc/Consolidator.h
FN:20,_ZN8DataFlow12ConsolidatorIfN13Consolidation12AccumulationEED0Ev
FN:20,_ZN8DataFlow12ConsolidatorIfN13Consolidation12AccumulationEED2Ev
FN:20,_ZN8DataFlow12ConsolidatorIfN13Consolidation12AccumulationEEC2Ev
FN:31,_ZN8DataFlow12ConsolidatorIfN13Consolidation12AccumulationEE6attachERNS_7iSourceIfEE
FN:60,_ZN8DataFlow12ConsolidatorIfN13Consolidation12AccumulationEE3getERKj
FNDA:0,_ZN8DataFlow12ConsolidatorIfN13Consolidation12AccumulationEED0Ev
FNDA:0,_ZN8DataFlow12ConsolidatorIfN13Consolidation12AccumulationEED2Ev
FNDA:0,_ZN8DataFlow12ConsolidatorIfN13Consolidation12AccumulationEEC2Ev
FNDA:0,_ZN8DataFlow12ConsolidatorIfN13Consolidation12AccumulationEE6attachERNS_7iSourceIfEE
FNDA:0,_ZN8DataFlow12ConsolidatorIfN13Consolidation12AccumulationEE3getERKj
FNF:5
FNH:0
BRDA:32,0,2,-
BRDA:32,0,3,-
BRDA:61,0,4,-
BRDA:61,0,5,-
BRDA:62,0,1,-
BRDA:62,0,2,-
BRDA:63,0,4,-
BRDA:63,0,5,-
BRF:8
BRH:0
DA:20,0
DA:31,0
DA:32,0
DA:33,0
DA:60,0
DA:61,0
DA:62,0
DA:63,0
DA:65,0
LF:9
LH:0
end_of_record
SF:/SharedWithWindows/Projects/diginstrument/inc/TriangleGenerator.h
FN:29,_ZN5Mixer17TriangleGeneratorIfED0Ev
FN:29,_ZN5Mixer17TriangleGeneratorIfED2Ev
FNDA:0,_ZN5Mixer17TriangleGeneratorIfED0Ev
FNDA:0,_ZN5Mixer17TriangleGeneratorIfED2Ev
FNF:2
FNH:0
DA:29,0
LF:1
LH:0
end_of_record
SF:/SharedWithWindows/Projects/diginstrument/inc/VolumeControl.h
FN:15,_ZN13VolumeControlIfED2Ev
FN:22,_ZN13VolumeControlIfE14stepTransitionERKi
FN:44,_ZN13VolumeControlIfE9setVolumeERKf
FN:55,_ZN13VolumeControlIfEclERSt6vectorIfSaIfEE
FN:183,_ZN13VolumeControlIfEC2Ev
FNDA:0,_ZN13VolumeControlIfED2Ev
FNDA:0,_ZN13VolumeControlIfE14stepTransitionERKi
FNDA:0,_ZN13VolumeControlIfE9setVolumeERKf
FNDA:0,_ZN13VolumeControlIfEclERSt6vectorIfSaIfEE
FNDA:0,_ZN13VolumeControlIfEC2Ev
FNF:5
FNH:0
BRDA:23,0,1,-
BRDA:23,0,2,-
BRDA:24,0,2,-
BRDA:24,0,3,-
BRDA:57,1,5,-
BRDA:57,1,6,-
BRDA:60,4294967295,1,-
BRDA:60,4294967295,2,-
BRF:8
BRH:0
DA:15,0
DA:22,0
DA:23,0
DA:24,0
DA:26,0
DA:44,0
DA:46,0
DA:47,0
DA:55,0
DA:57,0
DA:59,0
DA:60,0
DA:62,0
DA:183,0
LF:14
LH:0
end_of_record
SF:/SharedWithWindows/Projects/diginstrument/inc/iConsolidationMethod.h
FN:13,_ZN8DataFlow20iConsolidationMethodIfEC2Ev
FN:41,_ZN8DataFlow20iConsolidationMethodIfED0Ev
FN:41,_ZN8DataFlow20iConsolidationMethodIfED2Ev
FNDA:0,_ZN8DataFlow20iConsolidationMethodIfEC2Ev
FNDA:0,_ZN8DataFlow20iConsolidationMethodIfED0Ev
FNDA:0,_ZN8DataFlow20iConsolidationMethodIfED2Ev
FNF:3
FNH:0
DA:13,0
DA:41,0
LF:2
LH:0
end_of_record
SF:/SharedWithWindows/Projects/diginstrument/inc/iSource.h
FN:15,_ZN8DataFlow7iSourceIfEC2Ev
FN:28,_ZN8DataFlow7iSourceIfED0Ev
FN:28,_ZN8DataFlow7iSourceIfED2Ev
FNDA:0,_ZN8DataFlow7iSourceIfEC2Ev
FNDA:0,_ZN8DataFlow7iSourceIfED0Ev
FNDA:0,_ZN8DataFlow7iSourceIfED2Ev
FNF:3
FNH:0
DA:15,0
DA:28,0
LF:2
LH:0
end_of_record
SF:/SharedWithWindows/Projects/diginstrument/inc/iWaveformGenerator.h
FN:10,_ZN5Mixer18iWaveformGeneratorIfEC2Ev
FN:67,_ZN5Mixer18iWaveformGeneratorIfED0Ev
FN:67,_ZN5Mixer18iWaveformGeneratorIfED2Ev
FNDA:0,_ZN5Mixer18iWaveformGeneratorIfEC2Ev
FNDA:0,_ZN5Mixer18iWaveformGeneratorIfED0Ev
FNDA:0,_ZN5Mixer18iWaveformGeneratorIfED2Ev
FNF:3
FNH:0
DA:10,0
DA:67,0
LF:2
LH:0
end_of_record
SF:/SharedWithWindows/Projects/diginstrument/src/triangle_generator.cpp
FN:4,_ZN5Mixer17TriangleGeneratorIfEC2ERKfRKjS5_S5_
FN:18,_ZN5Mixer17TriangleGeneratorIfE3getERKj
FN:24,_ZNK5Mixer17TriangleGeneratorIfE12getFrequencyEv
FN:30,_ZN5Mixer17TriangleGeneratorIfE12setFrequencyERKf
FN:41,_ZN5Mixer17TriangleGeneratorIfE12setFrequencyERKfS3_NSt7__cxx1112basic_stringIcSt11char_traitsIcESaIcEEERKj
FNDA:4,_ZN5Mixer17TriangleGeneratorIfEC2ERKfRKjS5_S5_
FNDA:4,_ZN5Mixer17TriangleGeneratorIfE3getERKj
FNDA:3,_ZNK5Mixer17TriangleGeneratorIfE12getFrequencyEv
FNDA:1,_ZN5Mixer17TriangleGeneratorIfE12setFrequencyERKf
FNDA:1,_ZN5Mixer17TriangleGeneratorIfE12setFrequencyERKfS3_NSt7__cxx1112basic_stringIcSt11char_traitsIcESaIcEEERKj
FNF:5
FNH:5
BRDA:6,4294967295,1,4
BRDA:6,4294967295,2,0
BRDA:7,0,1,4
BRDA:7,0,2,0
BRDA:8,1,0,204
BRDA:8,1,1,4
BRDA:9,0,1,204
BRDA:9,0,2,0
BRDA:9,1,4,204
BRDA:9,1,5,0
BRDA:10,4294967295,1,204
BRDA:10,4294967295,2,0
BRDA:10,0,4,204
BRDA:10,0,5,0
BRDA:13,4294967295,3,204
BRDA:13,4294967295,4,0
BRDA:33,1,5,51
BRDA:33,1,6,1
BRDA:34,4294967295,2,51
BRDA:34,4294967295,3,0
BRDA:44,1,5,51
BRDA:44,1,6,1
BRDA:45,4294967295,2,51
BRDA:45,4294967295,3,0
BRDA:45,0,5,51
BRDA:45,0,6,0
BRF:26
BRH:16
DA:4,8
DA:6,4
DA:7,4
DA:8,208
DA:9,204
DA:10,204
DA:11,204
DA:12,204
DA:13,204
DA:15,4
DA:18,4
DA:20,4
DA:24,3
DA:26,3
DA:30,1
DA:32,1
DA:33,52
DA:34,51
DA:35,51
DA:37,1
DA:38,1
DA:41,1
DA:43,1
DA:44,52
DA:45,51
DA:46,51
DA:48,1
DA:49,1
LF:28
LH:28
end_of_record
TN:
SF:/SharedWithWindows/Projects/diginstrument/src/vorbis_decoder.cpp
FN:3,_ZN13VorbisDecoderC2Ev
FN:9,_ZN13VorbisDecoder11addToHeaderER10ogg_packet
FN:14,_ZNK13VorbisDecoder11getCommentsB5cxx11Ev
FN:27,_ZNK13VorbisDecoder11getChannelsEv
FN:31,_ZNK13VorbisDecoder13getSampleRateEv
FN:35,_ZNK13VorbisDecoder9getVendorB5cxx11Ev
FN:39,_ZN13VorbisDecoder5clearEv
FN:48,_ZN13VorbisDecoder12initDecodingEv
FN:55,_ZN13VorbisDecoder6decodeER10ogg_packet
FN:76,_ZN13VorbisDecoderD2Ev
FNDA:1,_ZN13VorbisDecoderC2Ev
FNDA:3,_ZN13VorbisDecoder11addToHeaderER10ogg_packet
FNDA:1,_ZNK13VorbisDecoder11getCommentsB5cxx11Ev
FNDA:1,_ZNK13VorbisDecoder11getChannelsEv
FNDA:1,_ZNK13VorbisDecoder13getSampleRateEv
FNDA:1,_ZNK13VorbisDecoder9getVendorB5cxx11Ev
FNDA:1,_ZN13VorbisDecoder5clearEv
FNDA:1,_ZN13VorbisDecoder12initDecodingEv
FNDA:475,_ZN13VorbisDecoder6decodeER10ogg_packet
FNDA:1,_ZN13VorbisDecoderD2Ev
FNF:10
FNH:10
BRDA:18,4294967295,0,0
BRDA:18,4294967295,1,1
BRDA:19,0,0,2
BRDA:19,0,1,1
BRDA:21,0,2,2
BRDA:21,0,3,0
BRDA:21,1,5,2
BRDA:21,1,6,0
BRDA:36,0,2,1
BRDA:36,0,3,0
BRDA:40,0,0,1
BRDA:40,0,1,0
BRDA:57,4294967295,1,475
BRDA:57,4294967295,2,0
BRDA:57,0,3,0
BRDA:57,0,4,475
BRDA:58,0,1,475
BRDA:58,0,2,0
BRDA:59,0,1,475
BRDA:59,0,2,0
BRDA:59,1,4,475
BRDA:59,1,5,0
BRDA:64,0,1,949
BRDA:64,0,2,0
BRDA:64,1,3,474
BRDA:64,1,4,475
BRDA:65,1,0,480000
BRDA:65,1,1,474
BRDA:66,1,0,960000
BRDA:66,1,1,480000
BRDA:67,0,1,960000
BRDA:67,0,2,0
BRDA:70,0,1,474
BRDA:70,0,2,0
BRF:34
BRH:21
DA:3,1
DA:5,1
DA:6,1
DA:7,1
DA:9,3
DA:11,3
DA:14,1
DA:16,2
DA:17,1
DA:18,1
DA:19,3
DA:21,2
DA:22,2
DA:24,1
DA:27,1
DA:28,1
DA:31,1
DA:32,1
DA:35,1
DA:36,1
DA:39,1
DA:40,1
DA:41,1
DA:42,1
DA:44,1
DA:45,1
DA:46,1
DA:48,1
DA:49,1
DA:50,1
DA:51,1
DA:52,1
DA:55,475
DA:56,950
DA:57,475
DA:58,475
DA:59,475
DA:64,949
DA:65,480474
DA:66,1440000
DA:67,960000
DA:70,474
DA:72,475
DA:76,1
DA:77,1
DA:78,1
LF:46
LH:46
end_of_record
TN:
SF:/SharedWithWindows/Projects/diginstrument/src/vorbis_encoder.cpp
FN:3,_ZN13VorbisEncoderC2ERKjS1_RKf
FN:22,_ZN13VorbisEncoder4openERKNSt7__cxx1112basic_stringIcSt11char_traitsIcESaIcEEE
FN:27,_ZN13VorbisEncoder10addCommentENSt7__cxx1112basic_stringIcSt11char_traitsIcESaIcEEES5_
FN:31,_ZN13VorbisEncoder12initEncodingEv
FN:56,_ZN13VorbisEncoder3addESt6vectorIfSaIfEE
FN:84,_ZN13VorbisEncoder5closeEv
FN:114,_ZN13VorbisEncoderD2Ev
FNDA:3,_ZN13VorbisEncoderC2ERKjS1_RKf
FNDA:1,_ZN13VorbisEncoder4openERKNSt7__cxx1112basic_stringIcSt11char_traitsIcESaIcEEE
FNDA:2,_ZN13VorbisEncoder10addCommentENSt7__cxx1112basic_stringIcSt11char_traitsIcESaIcEEES5_
FNDA:1,_ZN13VorbisEncoder12initEncodingEv
FNDA:1,_ZN13VorbisEncoder3addESt6vectorIfSaIfEE
FNDA:1,_ZN13VorbisEncoder5closeEv
FNDA:1,_ZN13VorbisEncoderD2Ev
FNF:7
FNH:7
BRDA:4,4294967295,1,3
BRDA:4,4294967295,2,0
BRDA:6,0,0,1
BRDA:6,0,1,2
BRDA:9,0,0,1
BRDA:9,0,1,2
BRDA:12,0,1,3
BRDA:12,0,2,0
BRDA:13,0,1,3
BRDA:13,0,2,0
BRDA:14,0,1,3
BRDA:14,0,2,0
BRDA:15,0,1,3
BRDA:15,0,2,0
BRDA:19,4294967295,2,3
BRDA:19,4294967295,3,0
BRDA:38,0,1,1
BRDA:38,0,2,0
BRDA:39,0,0,0
BRDA:39,0,1,1
BRDA:40,0,1,1
BRDA:40,0,2,0
BRDA:41,0,0,0
BRDA:41,0,1,1
BRDA:42,0,1,1
BRDA:42,0,2,0
BRDA:43,0,0,0
BRDA:43,0,1,1
BRDA:44,0,1,1
BRDA:44,0,2,0
BRDA:45,0,0,0
BRDA:45,0,1,1
BRDA:47,0,0,3
BRDA:47,0,1,0
BRDA:48,0,1,3
BRDA:48,0,2,0
BRDA:49,0,0,1
BRDA:49,0,1,2
BRDA:50,0,1,2
BRDA:50,0,2,0
BRDA:51,0,1,2
BRDA:51,0,2,0
BRDA:60,0,1,480000
BRDA:60,0,2,1
BRDA:61,1,0,960000
BRDA:61,1,1,480000
BRDA:68,0,1,469
BRDA:68,0,2,1
BRDA:73,0,1,469
BRDA:73,0,2,469
BRDA:76,0,1,5
BRDA:76,0,2,469
BRDA:86,0,1,6
BRDA:86,0,2,1
BRDA:90,0,1,6
BRDA:90,0,2,6
BRDA:93,0,1,1
BRDA:93,0,2,6
BRDA:101,4294967295,0,0
BRDA:101,4294967295,1,1
BRF:60
BRH:41
DA:3,6
DA:4,3
DA:6,3
DA:7,1
DA:9,3
DA:10,1
DA:12,3
DA:13,3
DA:14,3
DA:15,3
DA:18,3
DA:19,3
DA:20,3
DA:22,1
DA:23,1
DA:24,1
DA:27,2
DA:28,2
DA:29,2
DA:31,1
DA:38,1
DA:39,1
DA:40,1
DA:41,1
DA:42,1
DA:43,1
DA:44,1
DA:45,1
DA:47,3
DA:48,3
DA:49,3
DA:50,2
DA:51,2
DA:53,1
DA:56,1
DA:57,1
DA:59,1
DA:60,480001
DA:61,1440000
DA:62,960000
DA:63,960000
DA:66,1
DA:68,470
DA:70,469
DA:71,469
DA:73,938
DA:74,469
DA:76,474
DA:77,5
DA:78,5
DA:82,1
DA:84,1
DA:85,1
DA:86,7
DA:87,6
DA:88,6
DA:90,12
DA:91,6
DA:93,7
DA:94,1
DA:95,1
DA:100,1
DA:101,1
DA:102,0
DA:103,0
DA:105,1
DA:106,1
DA:107,1
DA:108,1
DA:109,1
DA:110,1
DA:111,1
DA:114,2
DA:115,1
DA:116,1
DA:117,1
DA:118,1
DA:119,1
DA:120,1
DA:121,1
LF:80
LH:78
end_of_record
